
Canary Software Package.elf:     file format elf32-avr

Sections:
Idx Name          Size      VMA       LMA       File off  Algn
  0 .data         00000180  00800100  000084aa  0000853e  2**0
                  CONTENTS, ALLOC, LOAD, DATA
  1 .text         000084aa  00000000  00000000  00000094  2**1
                  CONTENTS, ALLOC, LOAD, READONLY, CODE
  2 .bss          00000450  00800280  00800280  000086be  2**0
                  ALLOC
  3 .comment      0000005c  00000000  00000000  000086be  2**0
                  CONTENTS, READONLY
  4 .note.gnu.avr.deviceinfo 00000040  00000000  00000000  0000871c  2**2
                  CONTENTS, READONLY
  5 .debug_aranges 00000280  00000000  00000000  00008760  2**3
                  CONTENTS, READONLY, DEBUGGING
  6 .debug_info   000055fc  00000000  00000000  000089e0  2**0
                  CONTENTS, READONLY, DEBUGGING
  7 .debug_abbrev 000017d8  00000000  00000000  0000dfdc  2**0
                  CONTENTS, READONLY, DEBUGGING
  8 .debug_line   00001e02  00000000  00000000  0000f7b4  2**0
                  CONTENTS, READONLY, DEBUGGING
  9 .debug_frame  0000081c  00000000  00000000  000115b8  2**2
                  CONTENTS, READONLY, DEBUGGING
 10 .debug_str    00000cdf  00000000  00000000  00011dd4  2**0
                  CONTENTS, READONLY, DEBUGGING
 11 .debug_loc    00001fe2  00000000  00000000  00012ab3  2**0
                  CONTENTS, READONLY, DEBUGGING
 12 .debug_ranges 000001b8  00000000  00000000  00014a95  2**0
                  CONTENTS, READONLY, DEBUGGING

Disassembly of section .text:

00000000 <__vectors>:
       0:	96 c0       	rjmp	.+300    	; 0x12e <__ctors_end>
       2:	00 00       	nop
       4:	b3 c0       	rjmp	.+358    	; 0x16c <__bad_interrupt>
       6:	00 00       	nop
       8:	b1 c0       	rjmp	.+354    	; 0x16c <__bad_interrupt>
       a:	00 00       	nop
       c:	af c0       	rjmp	.+350    	; 0x16c <__bad_interrupt>
       e:	00 00       	nop
      10:	ad c0       	rjmp	.+346    	; 0x16c <__bad_interrupt>
      12:	00 00       	nop
      14:	ab c0       	rjmp	.+342    	; 0x16c <__bad_interrupt>
      16:	00 00       	nop
      18:	a9 c0       	rjmp	.+338    	; 0x16c <__bad_interrupt>
      1a:	00 00       	nop
      1c:	a7 c0       	rjmp	.+334    	; 0x16c <__bad_interrupt>
      1e:	00 00       	nop
      20:	a5 c0       	rjmp	.+330    	; 0x16c <__bad_interrupt>
      22:	00 00       	nop
      24:	a3 c0       	rjmp	.+326    	; 0x16c <__bad_interrupt>
      26:	00 00       	nop
      28:	a1 c0       	rjmp	.+322    	; 0x16c <__bad_interrupt>
      2a:	00 00       	nop
      2c:	9f c0       	rjmp	.+318    	; 0x16c <__bad_interrupt>
      2e:	00 00       	nop
      30:	9d c0       	rjmp	.+314    	; 0x16c <__bad_interrupt>
      32:	00 00       	nop
      34:	0c 94 49 3b 	jmp	0x7692	; 0x7692 <__vector_13>
      38:	99 c0       	rjmp	.+306    	; 0x16c <__bad_interrupt>
      3a:	00 00       	nop
      3c:	97 c0       	rjmp	.+302    	; 0x16c <__bad_interrupt>
      3e:	00 00       	nop
      40:	0c 94 48 3b 	jmp	0x7690	; 0x7690 <__vector_16>
      44:	93 c0       	rjmp	.+294    	; 0x16c <__bad_interrupt>
      46:	00 00       	nop
      48:	91 c0       	rjmp	.+290    	; 0x16c <__bad_interrupt>
      4a:	00 00       	nop
      4c:	8f c0       	rjmp	.+286    	; 0x16c <__bad_interrupt>
      4e:	00 00       	nop
      50:	8d c0       	rjmp	.+282    	; 0x16c <__bad_interrupt>
      52:	00 00       	nop
      54:	0c 94 67 3c 	jmp	0x78ce	; 0x78ce <__vector_21>
      58:	89 c0       	rjmp	.+274    	; 0x16c <__bad_interrupt>
      5a:	00 00       	nop
      5c:	87 c0       	rjmp	.+270    	; 0x16c <__bad_interrupt>
      5e:	00 00       	nop
      60:	85 c0       	rjmp	.+266    	; 0x16c <__bad_interrupt>
      62:	00 00       	nop
      64:	83 c0       	rjmp	.+262    	; 0x16c <__bad_interrupt>
      66:	00 00       	nop
      68:	0c 94 b7 3b 	jmp	0x776e	; 0x776e <__vector_26>
      6c:	7f c0       	rjmp	.+254    	; 0x16c <__bad_interrupt>
      6e:	00 00       	nop
      70:	0c 94 a9 3c 	jmp	0x7952	; 0x7952 <__vector_28>
      74:	7b c0       	rjmp	.+246    	; 0x16c <__bad_interrupt>
      76:	00 00       	nop
      78:	79 c0       	rjmp	.+242    	; 0x16c <__bad_interrupt>
      7a:	00 00       	nop
      7c:	77 c0       	rjmp	.+238    	; 0x16c <__bad_interrupt>
      7e:	00 00       	nop
      80:	75 c0       	rjmp	.+234    	; 0x16c <__bad_interrupt>
      82:	00 00       	nop
      84:	73 c0       	rjmp	.+230    	; 0x16c <__bad_interrupt>
      86:	00 00       	nop
      88:	71 c0       	rjmp	.+226    	; 0x16c <__bad_interrupt>
      8a:	00 00       	nop
      8c:	d3 3b       	cpi	r29, 0xB3	; 179
      8e:	25 3c       	cpi	r18, 0xC5	; 197
      90:	25 3c       	cpi	r18, 0xC5	; 197
      92:	25 3c       	cpi	r18, 0xC5	; 197
      94:	25 3c       	cpi	r18, 0xC5	; 197
      96:	25 3c       	cpi	r18, 0xC5	; 197
      98:	25 3c       	cpi	r18, 0xC5	; 197
      9a:	25 3c       	cpi	r18, 0xC5	; 197
      9c:	d3 3b       	cpi	r29, 0xB3	; 179
      9e:	25 3c       	cpi	r18, 0xC5	; 197
      a0:	25 3c       	cpi	r18, 0xC5	; 197
      a2:	25 3c       	cpi	r18, 0xC5	; 197
      a4:	25 3c       	cpi	r18, 0xC5	; 197
      a6:	25 3c       	cpi	r18, 0xC5	; 197
      a8:	25 3c       	cpi	r18, 0xC5	; 197
      aa:	25 3c       	cpi	r18, 0xC5	; 197
      ac:	d5 3b       	cpi	r29, 0xB5	; 181
      ae:	25 3c       	cpi	r18, 0xC5	; 197
      b0:	25 3c       	cpi	r18, 0xC5	; 197
      b2:	25 3c       	cpi	r18, 0xC5	; 197
      b4:	25 3c       	cpi	r18, 0xC5	; 197
      b6:	25 3c       	cpi	r18, 0xC5	; 197
      b8:	25 3c       	cpi	r18, 0xC5	; 197
      ba:	25 3c       	cpi	r18, 0xC5	; 197
      bc:	25 3c       	cpi	r18, 0xC5	; 197
      be:	25 3c       	cpi	r18, 0xC5	; 197
      c0:	25 3c       	cpi	r18, 0xC5	; 197
      c2:	25 3c       	cpi	r18, 0xC5	; 197
      c4:	25 3c       	cpi	r18, 0xC5	; 197
      c6:	25 3c       	cpi	r18, 0xC5	; 197
      c8:	25 3c       	cpi	r18, 0xC5	; 197
      ca:	25 3c       	cpi	r18, 0xC5	; 197
      cc:	d5 3b       	cpi	r29, 0xB5	; 181
      ce:	25 3c       	cpi	r18, 0xC5	; 197
      d0:	25 3c       	cpi	r18, 0xC5	; 197
      d2:	25 3c       	cpi	r18, 0xC5	; 197
      d4:	25 3c       	cpi	r18, 0xC5	; 197
      d6:	25 3c       	cpi	r18, 0xC5	; 197
      d8:	25 3c       	cpi	r18, 0xC5	; 197
      da:	25 3c       	cpi	r18, 0xC5	; 197
      dc:	25 3c       	cpi	r18, 0xC5	; 197
      de:	25 3c       	cpi	r18, 0xC5	; 197
      e0:	25 3c       	cpi	r18, 0xC5	; 197
      e2:	25 3c       	cpi	r18, 0xC5	; 197
      e4:	25 3c       	cpi	r18, 0xC5	; 197
      e6:	25 3c       	cpi	r18, 0xC5	; 197
      e8:	25 3c       	cpi	r18, 0xC5	; 197
      ea:	25 3c       	cpi	r18, 0xC5	; 197
      ec:	21 3c       	cpi	r18, 0xC1	; 193
      ee:	25 3c       	cpi	r18, 0xC5	; 197
      f0:	25 3c       	cpi	r18, 0xC5	; 197
      f2:	25 3c       	cpi	r18, 0xC5	; 197
      f4:	25 3c       	cpi	r18, 0xC5	; 197
      f6:	25 3c       	cpi	r18, 0xC5	; 197
      f8:	25 3c       	cpi	r18, 0xC5	; 197
      fa:	25 3c       	cpi	r18, 0xC5	; 197
      fc:	fe 3b       	cpi	r31, 0xBE	; 190
      fe:	25 3c       	cpi	r18, 0xC5	; 197
     100:	25 3c       	cpi	r18, 0xC5	; 197
     102:	25 3c       	cpi	r18, 0xC5	; 197
     104:	25 3c       	cpi	r18, 0xC5	; 197
     106:	25 3c       	cpi	r18, 0xC5	; 197
     108:	25 3c       	cpi	r18, 0xC5	; 197
     10a:	25 3c       	cpi	r18, 0xC5	; 197
     10c:	25 3c       	cpi	r18, 0xC5	; 197
     10e:	25 3c       	cpi	r18, 0xC5	; 197
     110:	25 3c       	cpi	r18, 0xC5	; 197
     112:	25 3c       	cpi	r18, 0xC5	; 197
     114:	25 3c       	cpi	r18, 0xC5	; 197
     116:	25 3c       	cpi	r18, 0xC5	; 197
     118:	25 3c       	cpi	r18, 0xC5	; 197
     11a:	25 3c       	cpi	r18, 0xC5	; 197
     11c:	f2 3b       	cpi	r31, 0xB2	; 178
     11e:	25 3c       	cpi	r18, 0xC5	; 197
     120:	25 3c       	cpi	r18, 0xC5	; 197
     122:	25 3c       	cpi	r18, 0xC5	; 197
     124:	25 3c       	cpi	r18, 0xC5	; 197
     126:	25 3c       	cpi	r18, 0xC5	; 197
     128:	25 3c       	cpi	r18, 0xC5	; 197
     12a:	25 3c       	cpi	r18, 0xC5	; 197
     12c:	10 3c       	cpi	r17, 0xC0	; 192

0000012e <__ctors_end>:
     12e:	11 24       	eor	r1, r1
     130:	1f be       	out	0x3f, r1	; 63
     132:	cf ef       	ldi	r28, 0xFF	; 255
     134:	d0 e4       	ldi	r29, 0x40	; 64
     136:	de bf       	out	0x3e, r29	; 62
     138:	cd bf       	out	0x3d, r28	; 61

0000013a <__do_copy_data>:
     13a:	12 e0       	ldi	r17, 0x02	; 2
     13c:	a0 e0       	ldi	r26, 0x00	; 0
     13e:	b1 e0       	ldi	r27, 0x01	; 1
     140:	ea ea       	ldi	r30, 0xAA	; 170
     142:	f4 e8       	ldi	r31, 0x84	; 132
     144:	00 e0       	ldi	r16, 0x00	; 0
     146:	0b bf       	out	0x3b, r16	; 59
     148:	02 c0       	rjmp	.+4      	; 0x14e <__do_copy_data+0x14>
     14a:	07 90       	elpm	r0, Z+
     14c:	0d 92       	st	X+, r0
     14e:	a0 38       	cpi	r26, 0x80	; 128
     150:	b1 07       	cpc	r27, r17
     152:	d9 f7       	brne	.-10     	; 0x14a <__do_copy_data+0x10>

00000154 <__do_clear_bss>:
     154:	26 e0       	ldi	r18, 0x06	; 6
     156:	a0 e8       	ldi	r26, 0x80	; 128
     158:	b2 e0       	ldi	r27, 0x02	; 2
     15a:	01 c0       	rjmp	.+2      	; 0x15e <.do_clear_bss_start>

0000015c <.do_clear_bss_loop>:
     15c:	1d 92       	st	X+, r1

0000015e <.do_clear_bss_start>:
     15e:	a0 3d       	cpi	r26, 0xD0	; 208
     160:	b2 07       	cpc	r27, r18
     162:	e1 f7       	brne	.-8      	; 0x15c <.do_clear_bss_loop>
     164:	0e 94 f1 38 	call	0x71e2	; 0x71e2 <main>
     168:	0c 94 53 42 	jmp	0x84a6	; 0x84a6 <_exit>

0000016c <__bad_interrupt>:
     16c:	0c 94 33 3b 	jmp	0x7666	; 0x7666 <__vector_default>

00000170 <ADC_SetMux>:
********************************************************************************/
void ADC_SetMux(uint8_t source) // 
{
	/* A short routine to clear the ADC input select mux bits then set
	those same bits to the source defined in the input.  */
	ADMUX &= 0b11100000; // Clear the select bits then
     170:	ec e7       	ldi	r30, 0x7C	; 124
     172:	f0 e0       	ldi	r31, 0x00	; 0
     174:	90 81       	ld	r25, Z
     176:	90 7e       	andi	r25, 0xE0	; 224
     178:	90 83       	st	Z, r25
	ADMUX |= source; // Set the ADC input source
     17a:	90 81       	ld	r25, Z
     17c:	89 2b       	or	r24, r25
     17e:	80 83       	st	Z, r24
     180:	08 95       	ret

00000182 <ADC_init>:
}

void ADC_init(void)
{
     182:	cf 93       	push	r28
     184:	df 93       	push	r29
	/* This routine is design to set up the ADC hardware on the ATMega324PA for our use. */
	static volatile int16_t ADC_result;
	
	// Select the external AVCC pin as the ADC reference voltage by setting the REFS[1:0] pin in the ADC MUX register to 0b01
	SetBit(ADMUX, REFS0);
     186:	ec e7       	ldi	r30, 0x7C	; 124
     188:	f0 e0       	ldi	r31, 0x00	; 0
     18a:	80 81       	ld	r24, Z
     18c:	80 64       	ori	r24, 0x40	; 64
     18e:	80 83       	st	Z, r24
	
	// Set clock prescaler to 128 to provide a 156kHz ADC clock.  ADPS[2:0] = 0b111
	SetBit(ADCSRA, ADPS0);
     190:	ca e7       	ldi	r28, 0x7A	; 122
     192:	d0 e0       	ldi	r29, 0x00	; 0
     194:	88 81       	ld	r24, Y
     196:	81 60       	ori	r24, 0x01	; 1
     198:	88 83       	st	Y, r24
	SetBit(ADCSRA, ADPS1);
     19a:	88 81       	ld	r24, Y
     19c:	82 60       	ori	r24, 0x02	; 2
     19e:	88 83       	st	Y, r24
	SetBit(ADCSRA, ADPS2);
     1a0:	88 81       	ld	r24, Y
     1a2:	84 60       	ori	r24, 0x04	; 4
     1a4:	88 83       	st	Y, r24
	
	// Clears power reduction register to ensure we get power to the ADC hardware
	ClearBit(PRR0, PRADC);
     1a6:	a4 e6       	ldi	r26, 0x64	; 100
     1a8:	b0 e0       	ldi	r27, 0x00	; 0
     1aa:	8c 91       	ld	r24, X
     1ac:	8e 7f       	andi	r24, 0xFE	; 254
     1ae:	8c 93       	st	X, r24
	
	// Clears the Left Adjust Result bit. This means that output will be right adjusted to get the max resolution
	ClearBit(ADMUX, ADLAR);
     1b0:	80 81       	ld	r24, Z
     1b2:	8f 7d       	andi	r24, 0xDF	; 223
     1b4:	80 83       	st	Z, r24
	
	// Sets Digital Input Disable Register. Writing a one to bits in the DIDR0 to disable the digital input circuitry
	DIDR0 = 0b00111111;
     1b6:	8f e3       	ldi	r24, 0x3F	; 63
     1b8:	80 93 7e 00 	sts	0x007E, r24	; 0x80007e <__TEXT_REGION_LENGTH__+0x7e007e>
	
	// Enable the ADC
	SetBit(ADCSRA, ADEN);
     1bc:	88 81       	ld	r24, Y
     1be:	80 68       	ori	r24, 0x80	; 128
     1c0:	88 83       	st	Y, r24
	// Enable the ADC interrupt
	//*************TURNED OFF FOR LAB TESTING********************************
	// SetBit(ADCSRA, ADIE);  // May have to turn this off for debug
	
	// Set Register ADCSRB to free running mode, single input mode (ADTS[2:0] = 0x00);
	ADCSRB = 0x00;
     1c2:	10 92 7b 00 	sts	0x007B, r1	; 0x80007b <__TEXT_REGION_LENGTH__+0x7e007b>
	
	//  Select test source = ground (GND;  ADMUX.MUX = 0b11111). Result should be 0V.
	ADC_SetMux(0b00011111); 
     1c6:	8f e1       	ldi	r24, 0x1F	; 31
     1c8:	d3 df       	rcall	.-90     	; 0x170 <ADC_SetMux>
	
	// Discard the first conversion and use the second one
	// Sets ADC Start Conversion bit
	SetBit(ADCSRA, ADSC);
     1ca:	88 81       	ld	r24, Y
     1cc:	80 64       	ori	r24, 0x40	; 64
     1ce:	88 83       	st	Y, r24
	while (BitIsClear(ADCSRA, ADIF))
     1d0:	ea e7       	ldi	r30, 0x7A	; 122
     1d2:	f0 e0       	ldi	r31, 0x00	; 0
     1d4:	80 81       	ld	r24, Z
     1d6:	84 ff       	sbrs	r24, 4
     1d8:	fd cf       	rjmp	.-6      	; 0x1d4 <ADC_init+0x52>
	{
		// Wait for conversion to be complete
	}
	
	//   Restart conversion. We'll use this result.
	SetBit(ADCSRA, ADSC);
     1da:	ea e7       	ldi	r30, 0x7A	; 122
     1dc:	f0 e0       	ldi	r31, 0x00	; 0
     1de:	80 81       	ld	r24, Z
     1e0:	80 64       	ori	r24, 0x40	; 64
     1e2:	80 83       	st	Z, r24
	while (BitIsClear(ADCSRA, ADIF))
     1e4:	80 81       	ld	r24, Z
     1e6:	84 ff       	sbrs	r24, 4
     1e8:	fd cf       	rjmp	.-6      	; 0x1e4 <ADC_init+0x62>
	{
		// Wait for conversion to be complete
	}
	
	//  Read result and report error if not real close to zero
	ADC_result = ADCL;
     1ea:	80 91 78 00 	lds	r24, 0x0078	; 0x800078 <__TEXT_REGION_LENGTH__+0x7e0078>
     1ee:	90 e0       	ldi	r25, 0x00	; 0
     1f0:	90 93 81 02 	sts	0x0281, r25	; 0x800281 <__data_end+0x1>
     1f4:	80 93 80 02 	sts	0x0280, r24	; 0x800280 <__data_end>
	ADC_result = ADC_result + (ADCH<<8);
     1f8:	90 91 79 00 	lds	r25, 0x0079	; 0x800079 <__TEXT_REGION_LENGTH__+0x7e0079>
     1fc:	20 91 80 02 	lds	r18, 0x0280	; 0x800280 <__data_end>
     200:	30 91 81 02 	lds	r19, 0x0281	; 0x800281 <__data_end+0x1>
     204:	89 2f       	mov	r24, r25
     206:	90 e0       	ldi	r25, 0x00	; 0
     208:	98 2f       	mov	r25, r24
     20a:	88 27       	eor	r24, r24
     20c:	82 0f       	add	r24, r18
     20e:	93 1f       	adc	r25, r19
     210:	90 93 81 02 	sts	0x0281, r25	; 0x800281 <__data_end+0x1>
     214:	80 93 80 02 	sts	0x0280, r24	; 0x800280 <__data_end>
	if (abs(ADC_result) >4 ) //   We want to be within a few LSBs of zero.
     218:	80 91 80 02 	lds	r24, 0x0280	; 0x800280 <__data_end>
     21c:	90 91 81 02 	lds	r25, 0x0281	; 0x800281 <__data_end+0x1>
     220:	99 23       	and	r25, r25
     222:	1c f4       	brge	.+6      	; 0x22a <ADC_init+0xa8>
     224:	91 95       	neg	r25
     226:	81 95       	neg	r24
     228:	91 09       	sbc	r25, r1
     22a:	05 97       	sbiw	r24, 0x05	; 5
     22c:	2c f0       	brlt	.+10     	; 0x238 <ADC_init+0xb6>
	{
		SetBit(gas_sensor_initialization_errors, ADC_gnd_test_error);
     22e:	80 91 8b 04 	lds	r24, 0x048B	; 0x80048b <gas_sensor_initialization_errors>
     232:	81 60       	ori	r24, 0x01	; 1
     234:	80 93 8b 04 	sts	0x048B, r24	; 0x80048b <gas_sensor_initialization_errors>
	}
	
	// Select test source = bandgap (BG;  ADMUX.MUX = 0b11110). Result should be 1.1V
	ADC_SetMux(0b00011110); 
     238:	8e e1       	ldi	r24, 0x1E	; 30
     23a:	9a df       	rcall	.-204    	; 0x170 <ADC_SetMux>
	SetBit(ADCSRA, ADSC); // Start conversion process
     23c:	ea e7       	ldi	r30, 0x7A	; 122
     23e:	f0 e0       	ldi	r31, 0x00	; 0
     240:	80 81       	ld	r24, Z
     242:	80 64       	ori	r24, 0x40	; 64
     244:	80 83       	st	Z, r24
	while (BitIsClear(ADCSRA, ADIF))
     246:	80 81       	ld	r24, Z
     248:	84 ff       	sbrs	r24, 4
     24a:	fd cf       	rjmp	.-6      	; 0x246 <ADC_init+0xc4>
	{
		// Wait for conversion to be complete
	}
	
	// Read result and report error if not 1.1
	ADC_result = ADCL;
     24c:	80 91 78 00 	lds	r24, 0x0078	; 0x800078 <__TEXT_REGION_LENGTH__+0x7e0078>
     250:	90 e0       	ldi	r25, 0x00	; 0
     252:	90 93 81 02 	sts	0x0281, r25	; 0x800281 <__data_end+0x1>
     256:	80 93 80 02 	sts	0x0280, r24	; 0x800280 <__data_end>
	ADC_result = ADC_result + (ADCH<<8);
     25a:	90 91 79 00 	lds	r25, 0x0079	; 0x800079 <__TEXT_REGION_LENGTH__+0x7e0079>
     25e:	20 91 80 02 	lds	r18, 0x0280	; 0x800280 <__data_end>
     262:	30 91 81 02 	lds	r19, 0x0281	; 0x800281 <__data_end+0x1>
     266:	89 2f       	mov	r24, r25
     268:	90 e0       	ldi	r25, 0x00	; 0
     26a:	98 2f       	mov	r25, r24
     26c:	88 27       	eor	r24, r24
     26e:	82 0f       	add	r24, r18
     270:	93 1f       	adc	r25, r19
     272:	90 93 81 02 	sts	0x0281, r25	; 0x800281 <__data_end+0x1>
     276:	80 93 80 02 	sts	0x0280, r24	; 0x800280 <__data_end>
	ADC_result -= 225;  // 225 is the expected value: 1.1V*1023/5v=225
     27a:	80 91 80 02 	lds	r24, 0x0280	; 0x800280 <__data_end>
     27e:	90 91 81 02 	lds	r25, 0x0281	; 0x800281 <__data_end+0x1>
     282:	81 5e       	subi	r24, 0xE1	; 225
     284:	91 09       	sbc	r25, r1
     286:	90 93 81 02 	sts	0x0281, r25	; 0x800281 <__data_end+0x1>
     28a:	80 93 80 02 	sts	0x0280, r24	; 0x800280 <__data_end>
	if (abs(ADC_result) >= 5)  // We want to be within 4 of target voltage reading.
     28e:	80 91 80 02 	lds	r24, 0x0280	; 0x800280 <__data_end>
     292:	90 91 81 02 	lds	r25, 0x0281	; 0x800281 <__data_end+0x1>
     296:	99 23       	and	r25, r25
     298:	1c f4       	brge	.+6      	; 0x2a0 <ADC_init+0x11e>
     29a:	91 95       	neg	r25
     29c:	81 95       	neg	r24
     29e:	91 09       	sbc	r25, r1
     2a0:	05 97       	sbiw	r24, 0x05	; 5
     2a2:	2c f0       	brlt	.+10     	; 0x2ae <ADC_init+0x12c>
	{
		SetBit(gas_sensor_initialization_errors, ADC_BG_test_error);
     2a4:	80 91 8b 04 	lds	r24, 0x048B	; 0x80048b <gas_sensor_initialization_errors>
     2a8:	82 60       	ori	r24, 0x02	; 2
     2aa:	80 93 8b 04 	sts	0x048B, r24	; 0x80048b <gas_sensor_initialization_errors>
	}
	
	// Clear the analog to digital enable bit until we need it again
	ClearBit(ADCSRA, ADEN);
     2ae:	ea e7       	ldi	r30, 0x7A	; 122
     2b0:	f0 e0       	ldi	r31, 0x00	; 0
     2b2:	80 81       	ld	r24, Z
     2b4:	8f 77       	andi	r24, 0x7F	; 127
     2b6:	80 83       	st	Z, r24
     2b8:	df 91       	pop	r29
     2ba:	cf 91       	pop	r28
     2bc:	08 95       	ret

000002be <BME_read_correction_coefficients>:
********************************************************************************/

/********************************************************************************
						Functions
********************************************************************************/
void BME_read_correction_coefficients(void) {
     2be:	ff 92       	push	r15
     2c0:	0f 93       	push	r16
     2c2:	1f 93       	push	r17
     2c4:	cf 93       	push	r28
     2c6:	df 93       	push	r29
	// 	BMEmessageBuf[1] = 0x88; // The register we want to start reading from
	/*	TWI_Start_Transceiver_With_Data( BMEmessageBuf, 2);*/
	// Let initialization transaction complete...
	/*	while ( TWI_Transceiver_Busy() );*/
	static volatile uint8_t BMEbusy = 1;
	while (BMEbusy) {
     2c8:	80 91 00 01 	lds	r24, 0x0100	; 0x800100 <__data_start>
     2cc:	88 23       	and	r24, r24
     2ce:	59 f1       	breq	.+86     	; 0x326 <BME_read_correction_coefficients+0x68>
		BMEmessageBuf[0] = BME_WRITE_ADDRESS; // The first byte must always have TWI slave address.
     2d0:	c1 ec       	ldi	r28, 0xC1	; 193
     2d2:	d3 e0       	ldi	r29, 0x03	; 3
     2d4:	0f 2e       	mov	r0, r31
     2d6:	fc ee       	ldi	r31, 0xEC	; 236
     2d8:	ff 2e       	mov	r15, r31
     2da:	f0 2d       	mov	r31, r0
		BMEmessageBuf[1] = 0xF3; // The BME280 status register
     2dc:	03 ef       	ldi	r16, 0xF3	; 243
		TWI_Start_Transceiver_With_Data( BMEmessageBuf, 2);
		// Let initialization transaction complete...
		while ( TWI_Transceiver_Busy() );
		// Bytes to read = (number_of_bytes_to_read (on next cycle) +1).
		BMEmessageBuf[0] = BME_READ_ADDRESS; // The first byte must always have TWI slave address.
     2de:	1d ee       	ldi	r17, 0xED	; 237
	/*	TWI_Start_Transceiver_With_Data( BMEmessageBuf, 2);*/
	// Let initialization transaction complete...
	/*	while ( TWI_Transceiver_Busy() );*/
	static volatile uint8_t BMEbusy = 1;
	while (BMEbusy) {
		BMEmessageBuf[0] = BME_WRITE_ADDRESS; // The first byte must always have TWI slave address.
     2e0:	f8 82       	st	Y, r15
		BMEmessageBuf[1] = 0xF3; // The BME280 status register
     2e2:	09 83       	std	Y+1, r16	; 0x01
		TWI_Start_Transceiver_With_Data( BMEmessageBuf, 2);
     2e4:	62 e0       	ldi	r22, 0x02	; 2
     2e6:	ce 01       	movw	r24, r28
     2e8:	0e 94 6c 3b 	call	0x76d8	; 0x76d8 <TWI_Start_Transceiver_With_Data>
		// Let initialization transaction complete...
		while ( TWI_Transceiver_Busy() );
     2ec:	0e 94 68 3b 	call	0x76d0	; 0x76d0 <TWI_Transceiver_Busy>
     2f0:	81 11       	cpse	r24, r1
     2f2:	fc cf       	rjmp	.-8      	; 0x2ec <BME_read_correction_coefficients+0x2e>
		// Bytes to read = (number_of_bytes_to_read (on next cycle) +1).
		BMEmessageBuf[0] = BME_READ_ADDRESS; // The first byte must always have TWI slave address.
     2f4:	18 83       	st	Y, r17
		TWI_Start_Transceiver_With_Data( BMEmessageBuf, 26); //We want one bytes back, so use 2 in the function call.
     2f6:	6a e1       	ldi	r22, 0x1A	; 26
     2f8:	ce 01       	movw	r24, r28
     2fa:	0e 94 6c 3b 	call	0x76d8	; 0x76d8 <TWI_Start_Transceiver_With_Data>
		// Let initialization transaction complete...
		while ( TWI_Transceiver_Busy() );
     2fe:	0e 94 68 3b 	call	0x76d0	; 0x76d0 <TWI_Transceiver_Busy>
     302:	81 11       	cpse	r24, r1
     304:	fc cf       	rjmp	.-8      	; 0x2fe <BME_read_correction_coefficients+0x40>
		// Copy the data we want...
		TWI_XFER_STATUS = TWI_Get_Data_From_Transceiver(BMEmessageBuf, 26);
     306:	6a e1       	ldi	r22, 0x1A	; 26
     308:	ce 01       	movw	r24, r28
     30a:	0e 94 98 3b 	call	0x7730	; 0x7730 <TWI_Get_Data_From_Transceiver>
     30e:	80 93 c3 04 	sts	0x04C3, r24	; 0x8004c3 <TWI_XFER_STATUS>
		// CHeck to see if things are still busy
		BMEbusy = ((0b00001000 & BMEmessageBuf[1])>>3);
     312:	89 81       	ldd	r24, Y+1	; 0x01
     314:	83 fb       	bst	r24, 3
     316:	88 27       	eor	r24, r24
     318:	80 f9       	bld	r24, 0
     31a:	80 93 00 01 	sts	0x0100, r24	; 0x800100 <__data_start>
	// 	BMEmessageBuf[1] = 0x88; // The register we want to start reading from
	/*	TWI_Start_Transceiver_With_Data( BMEmessageBuf, 2);*/
	// Let initialization transaction complete...
	/*	while ( TWI_Transceiver_Busy() );*/
	static volatile uint8_t BMEbusy = 1;
	while (BMEbusy) {
     31e:	80 91 00 01 	lds	r24, 0x0100	; 0x800100 <__data_start>
     322:	81 11       	cpse	r24, r1
     324:	dd cf       	rjmp	.-70     	; 0x2e0 <BME_read_correction_coefficients+0x22>
	// 	TWI_XFER_STATUS = TWI_Get_Data_From_Transceiver(BMEmessageBuf, 26);
	// Note that the data we want starts in BMEmessageBuf[1], not BMEmessageBuf[0]
	// Transfer the data to a variable we can manipulate to get our data out...
	// Device is completed the measurement cycle, now get the temperature data...
	// We want to start reading the data from register 0xF7 and read to register 0xFE - 8 bytes total
	BMEmessageBuf[0] = BME_WRITE_ADDRESS; // The first byte must always have TWI slave address.
     326:	e1 ec       	ldi	r30, 0xC1	; 193
     328:	f3 e0       	ldi	r31, 0x03	; 3
     32a:	8c ee       	ldi	r24, 0xEC	; 236
     32c:	80 83       	st	Z, r24
	BMEmessageBuf[1] = 0x88; // The register we want to start reading from
     32e:	88 e8       	ldi	r24, 0x88	; 136
     330:	81 83       	std	Z+1, r24	; 0x01
	TWI_Start_Transceiver_With_Data( BMEmessageBuf, 2);
     332:	62 e0       	ldi	r22, 0x02	; 2
     334:	cf 01       	movw	r24, r30
     336:	0e 94 6c 3b 	call	0x76d8	; 0x76d8 <TWI_Start_Transceiver_With_Data>
	// Let initialization transaction complete...
	while ( TWI_Transceiver_Busy() );
     33a:	0e 94 68 3b 	call	0x76d0	; 0x76d0 <TWI_Transceiver_Busy>
     33e:	81 11       	cpse	r24, r1
     340:	fc cf       	rjmp	.-8      	; 0x33a <BME_read_correction_coefficients+0x7c>
	// Now for the read part...
	// Bytes to read = (number_of_bytes_to_read (on next cycle) +1). Zero origin.   If we want to read eight bytes, we pass "9".
	BMEmessageBuf[0] = BME_READ_ADDRESS; // The first byte must always have TWI slave address.
     342:	8d ee       	ldi	r24, 0xED	; 237
     344:	80 93 c1 03 	sts	0x03C1, r24	; 0x8003c1 <BMEmessageBuf>
	TWI_Start_Transceiver_With_Data( BMEmessageBuf, 27); //We want eight bytes back, so use 9 in the function call.
     348:	6b e1       	ldi	r22, 0x1B	; 27
     34a:	81 ec       	ldi	r24, 0xC1	; 193
     34c:	93 e0       	ldi	r25, 0x03	; 3
     34e:	0e 94 6c 3b 	call	0x76d8	; 0x76d8 <TWI_Start_Transceiver_With_Data>
	// Let initialization transaction complete...
	while ( TWI_Transceiver_Busy() );
     352:	0e 94 68 3b 	call	0x76d0	; 0x76d0 <TWI_Transceiver_Busy>
     356:	81 11       	cpse	r24, r1
     358:	fc cf       	rjmp	.-8      	; 0x352 <BME_read_correction_coefficients+0x94>
	// Now get the data we just read...note this call just copies the data from the TWI routine buffer to our local buffer (BMEmessageBuf)...
	TWI_XFER_STATUS = TWI_Get_Data_From_Transceiver(BMEmessageBuf, 27);
     35a:	6b e1       	ldi	r22, 0x1B	; 27
     35c:	81 ec       	ldi	r24, 0xC1	; 193
     35e:	93 e0       	ldi	r25, 0x03	; 3
     360:	0e 94 98 3b 	call	0x7730	; 0x7730 <TWI_Get_Data_From_Transceiver>
     364:	80 93 c3 04 	sts	0x04C3, r24	; 0x8004c3 <TWI_XFER_STATUS>
     368:	c2 ec       	ldi	r28, 0xC2	; 194
     36a:	d3 e0       	ldi	r29, 0x03	; 3
     36c:	0d ee       	ldi	r16, 0xED	; 237
     36e:	13 e0       	ldi	r17, 0x03	; 3
     370:	2d ed       	ldi	r18, 0xDD	; 221
     372:	33 e0       	ldi	r19, 0x03	; 3
     374:	d8 01       	movw	r26, r16
     376:	fe 01       	movw	r30, r28
	// Note that the data we want starts in BMEmessageBuf[1], not BMEmessageBuf[0]
	// Transfer the data to a variable we can manipulate to get our data out...
	for (i=0;i<27;i++) 	{
		RawBMEdata[i] = BMEmessageBuf[i+1];
     378:	81 91       	ld	r24, Z+
     37a:	8d 93       	st	X+, r24
	while ( TWI_Transceiver_Busy() );
	// Now get the data we just read...note this call just copies the data from the TWI routine buffer to our local buffer (BMEmessageBuf)...
	TWI_XFER_STATUS = TWI_Get_Data_From_Transceiver(BMEmessageBuf, 27);
	// Note that the data we want starts in BMEmessageBuf[1], not BMEmessageBuf[0]
	// Transfer the data to a variable we can manipulate to get our data out...
	for (i=0;i<27;i++) 	{
     37c:	e2 17       	cp	r30, r18
     37e:	f3 07       	cpc	r31, r19
     380:	d9 f7       	brne	.-10     	; 0x378 <BME_read_correction_coefficients+0xba>
     382:	8b e1       	ldi	r24, 0x1B	; 27
     384:	80 93 83 02 	sts	0x0283, r24	; 0x800283 <i.2327>
		RawBMEdata[i] = BMEmessageBuf[i+1];
	}
	dig_T1 = /*0x7069;*/ RawBMEdata[0] | (RawBMEdata[1]<<8);
     388:	ed ee       	ldi	r30, 0xED	; 237
     38a:	f3 e0       	ldi	r31, 0x03	; 3
     38c:	81 81       	ldd	r24, Z+1	; 0x01
     38e:	90 e0       	ldi	r25, 0x00	; 0
     390:	98 2f       	mov	r25, r24
     392:	88 27       	eor	r24, r24
     394:	20 81       	ld	r18, Z
     396:	82 2b       	or	r24, r18
     398:	90 93 c0 03 	sts	0x03C0, r25	; 0x8003c0 <dig_T1+0x1>
     39c:	80 93 bf 03 	sts	0x03BF, r24	; 0x8003bf <dig_T1>
	dig_T2 = /*0x6738;*/ RawBMEdata[2] | (RawBMEdata[3]<<8);
     3a0:	83 81       	ldd	r24, Z+3	; 0x03
     3a2:	90 e0       	ldi	r25, 0x00	; 0
     3a4:	98 2f       	mov	r25, r24
     3a6:	88 27       	eor	r24, r24
     3a8:	22 81       	ldd	r18, Z+2	; 0x02
     3aa:	82 2b       	or	r24, r18
     3ac:	90 93 ec 03 	sts	0x03EC, r25	; 0x8003ec <dig_T2+0x1>
     3b0:	80 93 eb 03 	sts	0x03EB, r24	; 0x8003eb <dig_T2>
	dig_T3 = /*0x32; */RawBMEdata[4] | (RawBMEdata[5]<<8);
     3b4:	85 81       	ldd	r24, Z+5	; 0x05
     3b6:	90 e0       	ldi	r25, 0x00	; 0
     3b8:	98 2f       	mov	r25, r24
     3ba:	88 27       	eor	r24, r24
     3bc:	24 81       	ldd	r18, Z+4	; 0x04
     3be:	82 2b       	or	r24, r18
     3c0:	90 93 a8 04 	sts	0x04A8, r25	; 0x8004a8 <dig_T3+0x1>
     3c4:	80 93 a7 04 	sts	0x04A7, r24	; 0x8004a7 <dig_T3>
	dig_P1 = RawBMEdata[6] | (RawBMEdata[7]<<8);
     3c8:	87 81       	ldd	r24, Z+7	; 0x07
     3ca:	90 e0       	ldi	r25, 0x00	; 0
     3cc:	98 2f       	mov	r25, r24
     3ce:	88 27       	eor	r24, r24
     3d0:	26 81       	ldd	r18, Z+6	; 0x06
     3d2:	82 2b       	or	r24, r18
     3d4:	90 93 8d 04 	sts	0x048D, r25	; 0x80048d <dig_P1+0x1>
     3d8:	80 93 8c 04 	sts	0x048C, r24	; 0x80048c <dig_P1>
	dig_P2 = RawBMEdata[8] | (RawBMEdata[9]<<8);
     3dc:	81 85       	ldd	r24, Z+9	; 0x09
     3de:	90 e0       	ldi	r25, 0x00	; 0
     3e0:	98 2f       	mov	r25, r24
     3e2:	88 27       	eor	r24, r24
     3e4:	20 85       	ldd	r18, Z+8	; 0x08
     3e6:	82 2b       	or	r24, r18
     3e8:	90 93 33 04 	sts	0x0433, r25	; 0x800433 <dig_P2+0x1>
     3ec:	80 93 32 04 	sts	0x0432, r24	; 0x800432 <dig_P2>
	dig_P3 = RawBMEdata[10] | (RawBMEdata[11]<<8);
     3f0:	83 85       	ldd	r24, Z+11	; 0x0b
     3f2:	90 e0       	ldi	r25, 0x00	; 0
     3f4:	98 2f       	mov	r25, r24
     3f6:	88 27       	eor	r24, r24
     3f8:	22 85       	ldd	r18, Z+10	; 0x0a
     3fa:	82 2b       	or	r24, r18
     3fc:	90 93 8f 04 	sts	0x048F, r25	; 0x80048f <dig_P3+0x1>
     400:	80 93 8e 04 	sts	0x048E, r24	; 0x80048e <dig_P3>
	dig_P4 = RawBMEdata[12] | (RawBMEdata[13]<<8);
     404:	85 85       	ldd	r24, Z+13	; 0x0d
     406:	90 e0       	ldi	r25, 0x00	; 0
     408:	98 2f       	mov	r25, r24
     40a:	88 27       	eor	r24, r24
     40c:	24 85       	ldd	r18, Z+12	; 0x0c
     40e:	82 2b       	or	r24, r18
     410:	90 93 35 04 	sts	0x0435, r25	; 0x800435 <dig_P4+0x1>
     414:	80 93 34 04 	sts	0x0434, r24	; 0x800434 <dig_P4>
	dig_P5 = RawBMEdata[14] | (RawBMEdata[15]<<8);
     418:	87 85       	ldd	r24, Z+15	; 0x0f
     41a:	90 e0       	ldi	r25, 0x00	; 0
     41c:	98 2f       	mov	r25, r24
     41e:	88 27       	eor	r24, r24
     420:	26 85       	ldd	r18, Z+14	; 0x0e
     422:	82 2b       	or	r24, r18
     424:	90 93 55 04 	sts	0x0455, r25	; 0x800455 <dig_P5+0x1>
     428:	80 93 54 04 	sts	0x0454, r24	; 0x800454 <dig_P5>
	dig_P6 = RawBMEdata[16] | (RawBMEdata[17]<<8);
     42c:	81 89       	ldd	r24, Z+17	; 0x11
     42e:	90 e0       	ldi	r25, 0x00	; 0
     430:	98 2f       	mov	r25, r24
     432:	88 27       	eor	r24, r24
     434:	20 89       	ldd	r18, Z+16	; 0x10
     436:	82 2b       	or	r24, r18
     438:	90 93 aa 04 	sts	0x04AA, r25	; 0x8004aa <dig_P6+0x1>
     43c:	80 93 a9 04 	sts	0x04A9, r24	; 0x8004a9 <dig_P6>
	dig_P7 = RawBMEdata[18] | (RawBMEdata[19]<<8);
     440:	83 89       	ldd	r24, Z+19	; 0x13
     442:	90 e0       	ldi	r25, 0x00	; 0
     444:	98 2f       	mov	r25, r24
     446:	88 27       	eor	r24, r24
     448:	22 89       	ldd	r18, Z+18	; 0x12
     44a:	82 2b       	or	r24, r18
     44c:	90 93 be 03 	sts	0x03BE, r25	; 0x8003be <dig_P7+0x1>
     450:	80 93 bd 03 	sts	0x03BD, r24	; 0x8003bd <dig_P7>
	dig_P8 = RawBMEdata[20] | (RawBMEdata[21]<<8);
     454:	85 89       	ldd	r24, Z+21	; 0x15
     456:	90 e0       	ldi	r25, 0x00	; 0
     458:	98 2f       	mov	r25, r24
     45a:	88 27       	eor	r24, r24
     45c:	24 89       	ldd	r18, Z+20	; 0x14
     45e:	82 2b       	or	r24, r18
     460:	90 93 91 04 	sts	0x0491, r25	; 0x800491 <dig_P8+0x1>
     464:	80 93 90 04 	sts	0x0490, r24	; 0x800490 <dig_P8>
	dig_P9 = RawBMEdata[22] | (RawBMEdata[23]<<8);
     468:	87 89       	ldd	r24, Z+23	; 0x17
     46a:	90 e0       	ldi	r25, 0x00	; 0
     46c:	98 2f       	mov	r25, r24
     46e:	88 27       	eor	r24, r24
     470:	26 89       	ldd	r18, Z+22	; 0x16
     472:	82 2b       	or	r24, r18
     474:	90 93 a6 04 	sts	0x04A6, r25	; 0x8004a6 <dig_P9+0x1>
     478:	80 93 a5 04 	sts	0x04A5, r24	; 0x8004a5 <dig_P9>
	dig_H1 = RawBMEdata[25];
     47c:	81 8d       	ldd	r24, Z+25	; 0x19
     47e:	90 e0       	ldi	r25, 0x00	; 0
     480:	90 93 1c 04 	sts	0x041C, r25	; 0x80041c <dig_H1+0x1>
     484:	80 93 1b 04 	sts	0x041B, r24	; 0x80041b <dig_H1>
	//Now grab the rest of the humidity sensor data
	BMEmessageBuf[0] = BME_WRITE_ADDRESS; // The first byte must always have TWI slave address.
     488:	e1 ec       	ldi	r30, 0xC1	; 193
     48a:	f3 e0       	ldi	r31, 0x03	; 3
     48c:	8c ee       	ldi	r24, 0xEC	; 236
     48e:	80 83       	st	Z, r24
	BMEmessageBuf[1] = 0xE1; // The register we want to start reading from
     490:	81 ee       	ldi	r24, 0xE1	; 225
     492:	81 83       	std	Z+1, r24	; 0x01
	TWI_Start_Transceiver_With_Data( BMEmessageBuf, 2);
     494:	62 e0       	ldi	r22, 0x02	; 2
     496:	cf 01       	movw	r24, r30
     498:	0e 94 6c 3b 	call	0x76d8	; 0x76d8 <TWI_Start_Transceiver_With_Data>
	// Let initialization transaction complete...
	while ( TWI_Transceiver_Busy() );
     49c:	0e 94 68 3b 	call	0x76d0	; 0x76d0 <TWI_Transceiver_Busy>
     4a0:	81 11       	cpse	r24, r1
     4a2:	fc cf       	rjmp	.-8      	; 0x49c <__LOCK_REGION_LENGTH__+0x9c>
	// Now for the read part...
	// Bytes to read = (number_of_bytes_to_read (on next cycle) +1). Zero origin.   If we want to read eight bytes, we pass "9".
	BMEmessageBuf[0] = BME_READ_ADDRESS; // The first byte must always have TWI slave address.
     4a4:	8d ee       	ldi	r24, 0xED	; 237
     4a6:	80 93 c1 03 	sts	0x03C1, r24	; 0x8003c1 <BMEmessageBuf>
	TWI_Start_Transceiver_With_Data( BMEmessageBuf, 8); //We want eight bytes back, so use 9 in the function call.
     4aa:	68 e0       	ldi	r22, 0x08	; 8
     4ac:	81 ec       	ldi	r24, 0xC1	; 193
     4ae:	93 e0       	ldi	r25, 0x03	; 3
     4b0:	0e 94 6c 3b 	call	0x76d8	; 0x76d8 <TWI_Start_Transceiver_With_Data>
	// Let initialization transaction complete...
	while ( TWI_Transceiver_Busy() );
     4b4:	0e 94 68 3b 	call	0x76d0	; 0x76d0 <TWI_Transceiver_Busy>
     4b8:	81 11       	cpse	r24, r1
     4ba:	fc cf       	rjmp	.-8      	; 0x4b4 <__LOCK_REGION_LENGTH__+0xb4>
	// Now get the data we just read...note this call just copies the data from the TWI routine buffer to our local buffer (BMEmessageBuf)...
	TWI_XFER_STATUS = TWI_Get_Data_From_Transceiver(BMEmessageBuf, 8);
     4bc:	68 e0       	ldi	r22, 0x08	; 8
     4be:	81 ec       	ldi	r24, 0xC1	; 193
     4c0:	93 e0       	ldi	r25, 0x03	; 3
     4c2:	0e 94 98 3b 	call	0x7730	; 0x7730 <TWI_Get_Data_From_Transceiver>
     4c6:	80 93 c3 04 	sts	0x04C3, r24	; 0x8004c3 <TWI_XFER_STATUS>
     4ca:	29 ec       	ldi	r18, 0xC9	; 201
     4cc:	33 e0       	ldi	r19, 0x03	; 3
	// Note that the data we want starts in BMEmessageBuf[1], not BMEmessageBuf[0]
	// Transfer the data to a variable we can manipulate to get our data out...
	for (i=0;i<7;i++) 	{
		RawBMEdata[i] = BMEmessageBuf[i+1];
     4ce:	89 91       	ld	r24, Y+
     4d0:	f8 01       	movw	r30, r16
     4d2:	81 93       	st	Z+, r24
     4d4:	8f 01       	movw	r16, r30
	while ( TWI_Transceiver_Busy() );
	// Now get the data we just read...note this call just copies the data from the TWI routine buffer to our local buffer (BMEmessageBuf)...
	TWI_XFER_STATUS = TWI_Get_Data_From_Transceiver(BMEmessageBuf, 8);
	// Note that the data we want starts in BMEmessageBuf[1], not BMEmessageBuf[0]
	// Transfer the data to a variable we can manipulate to get our data out...
	for (i=0;i<7;i++) 	{
     4d6:	c2 17       	cp	r28, r18
     4d8:	d3 07       	cpc	r29, r19
     4da:	c9 f7       	brne	.-14     	; 0x4ce <__LOCK_REGION_LENGTH__+0xce>
     4dc:	87 e0       	ldi	r24, 0x07	; 7
     4de:	80 93 83 02 	sts	0x0283, r24	; 0x800283 <i.2327>
		RawBMEdata[i] = BMEmessageBuf[i+1];
	}
	dig_H2 = RawBMEdata[1] | (RawBMEdata[2]<<8);
     4e2:	ed ee       	ldi	r30, 0xED	; 237
     4e4:	f3 e0       	ldi	r31, 0x03	; 3
     4e6:	82 81       	ldd	r24, Z+2	; 0x02
     4e8:	90 e0       	ldi	r25, 0x00	; 0
     4ea:	98 2f       	mov	r25, r24
     4ec:	88 27       	eor	r24, r24
     4ee:	21 81       	ldd	r18, Z+1	; 0x01
     4f0:	82 2b       	or	r24, r18
     4f2:	90 93 ac 04 	sts	0x04AC, r25	; 0x8004ac <dig_H2+0x1>
     4f6:	80 93 ab 04 	sts	0x04AB, r24	; 0x8004ab <dig_H2>
	dig_H3 = RawBMEdata[3];
     4fa:	83 81       	ldd	r24, Z+3	; 0x03
     4fc:	90 e0       	ldi	r25, 0x00	; 0
     4fe:	90 93 a0 04 	sts	0x04A0, r25	; 0x8004a0 <dig_H3+0x1>
     502:	80 93 9f 04 	sts	0x049F, r24	; 0x80049f <dig_H3>
	dig_H4 = (RawBMEdata[4]<<4) | (RawBMEdata[5]>>5);
     506:	85 81       	ldd	r24, Z+5	; 0x05
     508:	82 95       	swap	r24
     50a:	86 95       	lsr	r24
     50c:	87 70       	andi	r24, 0x07	; 7
     50e:	90 e0       	ldi	r25, 0x00	; 0
     510:	24 81       	ldd	r18, Z+4	; 0x04
     512:	40 e1       	ldi	r20, 0x10	; 16
     514:	24 9f       	mul	r18, r20
     516:	90 01       	movw	r18, r0
     518:	11 24       	eor	r1, r1
     51a:	28 2b       	or	r18, r24
     51c:	39 2b       	or	r19, r25
     51e:	30 93 ea 03 	sts	0x03EA, r19	; 0x8003ea <dig_H4+0x1>
     522:	20 93 e9 03 	sts	0x03E9, r18	; 0x8003e9 <dig_H4>
	dig_H5 = (RawBMEdata[5]>>5) | (RawBMEdata[6]<<4);
     526:	26 81       	ldd	r18, Z+6	; 0x06
     528:	40 e1       	ldi	r20, 0x10	; 16
     52a:	24 9f       	mul	r18, r20
     52c:	90 01       	movw	r18, r0
     52e:	11 24       	eor	r1, r1
     530:	82 2b       	or	r24, r18
     532:	93 2b       	or	r25, r19
     534:	90 93 9d 04 	sts	0x049D, r25	; 0x80049d <dig_H5+0x1>
     538:	80 93 9c 04 	sts	0x049C, r24	; 0x80049c <dig_H5>
	dig_H6 = RawBMEdata[7];
     53c:	87 81       	ldd	r24, Z+7	; 0x07
     53e:	90 e0       	ldi	r25, 0x00	; 0
     540:	90 93 42 04 	sts	0x0442, r25	; 0x800442 <dig_H6+0x1>
     544:	80 93 41 04 	sts	0x0441, r24	; 0x800441 <dig_H6>
}
     548:	df 91       	pop	r29
     54a:	cf 91       	pop	r28
     54c:	1f 91       	pop	r17
     54e:	0f 91       	pop	r16
     550:	ff 90       	pop	r15
     552:	08 95       	ret

00000554 <bme280basic_init>:
	// 3) Send the two bytes and restart
	// 4) First byte is the sensor I2C address (x2) and the read/write bit set to 1
	// 5) Start the transaction and send a NACK after you've received the last byte you want.
	//
	// First, reset the device per section 5.4.2 of the data sheet
	BMEmessageBuf[0] = BME_WRITE_ADDRESS; // The first byte must always have TWI slave address.
     554:	e1 ec       	ldi	r30, 0xC1	; 193
     556:	f3 e0       	ldi	r31, 0x03	; 3
     558:	8c ee       	ldi	r24, 0xEC	; 236
     55a:	80 83       	st	Z, r24
	BMEmessageBuf[1] = 0xE0; // The register we want to write to
     55c:	80 ee       	ldi	r24, 0xE0	; 224
     55e:	81 83       	std	Z+1, r24	; 0x01
	BMEmessageBuf[2] = 0xB6; // This value forces a reset to the device
     560:	86 eb       	ldi	r24, 0xB6	; 182
     562:	82 83       	std	Z+2, r24	; 0x02
	TWI_Start_Transceiver_With_Data( BMEmessageBuf, 3);
     564:	63 e0       	ldi	r22, 0x03	; 3
     566:	cf 01       	movw	r24, r30
     568:	0e 94 6c 3b 	call	0x76d8	; 0x76d8 <TWI_Start_Transceiver_With_Data>
	// Wait for the transaction to complete...
	while ( TWI_Transceiver_Busy() );
     56c:	0e 94 68 3b 	call	0x76d0	; 0x76d0 <TWI_Transceiver_Busy>
     570:	81 11       	cpse	r24, r1
     572:	fc cf       	rjmp	.-8      	; 0x56c <bme280basic_init+0x18>
	//
	// Now read the chip ID from register 0x0D
	BMEmessageBuf[0] = BME_WRITE_ADDRESS; // The first byte must always have TWI slave address.
     574:	e1 ec       	ldi	r30, 0xC1	; 193
     576:	f3 e0       	ldi	r31, 0x03	; 3
     578:	8c ee       	ldi	r24, 0xEC	; 236
     57a:	80 83       	st	Z, r24
	BMEmessageBuf[1] = 0xD0; // The register we want to read from
     57c:	80 ed       	ldi	r24, 0xD0	; 208
     57e:	81 83       	std	Z+1, r24	; 0x01
	TWI_Start_Transceiver_With_Data( BMEmessageBuf, 2);
     580:	62 e0       	ldi	r22, 0x02	; 2
     582:	cf 01       	movw	r24, r30
     584:	0e 94 6c 3b 	call	0x76d8	; 0x76d8 <TWI_Start_Transceiver_With_Data>
	// Let initialization transaction complete...
	while ( TWI_Transceiver_Busy() );
     588:	0e 94 68 3b 	call	0x76d0	; 0x76d0 <TWI_Transceiver_Busy>
     58c:	81 11       	cpse	r24, r1
     58e:	fc cf       	rjmp	.-8      	; 0x588 <bme280basic_init+0x34>
	// Now for the read part...
	// Bytes to read = (number_of_bytes_to_read (on next cycle) +1). Zero origin.   If we want to read one byte, we pass "2".
	BMEmessageBuf[0] = BME_READ_ADDRESS; // The first byte must always have TWI slave address.
     590:	8d ee       	ldi	r24, 0xED	; 237
     592:	80 93 c1 03 	sts	0x03C1, r24	; 0x8003c1 <BMEmessageBuf>
	TWI_Start_Transceiver_With_Data( BMEmessageBuf, 2); //We only want one byte back, so use 2 in the function call.
     596:	62 e0       	ldi	r22, 0x02	; 2
     598:	81 ec       	ldi	r24, 0xC1	; 193
     59a:	93 e0       	ldi	r25, 0x03	; 3
     59c:	0e 94 6c 3b 	call	0x76d8	; 0x76d8 <TWI_Start_Transceiver_With_Data>
	// Let initialization transaction complete...
	while ( TWI_Transceiver_Busy() );
     5a0:	0e 94 68 3b 	call	0x76d0	; 0x76d0 <TWI_Transceiver_Busy>
     5a4:	81 11       	cpse	r24, r1
     5a6:	fc cf       	rjmp	.-8      	; 0x5a0 <bme280basic_init+0x4c>
	// Now get the data we just read...note this call just copies the data from the TWI routine buffer to our local buffer (BMEmessageBuf)...
	TWI_XFER_STATUS = TWI_Get_Data_From_Transceiver(BMEmessageBuf, 2);
     5a8:	62 e0       	ldi	r22, 0x02	; 2
     5aa:	81 ec       	ldi	r24, 0xC1	; 193
     5ac:	93 e0       	ldi	r25, 0x03	; 3
     5ae:	0e 94 98 3b 	call	0x7730	; 0x7730 <TWI_Get_Data_From_Transceiver>
     5b2:	80 93 c3 04 	sts	0x04C3, r24	; 0x8004c3 <TWI_XFER_STATUS>
	// Note that the data we want starts in BMEmessageBuf[1], not BMEmessageBuf[0]
	if (BMEmessageBuf[1]==0x60) {
     5b6:	80 91 c2 03 	lds	r24, 0x03C2	; 0x8003c2 <BMEmessageBuf+0x1>
     5ba:	80 36       	cpi	r24, 0x60	; 96
     5bc:	99 f5       	brne	.+102    	; 0x624 <bme280basic_init+0xd0>
		// We're talking to the right device.  Set up the control registers...
		//
		// We want Humidity oversampling set to x1 (ctrl_hum (0xF2) [2:0] = 0b001)
		BMEmessageBuf[0] = BME_WRITE_ADDRESS; // The first byte must always have TWI slave address.
     5be:	e1 ec       	ldi	r30, 0xC1	; 193
     5c0:	f3 e0       	ldi	r31, 0x03	; 3
     5c2:	8c ee       	ldi	r24, 0xEC	; 236
     5c4:	80 83       	st	Z, r24
		BMEmessageBuf[1] = 0xF2; // The register we want to write to
     5c6:	82 ef       	ldi	r24, 0xF2	; 242
     5c8:	81 83       	std	Z+1, r24	; 0x01
		BMEmessageBuf[2] = 0x01; // Set humidity oversampling to x1
     5ca:	81 e0       	ldi	r24, 0x01	; 1
     5cc:	82 83       	std	Z+2, r24	; 0x02
		TWI_Start_Transceiver_With_Data( BMEmessageBuf, 3);
     5ce:	63 e0       	ldi	r22, 0x03	; 3
     5d0:	cf 01       	movw	r24, r30
     5d2:	0e 94 6c 3b 	call	0x76d8	; 0x76d8 <TWI_Start_Transceiver_With_Data>
		// Wait for the transaction to complete...
		while ( TWI_Transceiver_Busy() );
     5d6:	0e 94 68 3b 	call	0x76d0	; 0x76d0 <TWI_Transceiver_Busy>
     5da:	81 11       	cpse	r24, r1
     5dc:	fc cf       	rjmp	.-8      	; 0x5d6 <bme280basic_init+0x82>
		//
		//Set Tstandby to its smallest value (0)
		//  Per table 12 and 28 we want the filter coefficient at 16 (config (0xF5) [4:2] = 0b100)
		BMEmessageBuf[0] = BME_WRITE_ADDRESS; // The first byte must always have TWI slave address.
     5de:	e1 ec       	ldi	r30, 0xC1	; 193
     5e0:	f3 e0       	ldi	r31, 0x03	; 3
     5e2:	8c ee       	ldi	r24, 0xEC	; 236
     5e4:	80 83       	st	Z, r24
		BMEmessageBuf[1] = 0xF5; // The register we want to write to
     5e6:	85 ef       	ldi	r24, 0xF5	; 245
     5e8:	81 83       	std	Z+1, r24	; 0x01
		BMEmessageBuf[2] = (0b100<<2); // Set temp, pressure, and mode
     5ea:	80 e1       	ldi	r24, 0x10	; 16
     5ec:	82 83       	std	Z+2, r24	; 0x02
		TWI_Start_Transceiver_With_Data( BMEmessageBuf, 3);
     5ee:	63 e0       	ldi	r22, 0x03	; 3
     5f0:	cf 01       	movw	r24, r30
     5f2:	0e 94 6c 3b 	call	0x76d8	; 0x76d8 <TWI_Start_Transceiver_With_Data>
		// Wait for the transaction to complete...
		while ( TWI_Transceiver_Busy() );
     5f6:	0e 94 68 3b 	call	0x76d0	; 0x76d0 <TWI_Transceiver_Busy>
     5fa:	81 11       	cpse	r24, r1
     5fc:	fc cf       	rjmp	.-8      	; 0x5f6 <bme280basic_init+0xa2>
		//
		BME_read_correction_coefficients();
     5fe:	5f de       	rcall	.-834    	; 0x2be <BME_read_correction_coefficients>
		// We want Temperature oversampling set to x1 (ctrl_meas (0xF4) [7:5] = 0b001)
		// We want Pressure oversampling set to x8 (ctrl_meas (0xF4) [4:2] = 0b100)
		// Put the device into Forced mode (we want to tell the device to "go measure") (ctrl_meas (0xF4) [1:0] = 0b01)
		BMEtriggerbyte = (0b01<<5) | (0b100<<2) | (0b01<<0);
     600:	81 e3       	ldi	r24, 0x31	; 49
     602:	80 93 36 04 	sts	0x0436, r24	; 0x800436 <BMEtriggerbyte>
		// NOTE: THIS BYTE MUST BE RESENT EACH TIME TO GET A NEW MEASUREMENT
		BMEmessageBuf[0] = BME_WRITE_ADDRESS; // The first byte must always have TWI slave address.
     606:	e1 ec       	ldi	r30, 0xC1	; 193
     608:	f3 e0       	ldi	r31, 0x03	; 3
     60a:	9c ee       	ldi	r25, 0xEC	; 236
     60c:	90 83       	st	Z, r25
		BMEmessageBuf[1] = 0xF4; // The register we want to write to
     60e:	94 ef       	ldi	r25, 0xF4	; 244
     610:	91 83       	std	Z+1, r25	; 0x01
		BMEmessageBuf[2] = BMEtriggerbyte; // Set temp, pressure, and mode
     612:	82 83       	std	Z+2, r24	; 0x02
		TWI_Start_Transceiver_With_Data( BMEmessageBuf, 3);
     614:	63 e0       	ldi	r22, 0x03	; 3
     616:	cf 01       	movw	r24, r30
     618:	0e 94 6c 3b 	call	0x76d8	; 0x76d8 <TWI_Start_Transceiver_With_Data>
		// Wait for the transaction to complete...
		while ( TWI_Transceiver_Busy() );
     61c:	0e 94 68 3b 	call	0x76d0	; 0x76d0 <TWI_Transceiver_Busy>
     620:	81 11       	cpse	r24, r1
     622:	fc cf       	rjmp	.-8      	; 0x61c <bme280basic_init+0xc8>
     624:	08 95       	ret

00000626 <bme280basic_bulk_data_read>:
		//  All done - and first measurement cycle has  been kicked off!
	}
}

void bme280basic_bulk_data_read(void) {
     626:	ff 92       	push	r15
     628:	0f 93       	push	r16
     62a:	1f 93       	push	r17
     62c:	cf 93       	push	r28
     62e:	df 93       	push	r29
	// See the bme280basic_init routine for the read and write protocols for using this sensor...
	uint8_t i;
	static volatile uint8_t BMEbusy;
	//
	// Ensure the device has completed the read cycle...
	BMEbusy = 1;
     630:	81 e0       	ldi	r24, 0x01	; 1
     632:	80 93 82 02 	sts	0x0282, r24	; 0x800282 <BMEbusy.2381>
	while (BMEbusy) {
     636:	80 91 82 02 	lds	r24, 0x0282	; 0x800282 <BMEbusy.2381>
     63a:	88 23       	and	r24, r24
     63c:	59 f1       	breq	.+86     	; 0x694 <bme280basic_bulk_data_read+0x6e>
		BMEmessageBuf[0] = BME_WRITE_ADDRESS; // The first byte must always have TWI slave address.
     63e:	c1 ec       	ldi	r28, 0xC1	; 193
     640:	d3 e0       	ldi	r29, 0x03	; 3
     642:	0f 2e       	mov	r0, r31
     644:	fc ee       	ldi	r31, 0xEC	; 236
     646:	ff 2e       	mov	r15, r31
     648:	f0 2d       	mov	r31, r0
		BMEmessageBuf[1] = 0xF3; // The BME280 status register
     64a:	03 ef       	ldi	r16, 0xF3	; 243
		TWI_Start_Transceiver_With_Data( BMEmessageBuf, 2);
		// Let initialization transaction complete...
		while ( TWI_Transceiver_Busy() );
		// Bytes to read = (number_of_bytes_to_read (on next cycle) +1).
		BMEmessageBuf[0] = BME_READ_ADDRESS; // The first byte must always have TWI slave address.
     64c:	1d ee       	ldi	r17, 0xED	; 237
	static volatile uint8_t BMEbusy;
	//
	// Ensure the device has completed the read cycle...
	BMEbusy = 1;
	while (BMEbusy) {
		BMEmessageBuf[0] = BME_WRITE_ADDRESS; // The first byte must always have TWI slave address.
     64e:	f8 82       	st	Y, r15
		BMEmessageBuf[1] = 0xF3; // The BME280 status register
     650:	09 83       	std	Y+1, r16	; 0x01
		TWI_Start_Transceiver_With_Data( BMEmessageBuf, 2);
     652:	62 e0       	ldi	r22, 0x02	; 2
     654:	ce 01       	movw	r24, r28
     656:	0e 94 6c 3b 	call	0x76d8	; 0x76d8 <TWI_Start_Transceiver_With_Data>
		// Let initialization transaction complete...
		while ( TWI_Transceiver_Busy() );
     65a:	0e 94 68 3b 	call	0x76d0	; 0x76d0 <TWI_Transceiver_Busy>
     65e:	81 11       	cpse	r24, r1
     660:	fc cf       	rjmp	.-8      	; 0x65a <bme280basic_bulk_data_read+0x34>
		// Bytes to read = (number_of_bytes_to_read (on next cycle) +1).
		BMEmessageBuf[0] = BME_READ_ADDRESS; // The first byte must always have TWI slave address.
     662:	18 83       	st	Y, r17
		TWI_Start_Transceiver_With_Data( BMEmessageBuf, 2); //We want one bytes back, so use 2 in the function call.
     664:	62 e0       	ldi	r22, 0x02	; 2
     666:	ce 01       	movw	r24, r28
     668:	0e 94 6c 3b 	call	0x76d8	; 0x76d8 <TWI_Start_Transceiver_With_Data>
		// Let initialization transaction complete...
		while ( TWI_Transceiver_Busy() );
     66c:	0e 94 68 3b 	call	0x76d0	; 0x76d0 <TWI_Transceiver_Busy>
     670:	81 11       	cpse	r24, r1
     672:	fc cf       	rjmp	.-8      	; 0x66c <bme280basic_bulk_data_read+0x46>
		// Copy the data we want...
		TWI_XFER_STATUS = TWI_Get_Data_From_Transceiver(BMEmessageBuf, 2);
     674:	62 e0       	ldi	r22, 0x02	; 2
     676:	ce 01       	movw	r24, r28
     678:	0e 94 98 3b 	call	0x7730	; 0x7730 <TWI_Get_Data_From_Transceiver>
     67c:	80 93 c3 04 	sts	0x04C3, r24	; 0x8004c3 <TWI_XFER_STATUS>
		// CHeck to see if things are still busy
		BMEbusy = ((0b00001000 & BMEmessageBuf[1])>>3);
     680:	89 81       	ldd	r24, Y+1	; 0x01
     682:	83 fb       	bst	r24, 3
     684:	88 27       	eor	r24, r24
     686:	80 f9       	bld	r24, 0
     688:	80 93 82 02 	sts	0x0282, r24	; 0x800282 <BMEbusy.2381>
	uint8_t i;
	static volatile uint8_t BMEbusy;
	//
	// Ensure the device has completed the read cycle...
	BMEbusy = 1;
	while (BMEbusy) {
     68c:	80 91 82 02 	lds	r24, 0x0282	; 0x800282 <BMEbusy.2381>
     690:	81 11       	cpse	r24, r1
     692:	dd cf       	rjmp	.-70     	; 0x64e <bme280basic_bulk_data_read+0x28>
		BMEbusy = ((0b00001000 & BMEmessageBuf[1])>>3);
	}
	//
	// Device is completed the measurement cycle, now get the temperature data...
	// We want to start reading the data from register 0xF7 and read to register 0xFE - 8 bytes total
	BMEmessageBuf[0] = BME_WRITE_ADDRESS; // The first byte must always have TWI slave address.
     694:	e1 ec       	ldi	r30, 0xC1	; 193
     696:	f3 e0       	ldi	r31, 0x03	; 3
     698:	8c ee       	ldi	r24, 0xEC	; 236
     69a:	80 83       	st	Z, r24
	BMEmessageBuf[1] = 0xF7; // The register we want to start reading from
     69c:	87 ef       	ldi	r24, 0xF7	; 247
     69e:	81 83       	std	Z+1, r24	; 0x01
	TWI_Start_Transceiver_With_Data( BMEmessageBuf, 2);
     6a0:	62 e0       	ldi	r22, 0x02	; 2
     6a2:	cf 01       	movw	r24, r30
     6a4:	0e 94 6c 3b 	call	0x76d8	; 0x76d8 <TWI_Start_Transceiver_With_Data>
	// Let initialization transaction complete...
	while ( TWI_Transceiver_Busy() );
     6a8:	0e 94 68 3b 	call	0x76d0	; 0x76d0 <TWI_Transceiver_Busy>
     6ac:	81 11       	cpse	r24, r1
     6ae:	fc cf       	rjmp	.-8      	; 0x6a8 <bme280basic_bulk_data_read+0x82>
	// Now for the read part...
	// Bytes to read = (number_of_bytes_to_read (on next cycle) +1). Zero origin.   If we want to read eight bytes, we pass "9".
	BMEmessageBuf[0] = BME_READ_ADDRESS; // The first byte must always have TWI slave address.
     6b0:	8d ee       	ldi	r24, 0xED	; 237
     6b2:	80 93 c1 03 	sts	0x03C1, r24	; 0x8003c1 <BMEmessageBuf>
	TWI_Start_Transceiver_With_Data( BMEmessageBuf, 9); //We want eight bytes back, so use 9 in the function call.
     6b6:	69 e0       	ldi	r22, 0x09	; 9
     6b8:	81 ec       	ldi	r24, 0xC1	; 193
     6ba:	93 e0       	ldi	r25, 0x03	; 3
     6bc:	0e 94 6c 3b 	call	0x76d8	; 0x76d8 <TWI_Start_Transceiver_With_Data>
	// Let initialization transaction complete...
	while ( TWI_Transceiver_Busy() );
     6c0:	0e 94 68 3b 	call	0x76d0	; 0x76d0 <TWI_Transceiver_Busy>
     6c4:	81 11       	cpse	r24, r1
     6c6:	fc cf       	rjmp	.-8      	; 0x6c0 <bme280basic_bulk_data_read+0x9a>
	// Now get the data we just read...note this call just copies the data from the TWI routine buffer to our local buffer (BMEmessageBuf)...
	TWI_XFER_STATUS = TWI_Get_Data_From_Transceiver(BMEmessageBuf, 9);
     6c8:	69 e0       	ldi	r22, 0x09	; 9
     6ca:	81 ec       	ldi	r24, 0xC1	; 193
     6cc:	93 e0       	ldi	r25, 0x03	; 3
     6ce:	0e 94 98 3b 	call	0x7730	; 0x7730 <TWI_Get_Data_From_Transceiver>
     6d2:	80 93 c3 04 	sts	0x04C3, r24	; 0x8004c3 <TWI_XFER_STATUS>
     6d6:	e2 ec       	ldi	r30, 0xC2	; 194
     6d8:	f3 e0       	ldi	r31, 0x03	; 3
     6da:	ad ee       	ldi	r26, 0xED	; 237
     6dc:	b3 e0       	ldi	r27, 0x03	; 3
     6de:	2a ec       	ldi	r18, 0xCA	; 202
     6e0:	33 e0       	ldi	r19, 0x03	; 3
	// Note that the data we want starts in BMEmessageBuf[1], not BMEmessageBuf[0]
	// Transfer the data to a variable we can manipulate to get our data out...
	for (i=0;i<8;i++) 	{
		RawBMEdata[i] = BMEmessageBuf[i+1];
     6e2:	81 91       	ld	r24, Z+
     6e4:	8d 93       	st	X+, r24
	while ( TWI_Transceiver_Busy() );
	// Now get the data we just read...note this call just copies the data from the TWI routine buffer to our local buffer (BMEmessageBuf)...
	TWI_XFER_STATUS = TWI_Get_Data_From_Transceiver(BMEmessageBuf, 9);
	// Note that the data we want starts in BMEmessageBuf[1], not BMEmessageBuf[0]
	// Transfer the data to a variable we can manipulate to get our data out...
	for (i=0;i<8;i++) 	{
     6e6:	e2 17       	cp	r30, r18
     6e8:	f3 07       	cpc	r31, r19
     6ea:	d9 f7       	brne	.-10     	; 0x6e2 <bme280basic_bulk_data_read+0xbc>
		RawBMEdata[i] = BMEmessageBuf[i+1];
	}
	rawPress = ((uint32_t)RawBMEdata[0]<<12) | ((uint32_t)RawBMEdata[1]<<4) | ((uint32_t)RawBMEdata[2]>>4);
     6ec:	ed ee       	ldi	r30, 0xED	; 237
     6ee:	f3 e0       	ldi	r31, 0x03	; 3
     6f0:	81 81       	ldd	r24, Z+1	; 0x01
     6f2:	90 e0       	ldi	r25, 0x00	; 0
     6f4:	a0 e0       	ldi	r26, 0x00	; 0
     6f6:	b0 e0       	ldi	r27, 0x00	; 0
     6f8:	88 0f       	add	r24, r24
     6fa:	99 1f       	adc	r25, r25
     6fc:	aa 1f       	adc	r26, r26
     6fe:	bb 1f       	adc	r27, r27
     700:	88 0f       	add	r24, r24
     702:	99 1f       	adc	r25, r25
     704:	aa 1f       	adc	r26, r26
     706:	bb 1f       	adc	r27, r27
     708:	88 0f       	add	r24, r24
     70a:	99 1f       	adc	r25, r25
     70c:	aa 1f       	adc	r26, r26
     70e:	bb 1f       	adc	r27, r27
     710:	88 0f       	add	r24, r24
     712:	99 1f       	adc	r25, r25
     714:	aa 1f       	adc	r26, r26
     716:	bb 1f       	adc	r27, r27
     718:	40 81       	ld	r20, Z
     71a:	50 e0       	ldi	r21, 0x00	; 0
     71c:	60 e0       	ldi	r22, 0x00	; 0
     71e:	70 e0       	ldi	r23, 0x00	; 0
     720:	03 2e       	mov	r0, r19
     722:	3c e0       	ldi	r19, 0x0C	; 12
     724:	44 0f       	add	r20, r20
     726:	55 1f       	adc	r21, r21
     728:	66 1f       	adc	r22, r22
     72a:	77 1f       	adc	r23, r23
     72c:	3a 95       	dec	r19
     72e:	d1 f7       	brne	.-12     	; 0x724 <bme280basic_bulk_data_read+0xfe>
     730:	30 2d       	mov	r19, r0
     732:	84 2b       	or	r24, r20
     734:	95 2b       	or	r25, r21
     736:	a6 2b       	or	r26, r22
     738:	b7 2b       	or	r27, r23
     73a:	22 81       	ldd	r18, Z+2	; 0x02
     73c:	22 95       	swap	r18
     73e:	2f 70       	andi	r18, 0x0F	; 15
     740:	82 2b       	or	r24, r18
     742:	80 93 56 04 	sts	0x0456, r24	; 0x800456 <rawPress>
     746:	90 93 57 04 	sts	0x0457, r25	; 0x800457 <rawPress+0x1>
     74a:	a0 93 58 04 	sts	0x0458, r26	; 0x800458 <rawPress+0x2>
     74e:	b0 93 59 04 	sts	0x0459, r27	; 0x800459 <rawPress+0x3>
	rawTemp = ((uint32_t)RawBMEdata[3]<<12) | ((uint32_t)RawBMEdata[4]<<4) | ((uint32_t)RawBMEdata[5]>>4);
     752:	84 81       	ldd	r24, Z+4	; 0x04
     754:	90 e0       	ldi	r25, 0x00	; 0
     756:	a0 e0       	ldi	r26, 0x00	; 0
     758:	b0 e0       	ldi	r27, 0x00	; 0
     75a:	88 0f       	add	r24, r24
     75c:	99 1f       	adc	r25, r25
     75e:	aa 1f       	adc	r26, r26
     760:	bb 1f       	adc	r27, r27
     762:	88 0f       	add	r24, r24
     764:	99 1f       	adc	r25, r25
     766:	aa 1f       	adc	r26, r26
     768:	bb 1f       	adc	r27, r27
     76a:	88 0f       	add	r24, r24
     76c:	99 1f       	adc	r25, r25
     76e:	aa 1f       	adc	r26, r26
     770:	bb 1f       	adc	r27, r27
     772:	88 0f       	add	r24, r24
     774:	99 1f       	adc	r25, r25
     776:	aa 1f       	adc	r26, r26
     778:	bb 1f       	adc	r27, r27
     77a:	43 81       	ldd	r20, Z+3	; 0x03
     77c:	50 e0       	ldi	r21, 0x00	; 0
     77e:	60 e0       	ldi	r22, 0x00	; 0
     780:	70 e0       	ldi	r23, 0x00	; 0
     782:	03 2e       	mov	r0, r19
     784:	3c e0       	ldi	r19, 0x0C	; 12
     786:	44 0f       	add	r20, r20
     788:	55 1f       	adc	r21, r21
     78a:	66 1f       	adc	r22, r22
     78c:	77 1f       	adc	r23, r23
     78e:	3a 95       	dec	r19
     790:	d1 f7       	brne	.-12     	; 0x786 <bme280basic_bulk_data_read+0x160>
     792:	30 2d       	mov	r19, r0
     794:	84 2b       	or	r24, r20
     796:	95 2b       	or	r25, r21
     798:	a6 2b       	or	r26, r22
     79a:	b7 2b       	or	r27, r23
     79c:	25 81       	ldd	r18, Z+5	; 0x05
     79e:	22 95       	swap	r18
     7a0:	2f 70       	andi	r18, 0x0F	; 15
     7a2:	82 2b       	or	r24, r18
     7a4:	80 93 1e 04 	sts	0x041E, r24	; 0x80041e <rawTemp>
     7a8:	90 93 1f 04 	sts	0x041F, r25	; 0x80041f <rawTemp+0x1>
     7ac:	a0 93 20 04 	sts	0x0420, r26	; 0x800420 <rawTemp+0x2>
     7b0:	b0 93 21 04 	sts	0x0421, r27	; 0x800421 <rawTemp+0x3>
	rawHum = ((uint32_t)RawBMEdata[6]<<8) | (uint32_t)RawBMEdata[7];
     7b4:	86 81       	ldd	r24, Z+6	; 0x06
     7b6:	90 e0       	ldi	r25, 0x00	; 0
     7b8:	a0 e0       	ldi	r26, 0x00	; 0
     7ba:	b0 e0       	ldi	r27, 0x00	; 0
     7bc:	ba 2f       	mov	r27, r26
     7be:	a9 2f       	mov	r26, r25
     7c0:	98 2f       	mov	r25, r24
     7c2:	88 27       	eor	r24, r24
     7c4:	27 81       	ldd	r18, Z+7	; 0x07
     7c6:	82 2b       	or	r24, r18
     7c8:	80 93 5a 04 	sts	0x045A, r24	; 0x80045a <rawHum>
     7cc:	90 93 5b 04 	sts	0x045B, r25	; 0x80045b <rawHum+0x1>
     7d0:	a0 93 5c 04 	sts	0x045C, r26	; 0x80045c <rawHum+0x2>
     7d4:	b0 93 5d 04 	sts	0x045D, r27	; 0x80045d <rawHum+0x3>
	// We want Temperature oversampling set to x1 (ctrl_meas (0xF4) [7:5] = 0b001)
	// We want Pressure oversampling set to x8 (ctrl_meas (0xF4) [4:2] = 0b100)
	// Put the device into Forced mode (we want to tell the device to "go measure") (ctrl_meas (0xF4) [1:0] = 0b01)
	// BMEtriggerbyte ^= 0x03; // toggle the forced mode (not sure this is required)
	// NOTE: THIS BYTE MUST BE RESENT EACH TIME TO GET A NEW MEASUREMENT
	BMEmessageBuf[0] = BME_WRITE_ADDRESS; // The first byte must always have TWI slave address.
     7d8:	e1 ec       	ldi	r30, 0xC1	; 193
     7da:	f3 e0       	ldi	r31, 0x03	; 3
     7dc:	8c ee       	ldi	r24, 0xEC	; 236
     7de:	80 83       	st	Z, r24
	BMEmessageBuf[1] = 0xF4; // The register we want to write to
     7e0:	84 ef       	ldi	r24, 0xF4	; 244
     7e2:	81 83       	std	Z+1, r24	; 0x01
	BMEmessageBuf[2] = (0b01<<5) | (0b100<<2) | (0b01<<0); // Set temp, pressure, and mode
     7e4:	81 e3       	ldi	r24, 0x31	; 49
     7e6:	82 83       	std	Z+2, r24	; 0x02
	TWI_Start_Transceiver_With_Data( BMEmessageBuf, 3);
     7e8:	63 e0       	ldi	r22, 0x03	; 3
     7ea:	cf 01       	movw	r24, r30
     7ec:	0e 94 6c 3b 	call	0x76d8	; 0x76d8 <TWI_Start_Transceiver_With_Data>
	// Wait for the transaction to complete...
	while ( TWI_Transceiver_Busy() );
     7f0:	0e 94 68 3b 	call	0x76d0	; 0x76d0 <TWI_Transceiver_Busy>
     7f4:	81 11       	cpse	r24, r1
     7f6:	fc cf       	rjmp	.-8      	; 0x7f0 <bme280basic_bulk_data_read+0x1ca>
	//  All done - and the next measurement cycle has  been kicked off!
}
     7f8:	df 91       	pop	r29
     7fa:	cf 91       	pop	r28
     7fc:	1f 91       	pop	r17
     7fe:	0f 91       	pop	r16
     800:	ff 90       	pop	r15
     802:	08 95       	ret

00000804 <BME280_compensate_T_int32>:

// Returns temperature in DegC, resolution is 0.01 DegC. Output value of ?5123? equals 51.23 Deg C.
// t_fine carries fine temperature as global value
long BME280_compensate_T_int32(long adc_T) {
     804:	8f 92       	push	r8
     806:	9f 92       	push	r9
     808:	af 92       	push	r10
     80a:	bf 92       	push	r11
     80c:	cf 92       	push	r12
     80e:	df 92       	push	r13
     810:	ef 92       	push	r14
     812:	ff 92       	push	r15
	long var1, var2, T;
	var1  = ((((adc_T>>3) - (dig_T1<<1))) * (dig_T2)) >> 11;
     814:	20 91 bf 03 	lds	r18, 0x03BF	; 0x8003bf <dig_T1>
     818:	30 91 c0 03 	lds	r19, 0x03C0	; 0x8003c0 <dig_T1+0x1>
	var2  = (((((adc_T>>4) - (dig_T1)) * ((adc_T>>4) - (dig_T1))) >> 12) * (dig_T3)) >> 14;
     81c:	6b 01       	movw	r12, r22
     81e:	7c 01       	movw	r14, r24
     820:	68 94       	set
     822:	13 f8       	bld	r1, 3
     824:	f5 94       	asr	r15
     826:	e7 94       	ror	r14
     828:	d7 94       	ror	r13
     82a:	c7 94       	ror	r12
     82c:	16 94       	lsr	r1
     82e:	d1 f7       	brne	.-12     	; 0x824 <BME280_compensate_T_int32+0x20>
     830:	c2 1a       	sub	r12, r18
     832:	d3 0a       	sbc	r13, r19
     834:	e1 08       	sbc	r14, r1
     836:	f1 08       	sbc	r15, r1

// Returns temperature in DegC, resolution is 0.01 DegC. Output value of ?5123? equals 51.23 Deg C.
// t_fine carries fine temperature as global value
long BME280_compensate_T_int32(long adc_T) {
	long var1, var2, T;
	var1  = ((((adc_T>>3) - (dig_T1<<1))) * (dig_T2)) >> 11;
     838:	dc 01       	movw	r26, r24
     83a:	cb 01       	movw	r24, r22
     83c:	68 94       	set
     83e:	12 f8       	bld	r1, 2
     840:	b5 95       	asr	r27
     842:	a7 95       	ror	r26
     844:	97 95       	ror	r25
     846:	87 95       	ror	r24
     848:	16 94       	lsr	r1
     84a:	d1 f7       	brne	.-12     	; 0x840 <BME280_compensate_T_int32+0x3c>
     84c:	22 0f       	add	r18, r18
     84e:	33 1f       	adc	r19, r19
     850:	4c 01       	movw	r8, r24
     852:	5d 01       	movw	r10, r26
     854:	82 1a       	sub	r8, r18
     856:	93 0a       	sbc	r9, r19
     858:	a1 08       	sbc	r10, r1
     85a:	b1 08       	sbc	r11, r1
     85c:	a5 01       	movw	r20, r10
     85e:	94 01       	movw	r18, r8
     860:	a0 91 eb 03 	lds	r26, 0x03EB	; 0x8003eb <dig_T2>
     864:	b0 91 ec 03 	lds	r27, 0x03EC	; 0x8003ec <dig_T2+0x1>
     868:	0e 94 e4 3d 	call	0x7bc8	; 0x7bc8 <__mulshisi3>
     86c:	4b 01       	movw	r8, r22
     86e:	5c 01       	movw	r10, r24
     870:	07 2e       	mov	r0, r23
     872:	7b e0       	ldi	r23, 0x0B	; 11
     874:	b5 94       	asr	r11
     876:	a7 94       	ror	r10
     878:	97 94       	ror	r9
     87a:	87 94       	ror	r8
     87c:	7a 95       	dec	r23
     87e:	d1 f7       	brne	.-12     	; 0x874 <BME280_compensate_T_int32+0x70>
     880:	70 2d       	mov	r23, r0
	var2  = (((((adc_T>>4) - (dig_T1)) * ((adc_T>>4) - (dig_T1))) >> 12) * (dig_T3)) >> 14;
     882:	a7 01       	movw	r20, r14
     884:	96 01       	movw	r18, r12
     886:	c7 01       	movw	r24, r14
     888:	b6 01       	movw	r22, r12
     88a:	0e 94 92 3d 	call	0x7b24	; 0x7b24 <__mulsi3>
     88e:	9b 01       	movw	r18, r22
     890:	ac 01       	movw	r20, r24
     892:	01 2e       	mov	r0, r17
     894:	1c e0       	ldi	r17, 0x0C	; 12
     896:	55 95       	asr	r21
     898:	47 95       	ror	r20
     89a:	37 95       	ror	r19
     89c:	27 95       	ror	r18
     89e:	1a 95       	dec	r17
     8a0:	d1 f7       	brne	.-12     	; 0x896 <BME280_compensate_T_int32+0x92>
     8a2:	10 2d       	mov	r17, r0
     8a4:	a0 91 a7 04 	lds	r26, 0x04A7	; 0x8004a7 <dig_T3>
     8a8:	b0 91 a8 04 	lds	r27, 0x04A8	; 0x8004a8 <dig_T3+0x1>
     8ac:	0e 94 e4 3d 	call	0x7bc8	; 0x7bc8 <__mulshisi3>
     8b0:	dc 01       	movw	r26, r24
     8b2:	cb 01       	movw	r24, r22
     8b4:	07 2e       	mov	r0, r23
     8b6:	7e e0       	ldi	r23, 0x0E	; 14
     8b8:	b5 95       	asr	r27
     8ba:	a7 95       	ror	r26
     8bc:	97 95       	ror	r25
     8be:	87 95       	ror	r24
     8c0:	7a 95       	dec	r23
     8c2:	d1 f7       	brne	.-12     	; 0x8b8 <BME280_compensate_T_int32+0xb4>
     8c4:	70 2d       	mov	r23, r0
	t_fine = var1 + var2;
     8c6:	88 0d       	add	r24, r8
     8c8:	99 1d       	adc	r25, r9
     8ca:	aa 1d       	adc	r26, r10
     8cc:	bb 1d       	adc	r27, r11
     8ce:	80 93 ad 04 	sts	0x04AD, r24	; 0x8004ad <t_fine>
     8d2:	90 93 ae 04 	sts	0x04AE, r25	; 0x8004ae <t_fine+0x1>
     8d6:	a0 93 af 04 	sts	0x04AF, r26	; 0x8004af <t_fine+0x2>
     8da:	b0 93 b0 04 	sts	0x04B0, r27	; 0x8004b0 <t_fine+0x3>
	T  = (t_fine * 5 + 128) >> 8;
     8de:	6c 01       	movw	r12, r24
     8e0:	7d 01       	movw	r14, r26
     8e2:	cc 0c       	add	r12, r12
     8e4:	dd 1c       	adc	r13, r13
     8e6:	ee 1c       	adc	r14, r14
     8e8:	ff 1c       	adc	r15, r15
     8ea:	cc 0c       	add	r12, r12
     8ec:	dd 1c       	adc	r13, r13
     8ee:	ee 1c       	adc	r14, r14
     8f0:	ff 1c       	adc	r15, r15
     8f2:	8c 0d       	add	r24, r12
     8f4:	9d 1d       	adc	r25, r13
     8f6:	ae 1d       	adc	r26, r14
     8f8:	bf 1d       	adc	r27, r15
     8fa:	80 58       	subi	r24, 0x80	; 128
     8fc:	9f 4f       	sbci	r25, 0xFF	; 255
     8fe:	af 4f       	sbci	r26, 0xFF	; 255
     900:	bf 4f       	sbci	r27, 0xFF	; 255
     902:	69 2f       	mov	r22, r25
     904:	7a 2f       	mov	r23, r26
     906:	8b 2f       	mov	r24, r27
     908:	99 27       	eor	r25, r25
     90a:	87 fd       	sbrc	r24, 7
     90c:	9a 95       	dec	r25
	return T;
}
     90e:	ff 90       	pop	r15
     910:	ef 90       	pop	r14
     912:	df 90       	pop	r13
     914:	cf 90       	pop	r12
     916:	bf 90       	pop	r11
     918:	af 90       	pop	r10
     91a:	9f 90       	pop	r9
     91c:	8f 90       	pop	r8
     91e:	08 95       	ret

00000920 <BME280_compensate_P_int64>:


//Return pressure in Pa as unsigned 32 bit int in Q24.8 format(24 int bits, 8 fractional)
//Output value of "24674867" represents 24674867/256 = 96386.2 Pa = 963.862 hPa
long BME280_compensate_P_int64(long adc_P)
{
     920:	2f 92       	push	r2
     922:	3f 92       	push	r3
     924:	4f 92       	push	r4
     926:	5f 92       	push	r5
     928:	6f 92       	push	r6
     92a:	7f 92       	push	r7
     92c:	8f 92       	push	r8
     92e:	9f 92       	push	r9
     930:	af 92       	push	r10
     932:	bf 92       	push	r11
     934:	cf 92       	push	r12
     936:	df 92       	push	r13
     938:	ef 92       	push	r14
     93a:	ff 92       	push	r15
     93c:	0f 93       	push	r16
     93e:	1f 93       	push	r17
     940:	cf 93       	push	r28
     942:	df 93       	push	r29
     944:	cd b7       	in	r28, 0x3d	; 61
     946:	de b7       	in	r29, 0x3e	; 62
     948:	6e 97       	sbiw	r28, 0x1e	; 30
     94a:	0f b6       	in	r0, 0x3f	; 63
     94c:	f8 94       	cli
     94e:	de bf       	out	0x3e, r29	; 62
     950:	0f be       	out	0x3f, r0	; 63
     952:	cd bf       	out	0x3d, r28	; 61
     954:	6e 8b       	std	Y+22, r22	; 0x16
     956:	7f 8b       	std	Y+23, r23	; 0x17
     958:	88 8f       	std	Y+24, r24	; 0x18
     95a:	99 8f       	std	Y+25, r25	; 0x19
	long long var1, var2, p;
	var1 = ((long)t_fine)-128000;
     95c:	80 91 ad 04 	lds	r24, 0x04AD	; 0x8004ad <t_fine>
     960:	90 91 ae 04 	lds	r25, 0x04AE	; 0x8004ae <t_fine+0x1>
     964:	a0 91 af 04 	lds	r26, 0x04AF	; 0x8004af <t_fine+0x2>
     968:	b0 91 b0 04 	lds	r27, 0x04B0	; 0x8004b0 <t_fine+0x3>
     96c:	8c 01       	movw	r16, r24
     96e:	9d 01       	movw	r18, r26
     970:	14 5f       	subi	r17, 0xF4	; 244
     972:	21 40       	sbci	r18, 0x01	; 1
     974:	31 09       	sbc	r19, r1
     976:	09 83       	std	Y+1, r16	; 0x01
     978:	1a 83       	std	Y+2, r17	; 0x02
     97a:	2b 83       	std	Y+3, r18	; 0x03
     97c:	3c 83       	std	Y+4, r19	; 0x04
     97e:	33 0f       	add	r19, r19
     980:	00 0b       	sbc	r16, r16
     982:	10 2f       	mov	r17, r16
     984:	98 01       	movw	r18, r16
     986:	0d 83       	std	Y+5, r16	; 0x05
     988:	1e 83       	std	Y+6, r17	; 0x06
     98a:	2f 83       	std	Y+7, r18	; 0x07
     98c:	38 87       	std	Y+8, r19	; 0x08
	var2 = var1*var1*(long)dig_P6;
     98e:	a9 80       	ldd	r10, Y+1	; 0x01
     990:	ba 80       	ldd	r11, Y+2	; 0x02
     992:	cb 80       	ldd	r12, Y+3	; 0x03
     994:	dc 80       	ldd	r13, Y+4	; 0x04
     996:	ed 80       	ldd	r14, Y+5	; 0x05
     998:	fe 2c       	mov	r15, r14
     99a:	0e 2d       	mov	r16, r14
     99c:	1e 2d       	mov	r17, r14
     99e:	2a 2d       	mov	r18, r10
     9a0:	3b 2d       	mov	r19, r11
     9a2:	4c 2d       	mov	r20, r12
     9a4:	5d 2d       	mov	r21, r13
     9a6:	60 2f       	mov	r22, r16
     9a8:	70 2f       	mov	r23, r16
     9aa:	80 2f       	mov	r24, r16
     9ac:	9e 2d       	mov	r25, r14
     9ae:	0e 94 ea 3d 	call	0x7bd4	; 0x7bd4 <__muldi3>
     9b2:	2d 87       	std	Y+13, r18	; 0x0d
     9b4:	3e 87       	std	Y+14, r19	; 0x0e
     9b6:	4f 87       	std	Y+15, r20	; 0x0f
     9b8:	58 8b       	std	Y+16, r21	; 0x10
     9ba:	69 8b       	std	Y+17, r22	; 0x11
     9bc:	7a 8b       	std	Y+18, r23	; 0x12
     9be:	8b 8b       	std	Y+19, r24	; 0x13
     9c0:	9c 8b       	std	Y+20, r25	; 0x14
     9c2:	10 91 a9 04 	lds	r17, 0x04A9	; 0x8004a9 <dig_P6>
     9c6:	1a 8f       	std	Y+26, r17	; 0x1a
     9c8:	20 91 aa 04 	lds	r18, 0x04AA	; 0x8004aa <dig_P6+0x1>
     9cc:	2e 8f       	std	Y+30, r18	; 0x1e
	var2 = var2 + ((var1*(long)dig_P5)<<17);
     9ce:	30 91 54 04 	lds	r19, 0x0454	; 0x800454 <dig_P5>
     9d2:	3b 8f       	std	Y+27, r19	; 0x1b
     9d4:	40 91 55 04 	lds	r20, 0x0455	; 0x800455 <dig_P5+0x1>
     9d8:	4d 8f       	std	Y+29, r20	; 0x1d
	var2 = var2 + (((long long)dig_P4)<<35);
     9da:	50 91 34 04 	lds	r21, 0x0434	; 0x800434 <dig_P4>
     9de:	5c 8f       	std	Y+28, r21	; 0x1c
     9e0:	80 91 35 04 	lds	r24, 0x0435	; 0x800435 <dig_P4+0x1>
     9e4:	8d 8b       	std	Y+21, r24	; 0x15
	var1 = ((var1*var1*(long)dig_P3)>>8)+((var1*(long)dig_P2)<<12);
     9e6:	30 91 33 04 	lds	r19, 0x0433	; 0x800433 <dig_P2+0x1>
     9ea:	20 91 32 04 	lds	r18, 0x0432	; 0x800432 <dig_P2>
     9ee:	93 2f       	mov	r25, r19
     9f0:	99 0f       	add	r25, r25
     9f2:	99 0b       	sbc	r25, r25
     9f4:	fe 2c       	mov	r15, r14
     9f6:	0e 2d       	mov	r16, r14
     9f8:	1e 2d       	mov	r17, r14
     9fa:	49 2f       	mov	r20, r25
     9fc:	59 2f       	mov	r21, r25
     9fe:	69 2f       	mov	r22, r25
     a00:	79 2f       	mov	r23, r25
     a02:	89 2f       	mov	r24, r25
     a04:	0e 94 ea 3d 	call	0x7bd4	; 0x7bd4 <__muldi3>
     a08:	0c e0       	ldi	r16, 0x0C	; 12
     a0a:	0e 94 0b 3f 	call	0x7e16	; 0x7e16 <__ashldi3>
     a0e:	42 2e       	mov	r4, r18
     a10:	53 2e       	mov	r5, r19
     a12:	64 2e       	mov	r6, r20
     a14:	75 2e       	mov	r7, r21
     a16:	86 2e       	mov	r8, r22
     a18:	97 2e       	mov	r9, r23
     a1a:	28 2e       	mov	r2, r24
     a1c:	39 2e       	mov	r3, r25
     a1e:	b0 90 8f 04 	lds	r11, 0x048F	; 0x80048f <dig_P3+0x1>
     a22:	a0 90 8e 04 	lds	r10, 0x048E	; 0x80048e <dig_P3>
     a26:	1b 2d       	mov	r17, r11
     a28:	11 0f       	add	r17, r17
     a2a:	11 0b       	sbc	r17, r17
     a2c:	c1 2e       	mov	r12, r17
     a2e:	d1 2e       	mov	r13, r17
     a30:	e1 2e       	mov	r14, r17
     a32:	f1 2e       	mov	r15, r17
     a34:	01 2f       	mov	r16, r17
     a36:	2d 85       	ldd	r18, Y+13	; 0x0d
     a38:	3e 85       	ldd	r19, Y+14	; 0x0e
     a3a:	4f 85       	ldd	r20, Y+15	; 0x0f
     a3c:	58 89       	ldd	r21, Y+16	; 0x10
     a3e:	69 89       	ldd	r22, Y+17	; 0x11
     a40:	7a 89       	ldd	r23, Y+18	; 0x12
     a42:	8b 89       	ldd	r24, Y+19	; 0x13
     a44:	9c 89       	ldd	r25, Y+20	; 0x14
     a46:	0e 94 ea 3d 	call	0x7bd4	; 0x7bd4 <__muldi3>
     a4a:	08 e0       	ldi	r16, 0x08	; 8
     a4c:	0e 94 24 3f 	call	0x7e48	; 0x7e48 <__ashrdi3>
     a50:	a4 2c       	mov	r10, r4
     a52:	b5 2c       	mov	r11, r5
     a54:	c6 2c       	mov	r12, r6
     a56:	d7 2c       	mov	r13, r7
     a58:	e8 2c       	mov	r14, r8
     a5a:	f9 2c       	mov	r15, r9
     a5c:	02 2d       	mov	r16, r2
     a5e:	13 2d       	mov	r17, r3
     a60:	0e 94 42 3f 	call	0x7e84	; 0x7e84 <__adddi3>
	var1 = (((((long long)1)<<47)+var1))*((long long)dig_P1)>>33;
     a64:	70 58       	subi	r23, 0x80	; 128
     a66:	8f 4f       	sbci	r24, 0xFF	; 255
     a68:	9f 4f       	sbci	r25, 0xFF	; 255
     a6a:	20 90 8c 04 	lds	r2, 0x048C	; 0x80048c <dig_P1>
     a6e:	30 90 8d 04 	lds	r3, 0x048D	; 0x80048d <dig_P1+0x1>
     a72:	a2 2c       	mov	r10, r2
     a74:	b3 2c       	mov	r11, r3
     a76:	c1 2c       	mov	r12, r1
     a78:	d1 2c       	mov	r13, r1
     a7a:	e1 2c       	mov	r14, r1
     a7c:	f1 2c       	mov	r15, r1
     a7e:	00 e0       	ldi	r16, 0x00	; 0
     a80:	10 e0       	ldi	r17, 0x00	; 0
     a82:	0e 94 ea 3d 	call	0x7bd4	; 0x7bd4 <__muldi3>
     a86:	01 e2       	ldi	r16, 0x21	; 33
     a88:	0e 94 24 3f 	call	0x7e48	; 0x7e48 <__ashrdi3>
     a8c:	29 87       	std	Y+9, r18	; 0x09
     a8e:	3a 87       	std	Y+10, r19	; 0x0a
     a90:	4b 87       	std	Y+11, r20	; 0x0b
     a92:	45 2e       	mov	r4, r21
     a94:	56 2e       	mov	r5, r22
     a96:	7c 87       	std	Y+12, r23	; 0x0c
     a98:	38 2e       	mov	r3, r24
     a9a:	29 2e       	mov	r2, r25
	if (var1 == 0)
     a9c:	65 2d       	mov	r22, r5
     a9e:	83 2d       	mov	r24, r3
     aa0:	92 2d       	mov	r25, r2
     aa2:	a0 e0       	ldi	r26, 0x00	; 0
     aa4:	0e 94 54 3f 	call	0x7ea8	; 0x7ea8 <__cmpdi2_s8>
     aa8:	09 f4       	brne	.+2      	; 0xaac <BME280_compensate_P_int64+0x18c>
     aaa:	89 c1       	rjmp	.+786    	; 0xdbe <BME280_compensate_P_int64+0x49e>
//Output value of "24674867" represents 24674867/256 = 96386.2 Pa = 963.862 hPa
long BME280_compensate_P_int64(long adc_P)
{
	long long var1, var2, p;
	var1 = ((long)t_fine)-128000;
	var2 = var1*var1*(long)dig_P6;
     aac:	aa 8c       	ldd	r10, Y+26	; 0x1a
     aae:	1e 8d       	ldd	r17, Y+30	; 0x1e
     ab0:	11 0f       	add	r17, r17
     ab2:	11 0b       	sbc	r17, r17
     ab4:	be 8c       	ldd	r11, Y+30	; 0x1e
     ab6:	c1 2e       	mov	r12, r17
     ab8:	d1 2e       	mov	r13, r17
     aba:	e1 2e       	mov	r14, r17
     abc:	f1 2e       	mov	r15, r17
     abe:	01 2f       	mov	r16, r17
     ac0:	2d 85       	ldd	r18, Y+13	; 0x0d
     ac2:	3e 85       	ldd	r19, Y+14	; 0x0e
     ac4:	4f 85       	ldd	r20, Y+15	; 0x0f
     ac6:	58 89       	ldd	r21, Y+16	; 0x10
     ac8:	69 89       	ldd	r22, Y+17	; 0x11
     aca:	7a 89       	ldd	r23, Y+18	; 0x12
     acc:	8b 89       	ldd	r24, Y+19	; 0x13
     ace:	9c 89       	ldd	r25, Y+20	; 0x14
     ad0:	0e 94 ea 3d 	call	0x7bd4	; 0x7bd4 <__muldi3>
     ad4:	2d 87       	std	Y+13, r18	; 0x0d
     ad6:	3e 87       	std	Y+14, r19	; 0x0e
     ad8:	64 2e       	mov	r6, r20
     ada:	75 2e       	mov	r7, r21
     adc:	86 2e       	mov	r8, r22
     ade:	97 2e       	mov	r9, r23
     ae0:	88 8b       	std	Y+16, r24	; 0x10
     ae2:	9f 87       	std	Y+15, r25	; 0x0f
	var2 = var2 + ((var1*(long)dig_P5)<<17);
     ae4:	2b 8d       	ldd	r18, Y+27	; 0x1b
     ae6:	9d 8d       	ldd	r25, Y+29	; 0x1d
     ae8:	99 0f       	add	r25, r25
     aea:	99 0b       	sbc	r25, r25
     aec:	a9 80       	ldd	r10, Y+1	; 0x01
     aee:	ba 80       	ldd	r11, Y+2	; 0x02
     af0:	cb 80       	ldd	r12, Y+3	; 0x03
     af2:	dc 80       	ldd	r13, Y+4	; 0x04
     af4:	ed 80       	ldd	r14, Y+5	; 0x05
     af6:	fe 2c       	mov	r15, r14
     af8:	0e 2d       	mov	r16, r14
     afa:	1e 2d       	mov	r17, r14
     afc:	3d 8d       	ldd	r19, Y+29	; 0x1d
     afe:	49 2f       	mov	r20, r25
     b00:	59 2f       	mov	r21, r25
     b02:	69 2f       	mov	r22, r25
     b04:	79 2f       	mov	r23, r25
     b06:	89 2f       	mov	r24, r25
     b08:	0e 94 ea 3d 	call	0x7bd4	; 0x7bd4 <__muldi3>
     b0c:	01 e1       	ldi	r16, 0x11	; 17
     b0e:	0e 94 0b 3f 	call	0x7e16	; 0x7e16 <__ashldi3>
     b12:	ad 84       	ldd	r10, Y+13	; 0x0d
     b14:	be 84       	ldd	r11, Y+14	; 0x0e
     b16:	c6 2c       	mov	r12, r6
     b18:	d7 2c       	mov	r13, r7
     b1a:	e8 2c       	mov	r14, r8
     b1c:	f9 2c       	mov	r15, r9
     b1e:	08 89       	ldd	r16, Y+16	; 0x10
     b20:	1f 85       	ldd	r17, Y+15	; 0x0f
     b22:	0e 94 42 3f 	call	0x7e84	; 0x7e84 <__adddi3>
     b26:	a2 2e       	mov	r10, r18
     b28:	b3 2e       	mov	r11, r19
     b2a:	c4 2e       	mov	r12, r20
     b2c:	d5 2e       	mov	r13, r21
     b2e:	e6 2e       	mov	r14, r22
     b30:	f7 2e       	mov	r15, r23
     b32:	e8 2f       	mov	r30, r24
     b34:	19 2f       	mov	r17, r25
	var1 = (((((long long)1)<<47)+var1))*((long long)dig_P1)>>33;
	if (var1 == 0)
	{
		return 0;
	}
	p = 1048576 - adc_P;
     b36:	80 e0       	ldi	r24, 0x00	; 0
     b38:	90 e0       	ldi	r25, 0x00	; 0
     b3a:	a0 e1       	ldi	r26, 0x10	; 16
     b3c:	b0 e0       	ldi	r27, 0x00	; 0
     b3e:	2e 89       	ldd	r18, Y+22	; 0x16
     b40:	3f 89       	ldd	r19, Y+23	; 0x17
     b42:	48 8d       	ldd	r20, Y+24	; 0x18
     b44:	59 8d       	ldd	r21, Y+25	; 0x19
     b46:	82 1b       	sub	r24, r18
     b48:	93 0b       	sbc	r25, r19
     b4a:	a4 0b       	sbc	r26, r20
     b4c:	b5 0b       	sbc	r27, r21
     b4e:	3c 01       	movw	r6, r24
     b50:	4d 01       	movw	r8, r26
     b52:	99 0c       	add	r9, r9
     b54:	66 08       	sbc	r6, r6
     b56:	76 2c       	mov	r7, r6
     b58:	43 01       	movw	r8, r6
	p = (((p<<31)-var2)*3125)/var1;
     b5a:	28 2f       	mov	r18, r24
     b5c:	39 2f       	mov	r19, r25
     b5e:	4a 2f       	mov	r20, r26
     b60:	5b 2f       	mov	r21, r27
     b62:	66 2d       	mov	r22, r6
     b64:	76 2d       	mov	r23, r6
     b66:	86 2d       	mov	r24, r6
     b68:	96 2d       	mov	r25, r6
     b6a:	0f e1       	ldi	r16, 0x1F	; 31
     b6c:	0e 94 0b 3f 	call	0x7e16	; 0x7e16 <__ashldi3>
     b70:	82 2e       	mov	r8, r18
     b72:	93 2e       	mov	r9, r19
     b74:	f4 2f       	mov	r31, r20
     b76:	75 2e       	mov	r7, r21
     b78:	b6 2f       	mov	r27, r22
     b7a:	a7 2f       	mov	r26, r23
     b7c:	68 2e       	mov	r6, r24
     b7e:	9d 83       	std	Y+5, r25	; 0x05
{
	long long var1, var2, p;
	var1 = ((long)t_fine)-128000;
	var2 = var1*var1*(long)dig_P6;
	var2 = var2 + ((var1*(long)dig_P5)<<17);
	var2 = var2 + (((long long)dig_P4)<<35);
     b80:	2c 8d       	ldd	r18, Y+28	; 0x1c
     b82:	9d 89       	ldd	r25, Y+21	; 0x15
     b84:	99 0f       	add	r25, r25
     b86:	99 0b       	sbc	r25, r25
     b88:	3d 89       	ldd	r19, Y+21	; 0x15
     b8a:	49 2f       	mov	r20, r25
     b8c:	59 2f       	mov	r21, r25
     b8e:	69 2f       	mov	r22, r25
     b90:	79 2f       	mov	r23, r25
     b92:	89 2f       	mov	r24, r25
     b94:	03 e2       	ldi	r16, 0x23	; 35
     b96:	0e 94 0b 3f 	call	0x7e16	; 0x7e16 <__ashldi3>
     b9a:	0e 2f       	mov	r16, r30
     b9c:	0e 94 42 3f 	call	0x7e84	; 0x7e84 <__adddi3>
     ba0:	a2 2e       	mov	r10, r18
     ba2:	b3 2e       	mov	r11, r19
     ba4:	c4 2e       	mov	r12, r20
     ba6:	d5 2e       	mov	r13, r21
     ba8:	e6 2e       	mov	r14, r22
     baa:	f7 2e       	mov	r15, r23
     bac:	08 2f       	mov	r16, r24
     bae:	19 2f       	mov	r17, r25
	if (var1 == 0)
	{
		return 0;
	}
	p = 1048576 - adc_P;
	p = (((p<<31)-var2)*3125)/var1;
     bb0:	28 2d       	mov	r18, r8
     bb2:	39 2d       	mov	r19, r9
     bb4:	4f 2f       	mov	r20, r31
     bb6:	57 2d       	mov	r21, r7
     bb8:	6b 2f       	mov	r22, r27
     bba:	7a 2f       	mov	r23, r26
     bbc:	86 2d       	mov	r24, r6
     bbe:	9d 81       	ldd	r25, Y+5	; 0x05
     bc0:	0e 94 4b 3f 	call	0x7e96	; 0x7e96 <__subdi3>
     bc4:	82 2e       	mov	r8, r18
     bc6:	93 2e       	mov	r9, r19
     bc8:	49 83       	std	Y+1, r20	; 0x01
     bca:	65 2e       	mov	r6, r21
     bcc:	b6 2f       	mov	r27, r22
     bce:	a7 2f       	mov	r26, r23
     bd0:	f8 2f       	mov	r31, r24
     bd2:	e9 2f       	mov	r30, r25
     bd4:	03 e0       	ldi	r16, 0x03	; 3
     bd6:	0e 94 0b 3f 	call	0x7e16	; 0x7e16 <__ashldi3>
     bda:	a8 2c       	mov	r10, r8
     bdc:	b9 2c       	mov	r11, r9
     bde:	c9 80       	ldd	r12, Y+1	; 0x01
     be0:	d6 2c       	mov	r13, r6
     be2:	eb 2e       	mov	r14, r27
     be4:	fa 2e       	mov	r15, r26
     be6:	0f 2f       	mov	r16, r31
     be8:	1e 2f       	mov	r17, r30
     bea:	0e 94 4b 3f 	call	0x7e96	; 0x7e96 <__subdi3>
     bee:	a2 2e       	mov	r10, r18
     bf0:	b3 2e       	mov	r11, r19
     bf2:	c4 2e       	mov	r12, r20
     bf4:	d5 2e       	mov	r13, r21
     bf6:	e6 2e       	mov	r14, r22
     bf8:	f7 2e       	mov	r15, r23
     bfa:	78 2e       	mov	r7, r24
     bfc:	19 2f       	mov	r17, r25
     bfe:	03 e0       	ldi	r16, 0x03	; 3
     c00:	0e 94 0b 3f 	call	0x7e16	; 0x7e16 <__ashldi3>
     c04:	07 2d       	mov	r16, r7
     c06:	0e 94 4b 3f 	call	0x7e96	; 0x7e96 <__subdi3>
     c0a:	03 e0       	ldi	r16, 0x03	; 3
     c0c:	0e 94 0b 3f 	call	0x7e16	; 0x7e16 <__ashldi3>
     c10:	a8 2c       	mov	r10, r8
     c12:	b9 2c       	mov	r11, r9
     c14:	c9 80       	ldd	r12, Y+1	; 0x01
     c16:	d6 2c       	mov	r13, r6
     c18:	eb 2e       	mov	r14, r27
     c1a:	fa 2e       	mov	r15, r26
     c1c:	0f 2f       	mov	r16, r31
     c1e:	1e 2f       	mov	r17, r30
     c20:	0e 94 4b 3f 	call	0x7e96	; 0x7e96 <__subdi3>
     c24:	02 e0       	ldi	r16, 0x02	; 2
     c26:	0e 94 0b 3f 	call	0x7e16	; 0x7e16 <__ashldi3>
     c2a:	0f 2f       	mov	r16, r31
     c2c:	0e 94 4b 3f 	call	0x7e96	; 0x7e96 <__subdi3>
     c30:	01 e0       	ldi	r16, 0x01	; 1
     c32:	0e 94 0b 3f 	call	0x7e16	; 0x7e16 <__ashldi3>
     c36:	0f 2f       	mov	r16, r31
     c38:	0e 94 4b 3f 	call	0x7e96	; 0x7e96 <__subdi3>
     c3c:	a9 84       	ldd	r10, Y+9	; 0x09
     c3e:	ba 84       	ldd	r11, Y+10	; 0x0a
     c40:	cb 84       	ldd	r12, Y+11	; 0x0b
     c42:	d4 2c       	mov	r13, r4
     c44:	e5 2c       	mov	r14, r5
     c46:	fc 84       	ldd	r15, Y+12	; 0x0c
     c48:	03 2d       	mov	r16, r3
     c4a:	12 2d       	mov	r17, r2
     c4c:	0e 94 3d 3e 	call	0x7c7a	; 0x7c7a <__divdi3>
     c50:	2e 87       	std	Y+14, r18	; 0x0e
     c52:	3d 87       	std	Y+13, r19	; 0x0d
     c54:	49 83       	std	Y+1, r20	; 0x01
     c56:	5d 83       	std	Y+5, r21	; 0x05
     c58:	69 87       	std	Y+9, r22	; 0x09
     c5a:	7a 87       	std	Y+10, r23	; 0x0a
     c5c:	8b 87       	std	Y+11, r24	; 0x0b
     c5e:	9c 87       	std	Y+12, r25	; 0x0c
	var1 = (((long)dig_P9)*(p>>13)*(p>>13))>>25;
     c60:	0d e0       	ldi	r16, 0x0D	; 13
     c62:	0e 94 24 3f 	call	0x7e48	; 0x7e48 <__ashrdi3>
     c66:	82 2e       	mov	r8, r18
     c68:	93 2e       	mov	r9, r19
     c6a:	74 2e       	mov	r7, r20
     c6c:	65 2e       	mov	r6, r21
     c6e:	56 2e       	mov	r5, r22
     c70:	47 2e       	mov	r4, r23
     c72:	38 2e       	mov	r3, r24
     c74:	29 2e       	mov	r2, r25
     c76:	30 91 a6 04 	lds	r19, 0x04A6	; 0x8004a6 <dig_P9+0x1>
     c7a:	20 91 a5 04 	lds	r18, 0x04A5	; 0x8004a5 <dig_P9>
     c7e:	93 2f       	mov	r25, r19
     c80:	99 0f       	add	r25, r25
     c82:	99 0b       	sbc	r25, r25
     c84:	a8 2c       	mov	r10, r8
     c86:	b9 2c       	mov	r11, r9
     c88:	c7 2c       	mov	r12, r7
     c8a:	d6 2c       	mov	r13, r6
     c8c:	e5 2c       	mov	r14, r5
     c8e:	f4 2c       	mov	r15, r4
     c90:	03 2d       	mov	r16, r3
     c92:	12 2d       	mov	r17, r2
     c94:	49 2f       	mov	r20, r25
     c96:	59 2f       	mov	r21, r25
     c98:	69 2f       	mov	r22, r25
     c9a:	79 2f       	mov	r23, r25
     c9c:	89 2f       	mov	r24, r25
     c9e:	0e 94 ea 3d 	call	0x7bd4	; 0x7bd4 <__muldi3>
     ca2:	a2 2e       	mov	r10, r18
     ca4:	b3 2e       	mov	r11, r19
     ca6:	c4 2e       	mov	r12, r20
     ca8:	d5 2e       	mov	r13, r21
     caa:	e6 2e       	mov	r14, r22
     cac:	f7 2e       	mov	r15, r23
     cae:	08 2f       	mov	r16, r24
     cb0:	19 2f       	mov	r17, r25
     cb2:	28 2d       	mov	r18, r8
     cb4:	39 2d       	mov	r19, r9
     cb6:	47 2d       	mov	r20, r7
     cb8:	56 2d       	mov	r21, r6
     cba:	65 2d       	mov	r22, r5
     cbc:	74 2d       	mov	r23, r4
     cbe:	83 2d       	mov	r24, r3
     cc0:	92 2d       	mov	r25, r2
     cc2:	0e 94 ea 3d 	call	0x7bd4	; 0x7bd4 <__muldi3>
     cc6:	09 e1       	ldi	r16, 0x19	; 25
     cc8:	0e 94 24 3f 	call	0x7e48	; 0x7e48 <__ashrdi3>
     ccc:	a2 2e       	mov	r10, r18
     cce:	b3 2e       	mov	r11, r19
     cd0:	c4 2e       	mov	r12, r20
     cd2:	d5 2e       	mov	r13, r21
     cd4:	e6 2e       	mov	r14, r22
     cd6:	f7 2e       	mov	r15, r23
     cd8:	08 2f       	mov	r16, r24
     cda:	19 2f       	mov	r17, r25
	var2 = (((long)dig_P8)*p)>>19;
	p = ((p+var1+var2)>>8)+(((long)dig_P7)<<4);
     cdc:	2e 85       	ldd	r18, Y+14	; 0x0e
     cde:	3d 85       	ldd	r19, Y+13	; 0x0d
     ce0:	49 81       	ldd	r20, Y+1	; 0x01
     ce2:	5d 81       	ldd	r21, Y+5	; 0x05
     ce4:	69 85       	ldd	r22, Y+9	; 0x09
     ce6:	7a 85       	ldd	r23, Y+10	; 0x0a
     ce8:	8b 85       	ldd	r24, Y+11	; 0x0b
     cea:	9c 85       	ldd	r25, Y+12	; 0x0c
     cec:	0e 94 42 3f 	call	0x7e84	; 0x7e84 <__adddi3>
     cf0:	22 2e       	mov	r2, r18
     cf2:	33 2e       	mov	r3, r19
     cf4:	44 2e       	mov	r4, r20
     cf6:	55 2e       	mov	r5, r21
     cf8:	66 2e       	mov	r6, r22
     cfa:	77 2e       	mov	r7, r23
     cfc:	88 2e       	mov	r8, r24
     cfe:	99 2e       	mov	r9, r25
		return 0;
	}
	p = 1048576 - adc_P;
	p = (((p<<31)-var2)*3125)/var1;
	var1 = (((long)dig_P9)*(p>>13)*(p>>13))>>25;
	var2 = (((long)dig_P8)*p)>>19;
     d00:	30 91 91 04 	lds	r19, 0x0491	; 0x800491 <dig_P8+0x1>
     d04:	20 91 90 04 	lds	r18, 0x0490	; 0x800490 <dig_P8>
     d08:	93 2f       	mov	r25, r19
     d0a:	99 0f       	add	r25, r25
     d0c:	99 0b       	sbc	r25, r25
     d0e:	ae 84       	ldd	r10, Y+14	; 0x0e
     d10:	bd 84       	ldd	r11, Y+13	; 0x0d
     d12:	c9 80       	ldd	r12, Y+1	; 0x01
     d14:	dd 80       	ldd	r13, Y+5	; 0x05
     d16:	e9 84       	ldd	r14, Y+9	; 0x09
     d18:	fa 84       	ldd	r15, Y+10	; 0x0a
     d1a:	0b 85       	ldd	r16, Y+11	; 0x0b
     d1c:	1c 85       	ldd	r17, Y+12	; 0x0c
     d1e:	49 2f       	mov	r20, r25
     d20:	59 2f       	mov	r21, r25
     d22:	69 2f       	mov	r22, r25
     d24:	79 2f       	mov	r23, r25
     d26:	89 2f       	mov	r24, r25
     d28:	0e 94 ea 3d 	call	0x7bd4	; 0x7bd4 <__muldi3>
     d2c:	03 e1       	ldi	r16, 0x13	; 19
     d2e:	0e 94 24 3f 	call	0x7e48	; 0x7e48 <__ashrdi3>
     d32:	a2 2e       	mov	r10, r18
     d34:	b3 2e       	mov	r11, r19
     d36:	c4 2e       	mov	r12, r20
     d38:	d5 2e       	mov	r13, r21
     d3a:	e6 2e       	mov	r14, r22
     d3c:	f7 2e       	mov	r15, r23
     d3e:	08 2f       	mov	r16, r24
     d40:	19 2f       	mov	r17, r25
	p = ((p+var1+var2)>>8)+(((long)dig_P7)<<4);
     d42:	22 2d       	mov	r18, r2
     d44:	33 2d       	mov	r19, r3
     d46:	44 2d       	mov	r20, r4
     d48:	55 2d       	mov	r21, r5
     d4a:	66 2d       	mov	r22, r6
     d4c:	77 2d       	mov	r23, r7
     d4e:	88 2d       	mov	r24, r8
     d50:	99 2d       	mov	r25, r9
     d52:	0e 94 42 3f 	call	0x7e84	; 0x7e84 <__adddi3>
     d56:	08 e0       	ldi	r16, 0x08	; 8
     d58:	0e 94 24 3f 	call	0x7e48	; 0x7e48 <__ashrdi3>
     d5c:	40 90 bd 03 	lds	r4, 0x03BD	; 0x8003bd <dig_P7>
     d60:	50 90 be 03 	lds	r5, 0x03BE	; 0x8003be <dig_P7+0x1>
     d64:	05 2c       	mov	r0, r5
     d66:	00 0c       	add	r0, r0
     d68:	66 08       	sbc	r6, r6
     d6a:	77 08       	sbc	r7, r7
     d6c:	44 0c       	add	r4, r4
     d6e:	55 1c       	adc	r5, r5
     d70:	66 1c       	adc	r6, r6
     d72:	77 1c       	adc	r7, r7
     d74:	44 0c       	add	r4, r4
     d76:	55 1c       	adc	r5, r5
     d78:	66 1c       	adc	r6, r6
     d7a:	77 1c       	adc	r7, r7
     d7c:	44 0c       	add	r4, r4
     d7e:	55 1c       	adc	r5, r5
     d80:	66 1c       	adc	r6, r6
     d82:	77 1c       	adc	r7, r7
     d84:	44 0c       	add	r4, r4
     d86:	55 1c       	adc	r5, r5
     d88:	66 1c       	adc	r6, r6
     d8a:	77 1c       	adc	r7, r7
     d8c:	83 01       	movw	r16, r6
     d8e:	72 01       	movw	r14, r4
     d90:	11 0f       	add	r17, r17
     d92:	ee 08       	sbc	r14, r14
     d94:	fe 2c       	mov	r15, r14
     d96:	87 01       	movw	r16, r14
     d98:	e9 82       	std	Y+1, r14	; 0x01
     d9a:	fa 82       	std	Y+2, r15	; 0x02
     d9c:	0b 83       	std	Y+3, r16	; 0x03
     d9e:	1c 83       	std	Y+4, r17	; 0x04
     da0:	a4 2c       	mov	r10, r4
     da2:	b5 2c       	mov	r11, r5
     da4:	c6 2c       	mov	r12, r6
     da6:	d7 2c       	mov	r13, r7
     da8:	e9 80       	ldd	r14, Y+1	; 0x01
     daa:	fe 2c       	mov	r15, r14
     dac:	0e 2d       	mov	r16, r14
     dae:	1e 2d       	mov	r17, r14
     db0:	0e 94 42 3f 	call	0x7e84	; 0x7e84 <__adddi3>
	return(long)p;
     db4:	62 2f       	mov	r22, r18
     db6:	73 2f       	mov	r23, r19
     db8:	84 2f       	mov	r24, r20
     dba:	95 2f       	mov	r25, r21
     dbc:	04 c0       	rjmp	.+8      	; 0xdc6 <BME280_compensate_P_int64+0x4a6>
	var2 = var2 + (((long long)dig_P4)<<35);
	var1 = ((var1*var1*(long)dig_P3)>>8)+((var1*(long)dig_P2)<<12);
	var1 = (((((long long)1)<<47)+var1))*((long long)dig_P1)>>33;
	if (var1 == 0)
	{
		return 0;
     dbe:	60 e0       	ldi	r22, 0x00	; 0
     dc0:	70 e0       	ldi	r23, 0x00	; 0
     dc2:	80 e0       	ldi	r24, 0x00	; 0
     dc4:	90 e0       	ldi	r25, 0x00	; 0
	p = (((p<<31)-var2)*3125)/var1;
	var1 = (((long)dig_P9)*(p>>13)*(p>>13))>>25;
	var2 = (((long)dig_P8)*p)>>19;
	p = ((p+var1+var2)>>8)+(((long)dig_P7)<<4);
	return(long)p;
}
     dc6:	6e 96       	adiw	r28, 0x1e	; 30
     dc8:	0f b6       	in	r0, 0x3f	; 63
     dca:	f8 94       	cli
     dcc:	de bf       	out	0x3e, r29	; 62
     dce:	0f be       	out	0x3f, r0	; 63
     dd0:	cd bf       	out	0x3d, r28	; 61
     dd2:	df 91       	pop	r29
     dd4:	cf 91       	pop	r28
     dd6:	1f 91       	pop	r17
     dd8:	0f 91       	pop	r16
     dda:	ff 90       	pop	r15
     ddc:	ef 90       	pop	r14
     dde:	df 90       	pop	r13
     de0:	cf 90       	pop	r12
     de2:	bf 90       	pop	r11
     de4:	af 90       	pop	r10
     de6:	9f 90       	pop	r9
     de8:	8f 90       	pop	r8
     dea:	7f 90       	pop	r7
     dec:	6f 90       	pop	r6
     dee:	5f 90       	pop	r5
     df0:	4f 90       	pop	r4
     df2:	3f 90       	pop	r3
     df4:	2f 90       	pop	r2
     df6:	08 95       	ret

00000df8 <bme280_compensate_H_int32>:

// Returns humidity in %RH as unsigned 32 bit integer in Q22.10 format (22 integer and 10 fractional bits).
// Output value of ?47445? represents 47445/1024 = 46.333 %RH
long bme280_compensate_H_int32(long adc_H)
{
     df8:	2f 92       	push	r2
     dfa:	3f 92       	push	r3
     dfc:	4f 92       	push	r4
     dfe:	5f 92       	push	r5
     e00:	6f 92       	push	r6
     e02:	7f 92       	push	r7
     e04:	8f 92       	push	r8
     e06:	9f 92       	push	r9
     e08:	af 92       	push	r10
     e0a:	bf 92       	push	r11
     e0c:	cf 92       	push	r12
     e0e:	df 92       	push	r13
     e10:	ef 92       	push	r14
     e12:	ff 92       	push	r15
     e14:	0f 93       	push	r16
     e16:	1f 93       	push	r17
     e18:	cf 93       	push	r28
     e1a:	df 93       	push	r29
     e1c:	cd b7       	in	r28, 0x3d	; 61
     e1e:	de b7       	in	r29, 0x3e	; 62
     e20:	67 97       	sbiw	r28, 0x17	; 23
     e22:	0f b6       	in	r0, 0x3f	; 63
     e24:	f8 94       	cli
     e26:	de bf       	out	0x3e, r29	; 62
     e28:	0f be       	out	0x3f, r0	; 63
     e2a:	cd bf       	out	0x3d, r28	; 61
     e2c:	2b 01       	movw	r4, r22
     e2e:	3c 01       	movw	r6, r24
	long long v_x1_u32r;
	v_x1_u32r = (t_fine - ((long long)76800));
     e30:	80 91 ad 04 	lds	r24, 0x04AD	; 0x8004ad <t_fine>
     e34:	90 91 ae 04 	lds	r25, 0x04AE	; 0x8004ae <t_fine+0x1>
     e38:	a0 91 af 04 	lds	r26, 0x04AF	; 0x8004af <t_fine+0x2>
     e3c:	b0 91 b0 04 	lds	r27, 0x04B0	; 0x8004b0 <t_fine+0x3>
     e40:	6c 01       	movw	r12, r24
     e42:	7d 01       	movw	r14, r26
     e44:	ff 0c       	add	r15, r15
     e46:	cc 08       	sbc	r12, r12
     e48:	dc 2c       	mov	r13, r12
     e4a:	76 01       	movw	r14, r12
     e4c:	28 2f       	mov	r18, r24
     e4e:	39 2f       	mov	r19, r25
     e50:	4a 2f       	mov	r20, r26
     e52:	5b 2f       	mov	r21, r27
     e54:	6c 2d       	mov	r22, r12
     e56:	7c 2d       	mov	r23, r12
     e58:	8c 2d       	mov	r24, r12
     e5a:	9c 2d       	mov	r25, r12
     e5c:	3c 52       	subi	r19, 0x2C	; 44
     e5e:	41 40       	sbci	r20, 0x01	; 1
     e60:	51 09       	sbc	r21, r1
     e62:	61 09       	sbc	r22, r1
     e64:	71 09       	sbc	r23, r1
     e66:	81 09       	sbc	r24, r1
     e68:	91 09       	sbc	r25, r1
     e6a:	2f 8b       	std	Y+23, r18	; 0x17
     e6c:	3e 8b       	std	Y+22, r19	; 0x16
     e6e:	49 83       	std	Y+1, r20	; 0x01
     e70:	59 87       	std	Y+9, r21	; 0x09
     e72:	6a 87       	std	Y+10, r22	; 0x0a
     e74:	7b 87       	std	Y+11, r23	; 0x0b
     e76:	8c 87       	std	Y+12, r24	; 0x0c
     e78:	9d 87       	std	Y+13, r25	; 0x0d
	v_x1_u32r = (((((adc_H << 14) - (((long long)dig_H4) << 20) - (((long long)dig_H5) * v_x1_u32r)) +
     e7a:	03 2e       	mov	r0, r19
     e7c:	3e e0       	ldi	r19, 0x0E	; 14
     e7e:	44 0c       	add	r4, r4
     e80:	55 1c       	adc	r5, r5
     e82:	66 1c       	adc	r6, r6
     e84:	77 1c       	adc	r7, r7
     e86:	3a 95       	dec	r19
     e88:	d1 f7       	brne	.-12     	; 0xe7e <bme280_compensate_H_int32+0x86>
     e8a:	30 2d       	mov	r19, r0
     e8c:	53 01       	movw	r10, r6
     e8e:	42 01       	movw	r8, r4
     e90:	bb 0c       	add	r11, r11
     e92:	88 08       	sbc	r8, r8
     e94:	98 2c       	mov	r9, r8
     e96:	54 01       	movw	r10, r8
     e98:	30 91 ea 03 	lds	r19, 0x03EA	; 0x8003ea <dig_H4+0x1>
     e9c:	20 91 e9 03 	lds	r18, 0x03E9	; 0x8003e9 <dig_H4>
     ea0:	93 2f       	mov	r25, r19
     ea2:	99 0f       	add	r25, r25
     ea4:	99 0b       	sbc	r25, r25
     ea6:	49 2f       	mov	r20, r25
     ea8:	59 2f       	mov	r21, r25
     eaa:	69 2f       	mov	r22, r25
     eac:	79 2f       	mov	r23, r25
     eae:	89 2f       	mov	r24, r25
     eb0:	04 e1       	ldi	r16, 0x14	; 20
     eb2:	0e 94 0b 3f 	call	0x7e16	; 0x7e16 <__ashldi3>
     eb6:	f2 2f       	mov	r31, r18
     eb8:	e3 2f       	mov	r30, r19
     eba:	c4 2e       	mov	r12, r20
     ebc:	d5 2e       	mov	r13, r21
     ebe:	e6 2e       	mov	r14, r22
     ec0:	f7 2e       	mov	r15, r23
     ec2:	08 2f       	mov	r16, r24
     ec4:	19 2f       	mov	r17, r25
     ec6:	24 2d       	mov	r18, r4
     ec8:	35 2d       	mov	r19, r5
     eca:	46 2d       	mov	r20, r6
     ecc:	57 2d       	mov	r21, r7
     ece:	68 2d       	mov	r22, r8
     ed0:	78 2d       	mov	r23, r8
     ed2:	88 2d       	mov	r24, r8
     ed4:	98 2d       	mov	r25, r8
     ed6:	af 2e       	mov	r10, r31
     ed8:	be 2e       	mov	r11, r30
     eda:	0e 94 4b 3f 	call	0x7e96	; 0x7e96 <__subdi3>
     ede:	22 2e       	mov	r2, r18
     ee0:	33 2e       	mov	r3, r19
     ee2:	44 2e       	mov	r4, r20
     ee4:	55 2e       	mov	r5, r21
     ee6:	66 2e       	mov	r6, r22
     ee8:	77 2e       	mov	r7, r23
     eea:	88 2e       	mov	r8, r24
     eec:	99 2e       	mov	r9, r25
     eee:	30 91 9d 04 	lds	r19, 0x049D	; 0x80049d <dig_H5+0x1>
     ef2:	20 91 9c 04 	lds	r18, 0x049C	; 0x80049c <dig_H5>
     ef6:	93 2f       	mov	r25, r19
     ef8:	99 0f       	add	r25, r25
     efa:	99 0b       	sbc	r25, r25
     efc:	af 88       	ldd	r10, Y+23	; 0x17
     efe:	be 88       	ldd	r11, Y+22	; 0x16
     f00:	c9 80       	ldd	r12, Y+1	; 0x01
     f02:	d9 84       	ldd	r13, Y+9	; 0x09
     f04:	ea 84       	ldd	r14, Y+10	; 0x0a
     f06:	fb 84       	ldd	r15, Y+11	; 0x0b
     f08:	0c 85       	ldd	r16, Y+12	; 0x0c
     f0a:	1d 85       	ldd	r17, Y+13	; 0x0d
     f0c:	49 2f       	mov	r20, r25
     f0e:	59 2f       	mov	r21, r25
     f10:	69 2f       	mov	r22, r25
     f12:	79 2f       	mov	r23, r25
     f14:	89 2f       	mov	r24, r25
     f16:	0e 94 ea 3d 	call	0x7bd4	; 0x7bd4 <__muldi3>
     f1a:	a2 2e       	mov	r10, r18
     f1c:	b3 2e       	mov	r11, r19
     f1e:	c4 2e       	mov	r12, r20
     f20:	d5 2e       	mov	r13, r21
     f22:	e6 2e       	mov	r14, r22
     f24:	f7 2e       	mov	r15, r23
     f26:	08 2f       	mov	r16, r24
     f28:	19 2f       	mov	r17, r25
     f2a:	22 2d       	mov	r18, r2
     f2c:	33 2d       	mov	r19, r3
     f2e:	44 2d       	mov	r20, r4
     f30:	55 2d       	mov	r21, r5
     f32:	66 2d       	mov	r22, r6
     f34:	77 2d       	mov	r23, r7
     f36:	88 2d       	mov	r24, r8
     f38:	99 2d       	mov	r25, r9
     f3a:	0e 94 4b 3f 	call	0x7e96	; 0x7e96 <__subdi3>
     f3e:	30 5c       	subi	r19, 0xC0	; 192
     f40:	4f 4f       	sbci	r20, 0xFF	; 255
     f42:	5f 4f       	sbci	r21, 0xFF	; 255
     f44:	6f 4f       	sbci	r22, 0xFF	; 255
     f46:	7f 4f       	sbci	r23, 0xFF	; 255
     f48:	8f 4f       	sbci	r24, 0xFF	; 255
     f4a:	9f 4f       	sbci	r25, 0xFF	; 255
	((long long)16384)) >> 15) * (((((((v_x1_u32r * ((long long)dig_H6)) >> 10) * (((v_x1_u32r *
     f4c:	0f e0       	ldi	r16, 0x0F	; 15
     f4e:	0e 94 24 3f 	call	0x7e48	; 0x7e48 <__ashrdi3>
     f52:	2e 87       	std	Y+14, r18	; 0x0e
     f54:	3f 87       	std	Y+15, r19	; 0x0f
     f56:	48 8b       	std	Y+16, r20	; 0x10
     f58:	59 8b       	std	Y+17, r21	; 0x11
     f5a:	6a 8b       	std	Y+18, r22	; 0x12
     f5c:	7b 8b       	std	Y+19, r23	; 0x13
     f5e:	8c 8b       	std	Y+20, r24	; 0x14
     f60:	9d 8b       	std	Y+21, r25	; 0x15
     f62:	30 91 42 04 	lds	r19, 0x0442	; 0x800442 <dig_H6+0x1>
     f66:	20 91 41 04 	lds	r18, 0x0441	; 0x800441 <dig_H6>
     f6a:	93 2f       	mov	r25, r19
     f6c:	99 0f       	add	r25, r25
     f6e:	99 0b       	sbc	r25, r25
     f70:	af 88       	ldd	r10, Y+23	; 0x17
     f72:	be 88       	ldd	r11, Y+22	; 0x16
     f74:	c9 80       	ldd	r12, Y+1	; 0x01
     f76:	d9 84       	ldd	r13, Y+9	; 0x09
     f78:	ea 84       	ldd	r14, Y+10	; 0x0a
     f7a:	fb 84       	ldd	r15, Y+11	; 0x0b
     f7c:	0c 85       	ldd	r16, Y+12	; 0x0c
     f7e:	1d 85       	ldd	r17, Y+13	; 0x0d
     f80:	49 2f       	mov	r20, r25
     f82:	59 2f       	mov	r21, r25
     f84:	69 2f       	mov	r22, r25
     f86:	79 2f       	mov	r23, r25
     f88:	89 2f       	mov	r24, r25
     f8a:	0e 94 ea 3d 	call	0x7bd4	; 0x7bd4 <__muldi3>
     f8e:	0a e0       	ldi	r16, 0x0A	; 10
     f90:	0e 94 24 3f 	call	0x7e48	; 0x7e48 <__ashrdi3>
     f94:	82 2e       	mov	r8, r18
     f96:	93 2e       	mov	r9, r19
     f98:	74 2e       	mov	r7, r20
     f9a:	65 2e       	mov	r6, r21
     f9c:	56 2e       	mov	r5, r22
     f9e:	47 2e       	mov	r4, r23
     fa0:	38 2e       	mov	r3, r24
     fa2:	29 2e       	mov	r2, r25
	((long long)dig_H3)) >> 11) + ((long long)32768))) >> 10) + ((long long)2097152)) *
     fa4:	40 91 9f 04 	lds	r20, 0x049F	; 0x80049f <dig_H3>
     fa8:	50 91 a0 04 	lds	r21, 0x04A0	; 0x8004a0 <dig_H3+0x1>
long bme280_compensate_H_int32(long adc_H)
{
	long long v_x1_u32r;
	v_x1_u32r = (t_fine - ((long long)76800));
	v_x1_u32r = (((((adc_H << 14) - (((long long)dig_H4) << 20) - (((long long)dig_H5) * v_x1_u32r)) +
	((long long)16384)) >> 15) * (((((((v_x1_u32r * ((long long)dig_H6)) >> 10) * (((v_x1_u32r *
     fac:	0c 85       	ldd	r16, Y+12	; 0x0c
     fae:	24 2f       	mov	r18, r20
     fb0:	35 2f       	mov	r19, r21
     fb2:	40 e0       	ldi	r20, 0x00	; 0
     fb4:	50 e0       	ldi	r21, 0x00	; 0
     fb6:	60 e0       	ldi	r22, 0x00	; 0
     fb8:	70 e0       	ldi	r23, 0x00	; 0
     fba:	80 e0       	ldi	r24, 0x00	; 0
     fbc:	90 e0       	ldi	r25, 0x00	; 0
     fbe:	0e 94 ea 3d 	call	0x7bd4	; 0x7bd4 <__muldi3>
	((long long)dig_H3)) >> 11) + ((long long)32768))) >> 10) + ((long long)2097152)) *
     fc2:	0b e0       	ldi	r16, 0x0B	; 11
     fc4:	0e 94 24 3f 	call	0x7e48	; 0x7e48 <__ashrdi3>
     fc8:	30 58       	subi	r19, 0x80	; 128
     fca:	4f 4f       	sbci	r20, 0xFF	; 255
     fcc:	5f 4f       	sbci	r21, 0xFF	; 255
     fce:	6f 4f       	sbci	r22, 0xFF	; 255
     fd0:	7f 4f       	sbci	r23, 0xFF	; 255
     fd2:	8f 4f       	sbci	r24, 0xFF	; 255
     fd4:	9f 4f       	sbci	r25, 0xFF	; 255
long bme280_compensate_H_int32(long adc_H)
{
	long long v_x1_u32r;
	v_x1_u32r = (t_fine - ((long long)76800));
	v_x1_u32r = (((((adc_H << 14) - (((long long)dig_H4) << 20) - (((long long)dig_H5) * v_x1_u32r)) +
	((long long)16384)) >> 15) * (((((((v_x1_u32r * ((long long)dig_H6)) >> 10) * (((v_x1_u32r *
     fd6:	a2 2e       	mov	r10, r18
     fd8:	b3 2e       	mov	r11, r19
     fda:	c4 2e       	mov	r12, r20
     fdc:	d5 2e       	mov	r13, r21
     fde:	e6 2e       	mov	r14, r22
     fe0:	f7 2e       	mov	r15, r23
     fe2:	08 2f       	mov	r16, r24
     fe4:	19 2f       	mov	r17, r25
     fe6:	28 2d       	mov	r18, r8
     fe8:	39 2d       	mov	r19, r9
     fea:	47 2d       	mov	r20, r7
     fec:	56 2d       	mov	r21, r6
     fee:	65 2d       	mov	r22, r5
     ff0:	74 2d       	mov	r23, r4
     ff2:	83 2d       	mov	r24, r3
     ff4:	92 2d       	mov	r25, r2
     ff6:	0e 94 ea 3d 	call	0x7bd4	; 0x7bd4 <__muldi3>
	((long long)dig_H3)) >> 11) + ((long long)32768))) >> 10) + ((long long)2097152)) *
     ffa:	0a e0       	ldi	r16, 0x0A	; 10
     ffc:	0e 94 24 3f 	call	0x7e48	; 0x7e48 <__ashrdi3>
    1000:	40 5e       	subi	r20, 0xE0	; 224
    1002:	5f 4f       	sbci	r21, 0xFF	; 255
    1004:	6f 4f       	sbci	r22, 0xFF	; 255
    1006:	7f 4f       	sbci	r23, 0xFF	; 255
    1008:	8f 4f       	sbci	r24, 0xFF	; 255
    100a:	9f 4f       	sbci	r25, 0xFF	; 255
	((long long)dig_H2) + 8192) >> 14));
    100c:	b0 90 ac 04 	lds	r11, 0x04AC	; 0x8004ac <dig_H2+0x1>
    1010:	a0 90 ab 04 	lds	r10, 0x04AB	; 0x8004ab <dig_H2>
    1014:	1b 2d       	mov	r17, r11
    1016:	11 0f       	add	r17, r17
    1018:	11 0b       	sbc	r17, r17
{
	long long v_x1_u32r;
	v_x1_u32r = (t_fine - ((long long)76800));
	v_x1_u32r = (((((adc_H << 14) - (((long long)dig_H4) << 20) - (((long long)dig_H5) * v_x1_u32r)) +
	((long long)16384)) >> 15) * (((((((v_x1_u32r * ((long long)dig_H6)) >> 10) * (((v_x1_u32r *
	((long long)dig_H3)) >> 11) + ((long long)32768))) >> 10) + ((long long)2097152)) *
    101a:	c1 2e       	mov	r12, r17
    101c:	d1 2e       	mov	r13, r17
    101e:	e1 2e       	mov	r14, r17
    1020:	f1 2e       	mov	r15, r17
    1022:	01 2f       	mov	r16, r17
    1024:	0e 94 ea 3d 	call	0x7bd4	; 0x7bd4 <__muldi3>
	((long long)dig_H2) + 8192) >> 14));
    1028:	30 5e       	subi	r19, 0xE0	; 224
    102a:	4f 4f       	sbci	r20, 0xFF	; 255
    102c:	5f 4f       	sbci	r21, 0xFF	; 255
    102e:	6f 4f       	sbci	r22, 0xFF	; 255
    1030:	7f 4f       	sbci	r23, 0xFF	; 255
    1032:	8f 4f       	sbci	r24, 0xFF	; 255
    1034:	9f 4f       	sbci	r25, 0xFF	; 255
    1036:	0e e0       	ldi	r16, 0x0E	; 14
    1038:	0e 94 24 3f 	call	0x7e48	; 0x7e48 <__ashrdi3>
// Output value of ?47445? represents 47445/1024 = 46.333 %RH
long bme280_compensate_H_int32(long adc_H)
{
	long long v_x1_u32r;
	v_x1_u32r = (t_fine - ((long long)76800));
	v_x1_u32r = (((((adc_H << 14) - (((long long)dig_H4) << 20) - (((long long)dig_H5) * v_x1_u32r)) +
    103c:	a2 2e       	mov	r10, r18
    103e:	b3 2e       	mov	r11, r19
    1040:	c4 2e       	mov	r12, r20
    1042:	d5 2e       	mov	r13, r21
    1044:	e6 2e       	mov	r14, r22
    1046:	f7 2e       	mov	r15, r23
    1048:	08 2f       	mov	r16, r24
    104a:	19 2f       	mov	r17, r25
    104c:	2e 85       	ldd	r18, Y+14	; 0x0e
    104e:	3f 85       	ldd	r19, Y+15	; 0x0f
    1050:	48 89       	ldd	r20, Y+16	; 0x10
    1052:	59 89       	ldd	r21, Y+17	; 0x11
    1054:	6a 89       	ldd	r22, Y+18	; 0x12
    1056:	7b 89       	ldd	r23, Y+19	; 0x13
    1058:	8c 89       	ldd	r24, Y+20	; 0x14
    105a:	9d 89       	ldd	r25, Y+21	; 0x15
    105c:	0e 94 ea 3d 	call	0x7bd4	; 0x7bd4 <__muldi3>
    1060:	42 2e       	mov	r4, r18
    1062:	53 2e       	mov	r5, r19
    1064:	64 2e       	mov	r6, r20
    1066:	75 2e       	mov	r7, r21
    1068:	86 2e       	mov	r8, r22
    106a:	97 2e       	mov	r9, r23
    106c:	28 2e       	mov	r2, r24
    106e:	39 2e       	mov	r3, r25
	((long long)16384)) >> 15) * (((((((v_x1_u32r * ((long long)dig_H6)) >> 10) * (((v_x1_u32r *
	((long long)dig_H3)) >> 11) + ((long long)32768))) >> 10) + ((long long)2097152)) *
	((long long)dig_H2) + 8192) >> 14));
	v_x1_u32r = (v_x1_u32r - (((((v_x1_u32r >> 15) * (v_x1_u32r >> 15)) >> 7) * ((long long)dig_H1)) >> 4));
    1070:	0f e0       	ldi	r16, 0x0F	; 15
    1072:	0e 94 24 3f 	call	0x7e48	; 0x7e48 <__ashrdi3>
    1076:	a2 2e       	mov	r10, r18
    1078:	b3 2e       	mov	r11, r19
    107a:	c4 2e       	mov	r12, r20
    107c:	d5 2e       	mov	r13, r21
    107e:	e6 2e       	mov	r14, r22
    1080:	f7 2e       	mov	r15, r23
    1082:	08 2f       	mov	r16, r24
    1084:	19 2f       	mov	r17, r25
    1086:	0e 94 ea 3d 	call	0x7bd4	; 0x7bd4 <__muldi3>
    108a:	07 e0       	ldi	r16, 0x07	; 7
    108c:	0e 94 24 3f 	call	0x7e48	; 0x7e48 <__ashrdi3>
    1090:	e0 91 1b 04 	lds	r30, 0x041B	; 0x80041b <dig_H1>
    1094:	f0 91 1c 04 	lds	r31, 0x041C	; 0x80041c <dig_H1+0x1>
    1098:	5f 01       	movw	r10, r30
    109a:	c1 2c       	mov	r12, r1
    109c:	d1 2c       	mov	r13, r1
    109e:	e1 2c       	mov	r14, r1
    10a0:	f1 2c       	mov	r15, r1
    10a2:	87 01       	movw	r16, r14
    10a4:	e9 83       	std	Y+1, r30	; 0x01
    10a6:	ba 82       	std	Y+2, r11	; 0x02
    10a8:	cb 82       	std	Y+3, r12	; 0x03
    10aa:	dc 82       	std	Y+4, r13	; 0x04
    10ac:	ed 82       	std	Y+5, r14	; 0x05
    10ae:	fe 82       	std	Y+6, r15	; 0x06
    10b0:	0f 83       	std	Y+7, r16	; 0x07
    10b2:	18 87       	std	Y+8, r17	; 0x08
    10b4:	c1 2c       	mov	r12, r1
    10b6:	d1 2c       	mov	r13, r1
    10b8:	e1 2c       	mov	r14, r1
    10ba:	f1 2c       	mov	r15, r1
    10bc:	00 e0       	ldi	r16, 0x00	; 0
    10be:	10 e0       	ldi	r17, 0x00	; 0
    10c0:	0e 94 ea 3d 	call	0x7bd4	; 0x7bd4 <__muldi3>
    10c4:	04 e0       	ldi	r16, 0x04	; 4
    10c6:	0e 94 24 3f 	call	0x7e48	; 0x7e48 <__ashrdi3>
    10ca:	a2 2e       	mov	r10, r18
    10cc:	b3 2e       	mov	r11, r19
    10ce:	c4 2e       	mov	r12, r20
    10d0:	d5 2e       	mov	r13, r21
    10d2:	e6 2e       	mov	r14, r22
    10d4:	f7 2e       	mov	r15, r23
    10d6:	08 2f       	mov	r16, r24
    10d8:	19 2f       	mov	r17, r25
    10da:	24 2d       	mov	r18, r4
    10dc:	35 2d       	mov	r19, r5
    10de:	46 2d       	mov	r20, r6
    10e0:	57 2d       	mov	r21, r7
    10e2:	68 2d       	mov	r22, r8
    10e4:	79 2d       	mov	r23, r9
    10e6:	82 2d       	mov	r24, r2
    10e8:	93 2d       	mov	r25, r3
    10ea:	0e 94 4b 3f 	call	0x7e96	; 0x7e96 <__subdi3>
	v_x1_u32r = (v_x1_u32r < 0 ? 0 : v_x1_u32r);
    10ee:	f2 2e       	mov	r15, r18
    10f0:	03 2f       	mov	r16, r19
    10f2:	14 2f       	mov	r17, r20
    10f4:	65 2e       	mov	r6, r21
    10f6:	76 2e       	mov	r7, r22
    10f8:	b7 2f       	mov	r27, r23
    10fa:	f8 2f       	mov	r31, r24
    10fc:	e9 2f       	mov	r30, r25
    10fe:	a0 e0       	ldi	r26, 0x00	; 0
    1100:	0e 94 54 3f 	call	0x7ea8	; 0x7ea8 <__cmpdi2_s8>
    1104:	44 f4       	brge	.+16     	; 0x1116 <bme280_compensate_H_int32+0x31e>
    1106:	f1 2c       	mov	r15, r1
    1108:	00 e0       	ldi	r16, 0x00	; 0
    110a:	10 e0       	ldi	r17, 0x00	; 0
    110c:	61 2c       	mov	r6, r1
    110e:	71 2c       	mov	r7, r1
    1110:	b0 e0       	ldi	r27, 0x00	; 0
    1112:	f0 e0       	ldi	r31, 0x00	; 0
    1114:	e0 e0       	ldi	r30, 0x00	; 0
	v_x1_u32r = (v_x1_u32r > 419430400 ? 419430400 : v_x1_u32r);
    1116:	8f 2c       	mov	r8, r15
    1118:	90 2e       	mov	r9, r16
    111a:	a1 2e       	mov	r10, r17
    111c:	b6 2c       	mov	r11, r6
    111e:	c7 2c       	mov	r12, r7
    1120:	db 2e       	mov	r13, r27
    1122:	ef 2e       	mov	r14, r31
    1124:	ae 2f       	mov	r26, r30
    1126:	2f 2d       	mov	r18, r15
    1128:	30 2f       	mov	r19, r16
    112a:	41 2f       	mov	r20, r17
    112c:	56 2d       	mov	r21, r6
    112e:	67 2d       	mov	r22, r7
    1130:	7b 2f       	mov	r23, r27
    1132:	8f 2f       	mov	r24, r31
    1134:	9e 2f       	mov	r25, r30
    1136:	21 15       	cp	r18, r1
    1138:	31 05       	cpc	r19, r1
    113a:	41 05       	cpc	r20, r1
    113c:	59 41       	sbci	r21, 0x19	; 25
    113e:	61 05       	cpc	r22, r1
    1140:	71 05       	cpc	r23, r1
    1142:	81 05       	cpc	r24, r1
    1144:	91 05       	cpc	r25, r1
    1146:	61 f0       	breq	.+24     	; 0x1160 <bme280_compensate_H_int32+0x368>
    1148:	5c f0       	brlt	.+22     	; 0x1160 <bme280_compensate_H_int32+0x368>
    114a:	81 2c       	mov	r8, r1
    114c:	91 2c       	mov	r9, r1
    114e:	a1 2c       	mov	r10, r1
    1150:	0f 2e       	mov	r0, r31
    1152:	f9 e1       	ldi	r31, 0x19	; 25
    1154:	bf 2e       	mov	r11, r31
    1156:	f0 2d       	mov	r31, r0
    1158:	c1 2c       	mov	r12, r1
    115a:	d1 2c       	mov	r13, r1
    115c:	e1 2c       	mov	r14, r1
    115e:	a0 e0       	ldi	r26, 0x00	; 0
	return (long)(v_x1_u32r>>12);
    1160:	28 2d       	mov	r18, r8
    1162:	39 2d       	mov	r19, r9
    1164:	4a 2d       	mov	r20, r10
    1166:	5b 2d       	mov	r21, r11
    1168:	6c 2d       	mov	r22, r12
    116a:	7d 2d       	mov	r23, r13
    116c:	8e 2d       	mov	r24, r14
    116e:	9a 2f       	mov	r25, r26
    1170:	0c e0       	ldi	r16, 0x0C	; 12
    1172:	0e 94 24 3f 	call	0x7e48	; 0x7e48 <__ashrdi3>
    1176:	62 2f       	mov	r22, r18
    1178:	73 2f       	mov	r23, r19
    117a:	84 2f       	mov	r24, r20
    117c:	95 2f       	mov	r25, r21
}
    117e:	67 96       	adiw	r28, 0x17	; 23
    1180:	0f b6       	in	r0, 0x3f	; 63
    1182:	f8 94       	cli
    1184:	de bf       	out	0x3e, r29	; 62
    1186:	0f be       	out	0x3f, r0	; 63
    1188:	cd bf       	out	0x3d, r28	; 61
    118a:	df 91       	pop	r29
    118c:	cf 91       	pop	r28
    118e:	1f 91       	pop	r17
    1190:	0f 91       	pop	r16
    1192:	ff 90       	pop	r15
    1194:	ef 90       	pop	r14
    1196:	df 90       	pop	r13
    1198:	cf 90       	pop	r12
    119a:	bf 90       	pop	r11
    119c:	af 90       	pop	r10
    119e:	9f 90       	pop	r9
    11a0:	8f 90       	pop	r8
    11a2:	7f 90       	pop	r7
    11a4:	6f 90       	pop	r6
    11a6:	5f 90       	pop	r5
    11a8:	4f 90       	pop	r4
    11aa:	3f 90       	pop	r3
    11ac:	2f 90       	pop	r2
    11ae:	08 95       	ret

000011b0 <canary_io_pin_initialization>:
}

void canary_io_pin_initialization(void) {
	// For Canary, Port B pins 0, 1, and 2 are the red, green, and blue LED control (output) pins
	// Port B pin 3 is an input pin, so DDRB pin 3 should be set to zero.
	DDRB  = 0x07;
    11b0:	87 e0       	ldi	r24, 0x07	; 7
    11b2:	84 b9       	out	0x04, r24	; 4
	//
	// Set all LEDs off
	// PORTB Pin 0(PORTB2) is the RED LED
	// PORTB Pin 1(PORTB2) is the GREEN LED
	// PORTB Pin 2(PORTB2) is the BLUE LED
	PORTB &= !0x07;
    11b4:	85 b1       	in	r24, 0x05	; 5
    11b6:	15 b8       	out	0x05, r1	; 5
	// The Canary start button is on Port B pin 3.  Set the pull-up resistor for pin 3:
	SetBit(PORTB, PORTB3);
    11b8:	2b 9a       	sbi	0x05, 3	; 5
	//
	// Set the Data Direction Register and pullups for the TWI system
	SetBit(DDRC, PORTC0); // Set clock as output
    11ba:	38 9a       	sbi	0x07, 0	; 7
	SetBit(DDRC, PORTC1); // Data Line as output
    11bc:	39 9a       	sbi	0x07, 1	; 7
	SetBit(PORTC, PORTC0); //Set pull-up resistor for clock
    11be:	40 9a       	sbi	0x08, 0	; 8
	SetBit(PORTC, PORTC1); //Set pull-up resistor for data
    11c0:	41 9a       	sbi	0x08, 1	; 8
    11c2:	08 95       	ret

000011c4 <get_gas_sensor_limits>:
#include "gas_sensors.h"

/********************************************************************************
						Functions
********************************************************************************/
void get_gas_sensor_limits(void) {
    11c4:	80 e0       	ldi	r24, 0x00	; 0
    11c6:	90 e0       	ldi	r25, 0x00	; 0
	This just sets some upper and lower bounds for the initialization code to use.
	Actual values will need to be derived empirically (using the UCAR test chamber) */
	for (ii=0; ii<5; ii++)
	{
		gas_sensor_boundaries[ii][0] = 0;
		gas_sensor_boundaries[ii][1] = 1023;
    11c8:	2f ef       	ldi	r18, 0xFF	; 255
    11ca:	33 e0       	ldi	r19, 0x03	; 3
	/* THIS IS A TEMPORARY ROUTINE, to be replaced by the EEPROM read commented out below.
	This just sets some upper and lower bounds for the initialization code to use.
	Actual values will need to be derived empirically (using the UCAR test chamber) */
	for (ii=0; ii<5; ii++)
	{
		gas_sensor_boundaries[ii][0] = 0;
    11cc:	fc 01       	movw	r30, r24
    11ce:	ee 0f       	add	r30, r30
    11d0:	ff 1f       	adc	r31, r31
    11d2:	ee 0f       	add	r30, r30
    11d4:	ff 1f       	adc	r31, r31
    11d6:	ee 52       	subi	r30, 0x2E	; 46
    11d8:	fc 4f       	sbci	r31, 0xFC	; 252
    11da:	11 82       	std	Z+1, r1	; 0x01
    11dc:	10 82       	st	Z, r1
		gas_sensor_boundaries[ii][1] = 1023;
    11de:	33 83       	std	Z+3, r19	; 0x03
    11e0:	22 83       	std	Z+2, r18	; 0x02
    11e2:	01 96       	adiw	r24, 0x01	; 1
void get_gas_sensor_limits(void) {
	uint8_t ii;
	/* THIS IS A TEMPORARY ROUTINE, to be replaced by the EEPROM read commented out below.
	This just sets some upper and lower bounds for the initialization code to use.
	Actual values will need to be derived empirically (using the UCAR test chamber) */
	for (ii=0; ii<5; ii++)
    11e4:	85 30       	cpi	r24, 0x05	; 5
    11e6:	91 05       	cpc	r25, r1
    11e8:	89 f7       	brne	.-30     	; 0x11cc <get_gas_sensor_limits+0x8>
	{
		gas_sensor_boundaries[ii][0] = 0;
		gas_sensor_boundaries[ii][1] = 1023;
	}
}
    11ea:	08 95       	ret

000011ec <get_gas_sensor_limits_from_EEPROM>:

void get_gas_sensor_limits_from_EEPROM(void) {
    11ec:	ef 92       	push	r14
    11ee:	ff 92       	push	r15
    11f0:	0f 93       	push	r16
    11f2:	1f 93       	push	r17
    11f4:	cf 93       	push	r28
    11f6:	df 93       	push	r29
    11f8:	0f 2e       	mov	r0, r31
    11fa:	f8 ea       	ldi	r31, 0xA8	; 168
    11fc:	ef 2e       	mov	r14, r31
    11fe:	f3 e0       	ldi	r31, 0x03	; 3
    1200:	ff 2e       	mov	r15, r31
    1202:	f0 2d       	mov	r31, r0
    1204:	00 e0       	ldi	r16, 0x00	; 0
    1206:	10 e0       	ldi	r17, 0x00	; 0
	// This routine reads the empirically derived upper and lower limits
	// for the gas sensors from EEPROM.  We can also use defined constants
	// if we need to...
	for (ii=0; ii<5; ii++)
	{
		gas_sensor_boundaries[ii][0] = eeprom_read_word(&gas_sensor_boundary_constants[ii][0]);
    1208:	c7 01       	movw	r24, r14
    120a:	0e 94 3e 42 	call	0x847c	; 0x847c <eeprom_read_word>
    120e:	e8 01       	movw	r28, r16
    1210:	cc 0f       	add	r28, r28
    1212:	dd 1f       	adc	r29, r29
    1214:	cc 0f       	add	r28, r28
    1216:	dd 1f       	adc	r29, r29
    1218:	ce 52       	subi	r28, 0x2E	; 46
    121a:	dc 4f       	sbci	r29, 0xFC	; 252
    121c:	99 83       	std	Y+1, r25	; 0x01
    121e:	88 83       	st	Y, r24
		gas_sensor_boundaries[ii][1] = eeprom_read_word(&gas_sensor_boundary_constants[ii][1]);
    1220:	c7 01       	movw	r24, r14
    1222:	02 96       	adiw	r24, 0x02	; 2
    1224:	0e 94 3e 42 	call	0x847c	; 0x847c <eeprom_read_word>
    1228:	9b 83       	std	Y+3, r25	; 0x03
    122a:	8a 83       	std	Y+2, r24	; 0x02
    122c:	0f 5f       	subi	r16, 0xFF	; 255
    122e:	1f 4f       	sbci	r17, 0xFF	; 255
    1230:	84 e0       	ldi	r24, 0x04	; 4
    1232:	e8 0e       	add	r14, r24
    1234:	f1 1c       	adc	r15, r1
void get_gas_sensor_limits_from_EEPROM(void) {
	uint8_t ii;
	// This routine reads the empirically derived upper and lower limits
	// for the gas sensors from EEPROM.  We can also use defined constants
	// if we need to...
	for (ii=0; ii<5; ii++)
    1236:	05 30       	cpi	r16, 0x05	; 5
    1238:	11 05       	cpc	r17, r1
    123a:	31 f7       	brne	.-52     	; 0x1208 <get_gas_sensor_limits_from_EEPROM+0x1c>
	{
		gas_sensor_boundaries[ii][0] = eeprom_read_word(&gas_sensor_boundary_constants[ii][0]);
		gas_sensor_boundaries[ii][1] = eeprom_read_word(&gas_sensor_boundary_constants[ii][1]);
	}
}
    123c:	df 91       	pop	r29
    123e:	cf 91       	pop	r28
    1240:	1f 91       	pop	r17
    1242:	0f 91       	pop	r16
    1244:	ff 90       	pop	r15
    1246:	ef 90       	pop	r14
    1248:	08 95       	ret

0000124a <gas_sensors_init>:

void gas_sensors_init(void)
{
    124a:	af 92       	push	r10
    124c:	bf 92       	push	r11
    124e:	cf 92       	push	r12
    1250:	df 92       	push	r13
    1252:	ef 92       	push	r14
    1254:	ff 92       	push	r15
    1256:	0f 93       	push	r16
    1258:	1f 93       	push	r17
    125a:	cf 93       	push	r28
    125c:	df 93       	push	r29
    125e:	1f 92       	push	r1
    1260:	cd b7       	in	r28, 0x3d	; 61
    1262:	de b7       	in	r29, 0x3e	; 62
	volatile uint8_t sensor_id;
	int16_t ADC_result;
	//
	// Clear our error trackers
	gas_sensor_initialization_errors=0; // Keeps track (by bit) of errors we've encountered.
    1264:	10 92 8b 04 	sts	0x048B, r1	; 0x80048b <gas_sensor_initialization_errors>
	gas_sensor_operational_errors=0;  // Keeps track (by bit) of errors we've encountered.
    1268:	10 92 47 04 	sts	0x0447, r1	; 0x800447 <gas_sensor_operational_errors>
	// Get the upper and lower boundaries on the gas sensors...
	// The first cal is just to test the EEPROM code
	get_gas_sensor_limits_from_EEPROM();
    126c:	bf df       	rcall	.-130    	; 0x11ec <get_gas_sensor_limits_from_EEPROM>
	// This second cal is temporary and simply initializes the array to usable values...
	get_gas_sensor_limits();
    126e:	aa df       	rcall	.-172    	; 0x11c4 <get_gas_sensor_limits>
	//
	// Enable the ADC
	SetBit(ADCSRA, ADEN);
    1270:	ea e7       	ldi	r30, 0x7A	; 122
    1272:	f0 e0       	ldi	r31, 0x00	; 0
    1274:	80 81       	ld	r24, Z
    1276:	80 68       	ori	r24, 0x80	; 128
    1278:	80 83       	st	Z, r24
	//	
	//Read initial value from the sensors
	for(sensor_id = 0; sensor_id < 5; sensor_id++)
    127a:	19 82       	std	Y+1, r1	; 0x01
    127c:	89 81       	ldd	r24, Y+1	; 0x01
    127e:	85 30       	cpi	r24, 0x05	; 5
    1280:	08 f0       	brcs	.+2      	; 0x1284 <gas_sensors_init+0x3a>
    1282:	52 c0       	rjmp	.+164    	; 0x1328 <gas_sensors_init+0xde>
	{
		ADC_SetMux(sensor_id);
		// Start conversion
		SetBit(ADCSRA, ADSC);
    1284:	0a e7       	ldi	r16, 0x7A	; 122
    1286:	10 e0       	ldi	r17, 0x00	; 0
		while (BitIsClear(ADCSRA, ADIF))
		{
			// Wait for conversion to be complete
		}
		// Read result
		ADC_result = ADC;
    1288:	0f 2e       	mov	r0, r31
    128a:	f8 e7       	ldi	r31, 0x78	; 120
    128c:	ef 2e       	mov	r14, r31
    128e:	f1 2c       	mov	r15, r1
    1290:	f0 2d       	mov	r31, r0
		// sen0 = ADC_result;
		// Test the reading to ensure it is within acceptable boundaries
		if ((ADC_result < gas_sensor_boundaries[sensor_id][0])|(ADC_result > gas_sensor_boundaries[sensor_id][1]))
    1292:	bb 24       	eor	r11, r11
    1294:	b3 94       	inc	r11
    1296:	a1 2c       	mov	r10, r1
		{
			SetBit(gas_sensor_initialization_errors,(sensor_id+3));  // If not, report an error
    1298:	cc 24       	eor	r12, r12
    129a:	c3 94       	inc	r12
    129c:	d1 2c       	mov	r13, r1
	SetBit(ADCSRA, ADEN);
	//	
	//Read initial value from the sensors
	for(sensor_id = 0; sensor_id < 5; sensor_id++)
	{
		ADC_SetMux(sensor_id);
    129e:	89 81       	ldd	r24, Y+1	; 0x01
    12a0:	0e 94 b8 00 	call	0x170	; 0x170 <ADC_SetMux>
		// Start conversion
		SetBit(ADCSRA, ADSC);
    12a4:	f8 01       	movw	r30, r16
    12a6:	80 81       	ld	r24, Z
    12a8:	80 64       	ori	r24, 0x40	; 64
    12aa:	80 83       	st	Z, r24
		while (BitIsClear(ADCSRA, ADIF))
    12ac:	f8 01       	movw	r30, r16
    12ae:	80 81       	ld	r24, Z
    12b0:	84 ff       	sbrs	r24, 4
    12b2:	fc cf       	rjmp	.-8      	; 0x12ac <gas_sensors_init+0x62>
		{
			// Wait for conversion to be complete
		}
		// Read result
		ADC_result = ADC;
    12b4:	f7 01       	movw	r30, r14
    12b6:	80 81       	ld	r24, Z
    12b8:	91 81       	ldd	r25, Z+1	; 0x01
		// sen0 = ADC_result;
		// Test the reading to ensure it is within acceptable boundaries
		if ((ADC_result < gas_sensor_boundaries[sensor_id][0])|(ADC_result > gas_sensor_boundaries[sensor_id][1]))
    12ba:	e9 81       	ldd	r30, Y+1	; 0x01
    12bc:	f0 e0       	ldi	r31, 0x00	; 0
    12be:	ee 0f       	add	r30, r30
    12c0:	ff 1f       	adc	r31, r31
    12c2:	ee 0f       	add	r30, r30
    12c4:	ff 1f       	adc	r31, r31
    12c6:	ee 52       	subi	r30, 0x2E	; 46
    12c8:	fc 4f       	sbci	r31, 0xFC	; 252
    12ca:	20 81       	ld	r18, Z
    12cc:	31 81       	ldd	r19, Z+1	; 0x01
    12ce:	e9 81       	ldd	r30, Y+1	; 0x01
    12d0:	f0 e0       	ldi	r31, 0x00	; 0
    12d2:	ee 0f       	add	r30, r30
    12d4:	ff 1f       	adc	r31, r31
    12d6:	ee 0f       	add	r30, r30
    12d8:	ff 1f       	adc	r31, r31
    12da:	ee 52       	subi	r30, 0x2E	; 46
    12dc:	fc 4f       	sbci	r31, 0xFC	; 252
    12de:	62 81       	ldd	r22, Z+2	; 0x02
    12e0:	73 81       	ldd	r23, Z+3	; 0x03
    12e2:	4b 2d       	mov	r20, r11
    12e4:	68 17       	cp	r22, r24
    12e6:	79 07       	cpc	r23, r25
    12e8:	08 f0       	brcs	.+2      	; 0x12ec <gas_sensors_init+0xa2>
    12ea:	4a 2d       	mov	r20, r10
    12ec:	41 11       	cpse	r20, r1
    12ee:	07 c0       	rjmp	.+14     	; 0x12fe <gas_sensors_init+0xb4>
    12f0:	4b 2d       	mov	r20, r11
    12f2:	82 17       	cp	r24, r18
    12f4:	93 07       	cpc	r25, r19
    12f6:	08 f0       	brcs	.+2      	; 0x12fa <gas_sensors_init+0xb0>
    12f8:	4a 2d       	mov	r20, r10
    12fa:	44 23       	and	r20, r20
    12fc:	71 f0       	breq	.+28     	; 0x131a <gas_sensors_init+0xd0>
		{
			SetBit(gas_sensor_initialization_errors,(sensor_id+3));  // If not, report an error
    12fe:	99 81       	ldd	r25, Y+1	; 0x01
    1300:	20 91 8b 04 	lds	r18, 0x048B	; 0x80048b <gas_sensor_initialization_errors>
    1304:	9d 5f       	subi	r25, 0xFD	; 253
    1306:	a6 01       	movw	r20, r12
    1308:	02 c0       	rjmp	.+4      	; 0x130e <gas_sensors_init+0xc4>
    130a:	44 0f       	add	r20, r20
    130c:	55 1f       	adc	r21, r21
    130e:	9a 95       	dec	r25
    1310:	e2 f7       	brpl	.-8      	; 0x130a <gas_sensors_init+0xc0>
    1312:	ca 01       	movw	r24, r20
    1314:	82 2b       	or	r24, r18
    1316:	80 93 8b 04 	sts	0x048B, r24	; 0x80048b <gas_sensor_initialization_errors>
	//
	// Enable the ADC
	SetBit(ADCSRA, ADEN);
	//	
	//Read initial value from the sensors
	for(sensor_id = 0; sensor_id < 5; sensor_id++)
    131a:	89 81       	ldd	r24, Y+1	; 0x01
    131c:	8f 5f       	subi	r24, 0xFF	; 255
    131e:	89 83       	std	Y+1, r24	; 0x01
    1320:	89 81       	ldd	r24, Y+1	; 0x01
    1322:	85 30       	cpi	r24, 0x05	; 5
    1324:	08 f4       	brcc	.+2      	; 0x1328 <gas_sensors_init+0xde>
    1326:	bb cf       	rjmp	.-138    	; 0x129e <gas_sensors_init+0x54>
		if ((ADC_result < gas_sensor_boundaries[sensor_id][0])|(ADC_result > gas_sensor_boundaries[sensor_id][1]))
		{
			SetBit(gas_sensor_initialization_errors,(sensor_id+3));  // If not, report an error
		}		
	}
	ClearBit(ADCSRA, ADEN);  //Disable the ADC until we go operational
    1328:	ea e7       	ldi	r30, 0x7A	; 122
    132a:	f0 e0       	ldi	r31, 0x00	; 0
    132c:	80 81       	ld	r24, Z
    132e:	8f 77       	andi	r24, 0x7F	; 127
    1330:	80 83       	st	Z, r24
	// Report status via the LED that the gas sensors are ready (or not)
	//display_status(gas_sensors, gas_sensor_initialization_errors);
}
    1332:	0f 90       	pop	r0
    1334:	df 91       	pop	r29
    1336:	cf 91       	pop	r28
    1338:	1f 91       	pop	r17
    133a:	0f 91       	pop	r16
    133c:	ff 90       	pop	r15
    133e:	ef 90       	pop	r14
    1340:	df 90       	pop	r13
    1342:	cf 90       	pop	r12
    1344:	bf 90       	pop	r11
    1346:	af 90       	pop	r10
    1348:	08 95       	ret

0000134a <start_gas_sensor_read>:

void start_gas_sensor_read(void)
{
    134a:	8f 92       	push	r8
    134c:	9f 92       	push	r9
    134e:	af 92       	push	r10
    1350:	bf 92       	push	r11
    1352:	cf 92       	push	r12
    1354:	df 92       	push	r13
    1356:	ef 92       	push	r14
    1358:	ff 92       	push	r15
    135a:	0f 93       	push	r16
    135c:	1f 93       	push	r17
    135e:	cf 93       	push	r28
    1360:	df 93       	push	r29
    1362:	00 d0       	rcall	.+0      	; 0x1364 <start_gas_sensor_read+0x1a>
    1364:	1f 92       	push	r1
    1366:	cd b7       	in	r28, 0x3d	; 61
    1368:	de b7       	in	r29, 0x3e	; 62
	int16_t ADC_result;
	volatile int16_t total;
	int16_t gas_average;
	//
	// Enable the ADC
	SetBit(ADCSRA, ADEN);
    136a:	ea e7       	ldi	r30, 0x7A	; 122
    136c:	f0 e0       	ldi	r31, 0x00	; 0
    136e:	80 81       	ld	r24, Z
    1370:	80 68       	ori	r24, 0x80	; 128
    1372:	80 83       	st	Z, r24
	//Read initial value from the sensors
	for(sensor_id = 0; sensor_id < 5; sensor_id++)
    1374:	19 82       	std	Y+1, r1	; 0x01
    1376:	89 81       	ldd	r24, Y+1	; 0x01
    1378:	85 30       	cpi	r24, 0x05	; 5
    137a:	08 f0       	brcs	.+2      	; 0x137e <start_gas_sensor_read+0x34>
    137c:	77 c0       	rjmp	.+238    	; 0x146c <start_gas_sensor_read+0x122>
	{
		ADC_SetMux(sensor_id);
		total = 0;	// re-zero the average
    137e:	68 94       	set
    1380:	88 24       	eor	r8, r8
    1382:	82 f8       	bld	r8, 2
    1384:	91 2c       	mov	r9, r1
		
		for(int i = 0; i < max_gas_sample_count; i++)
		{
			// Start conversion
			SetBit(ADCSRA, ADSC);
    1386:	0a e7       	ldi	r16, 0x7A	; 122
    1388:	10 e0       	ldi	r17, 0x00	; 0
			{
				// Wait for conversion to be complete
				// NOTE: In production version, we should wait for the interrupt and process in the background
			}
			// Read result
			ADC_result = ADC;
    138a:	0f 2e       	mov	r0, r31
    138c:	f8 e7       	ldi	r31, 0x78	; 120
    138e:	ef 2e       	mov	r14, r31
    1390:	f1 2c       	mov	r15, r1
    1392:	f0 2d       	mov	r31, r0
			// Test the reading to ensure it is within acceptable boundaries
			if ((ADC_result < gas_sensor_boundaries[sensor_id][0])|(ADC_result > gas_sensor_boundaries[sensor_id][1]))
			{
				SetBit(gas_sensor_initialization_errors,(sensor_id+3));  // If not, report an error
    1394:	cc 24       	eor	r12, r12
    1396:	c3 94       	inc	r12
    1398:	d1 2c       	mov	r13, r1
				// NOTE: In production version, we should wait for the interrupt and process in the background
			}
			// Read result
			ADC_result = ADC;
			// Test the reading to ensure it is within acceptable boundaries
			if ((ADC_result < gas_sensor_boundaries[sensor_id][0])|(ADC_result > gas_sensor_boundaries[sensor_id][1]))
    139a:	bb 24       	eor	r11, r11
    139c:	b3 94       	inc	r11
    139e:	a1 2c       	mov	r10, r1
	// Enable the ADC
	SetBit(ADCSRA, ADEN);
	//Read initial value from the sensors
	for(sensor_id = 0; sensor_id < 5; sensor_id++)
	{
		ADC_SetMux(sensor_id);
    13a0:	89 81       	ldd	r24, Y+1	; 0x01
    13a2:	0e 94 b8 00 	call	0x170	; 0x170 <ADC_SetMux>
		total = 0;	// re-zero the average
    13a6:	1b 82       	std	Y+3, r1	; 0x03
    13a8:	1a 82       	std	Y+2, r1	; 0x02
    13aa:	28 2d       	mov	r18, r8
    13ac:	39 2d       	mov	r19, r9
		
		for(int i = 0; i < max_gas_sample_count; i++)
		{
			// Start conversion
			SetBit(ADCSRA, ADSC);
    13ae:	f8 01       	movw	r30, r16
    13b0:	80 81       	ld	r24, Z
    13b2:	80 64       	ori	r24, 0x40	; 64
    13b4:	80 83       	st	Z, r24
			while (BitIsClear(ADCSRA, ADIF))
    13b6:	f8 01       	movw	r30, r16
    13b8:	80 81       	ld	r24, Z
    13ba:	84 ff       	sbrs	r24, 4
    13bc:	fc cf       	rjmp	.-8      	; 0x13b6 <start_gas_sensor_read+0x6c>
			{
				// Wait for conversion to be complete
				// NOTE: In production version, we should wait for the interrupt and process in the background
			}
			// Read result
			ADC_result = ADC;
    13be:	f7 01       	movw	r30, r14
    13c0:	80 81       	ld	r24, Z
    13c2:	91 81       	ldd	r25, Z+1	; 0x01
			// Test the reading to ensure it is within acceptable boundaries
			if ((ADC_result < gas_sensor_boundaries[sensor_id][0])|(ADC_result > gas_sensor_boundaries[sensor_id][1]))
    13c4:	e9 81       	ldd	r30, Y+1	; 0x01
    13c6:	f0 e0       	ldi	r31, 0x00	; 0
    13c8:	ee 0f       	add	r30, r30
    13ca:	ff 1f       	adc	r31, r31
    13cc:	ee 0f       	add	r30, r30
    13ce:	ff 1f       	adc	r31, r31
    13d0:	ee 52       	subi	r30, 0x2E	; 46
    13d2:	fc 4f       	sbci	r31, 0xFC	; 252
    13d4:	40 81       	ld	r20, Z
    13d6:	51 81       	ldd	r21, Z+1	; 0x01
    13d8:	e9 81       	ldd	r30, Y+1	; 0x01
    13da:	f0 e0       	ldi	r31, 0x00	; 0
    13dc:	ee 0f       	add	r30, r30
    13de:	ff 1f       	adc	r31, r31
    13e0:	ee 0f       	add	r30, r30
    13e2:	ff 1f       	adc	r31, r31
    13e4:	ee 52       	subi	r30, 0x2E	; 46
    13e6:	fc 4f       	sbci	r31, 0xFC	; 252
    13e8:	62 81       	ldd	r22, Z+2	; 0x02
    13ea:	73 81       	ldd	r23, Z+3	; 0x03
    13ec:	eb 2d       	mov	r30, r11
    13ee:	68 17       	cp	r22, r24
    13f0:	79 07       	cpc	r23, r25
    13f2:	08 f0       	brcs	.+2      	; 0x13f6 <start_gas_sensor_read+0xac>
    13f4:	ea 2d       	mov	r30, r10
    13f6:	e1 11       	cpse	r30, r1
    13f8:	07 c0       	rjmp	.+14     	; 0x1408 <start_gas_sensor_read+0xbe>
    13fa:	6b 2d       	mov	r22, r11
    13fc:	84 17       	cp	r24, r20
    13fe:	95 07       	cpc	r25, r21
    1400:	08 f0       	brcs	.+2      	; 0x1404 <start_gas_sensor_read+0xba>
    1402:	6a 2d       	mov	r22, r10
    1404:	66 23       	and	r22, r22
    1406:	71 f0       	breq	.+28     	; 0x1424 <start_gas_sensor_read+0xda>
			{
				SetBit(gas_sensor_initialization_errors,(sensor_id+3));  // If not, report an error
    1408:	59 81       	ldd	r21, Y+1	; 0x01
    140a:	60 91 8b 04 	lds	r22, 0x048B	; 0x80048b <gas_sensor_initialization_errors>
    140e:	5d 5f       	subi	r21, 0xFD	; 253
    1410:	f6 01       	movw	r30, r12
    1412:	02 c0       	rjmp	.+4      	; 0x1418 <start_gas_sensor_read+0xce>
    1414:	ee 0f       	add	r30, r30
    1416:	ff 1f       	adc	r31, r31
    1418:	5a 95       	dec	r21
    141a:	e2 f7       	brpl	.-8      	; 0x1414 <start_gas_sensor_read+0xca>
    141c:	af 01       	movw	r20, r30
    141e:	46 2b       	or	r20, r22
    1420:	40 93 8b 04 	sts	0x048B, r20	; 0x80048b <gas_sensor_initialization_errors>
			}
			total += ADC_result;
    1424:	4a 81       	ldd	r20, Y+2	; 0x02
    1426:	5b 81       	ldd	r21, Y+3	; 0x03
    1428:	84 0f       	add	r24, r20
    142a:	95 1f       	adc	r25, r21
    142c:	9b 83       	std	Y+3, r25	; 0x03
    142e:	8a 83       	std	Y+2, r24	; 0x02
    1430:	21 50       	subi	r18, 0x01	; 1
    1432:	31 09       	sbc	r19, r1
	for(sensor_id = 0; sensor_id < 5; sensor_id++)
	{
		ADC_SetMux(sensor_id);
		total = 0;	// re-zero the average
		
		for(int i = 0; i < max_gas_sample_count; i++)
    1434:	09 f0       	breq	.+2      	; 0x1438 <start_gas_sensor_read+0xee>
    1436:	bb cf       	rjmp	.-138    	; 0x13ae <start_gas_sensor_read+0x64>
			{
				SetBit(gas_sensor_initialization_errors,(sensor_id+3));  // If not, report an error
			}
			total += ADC_result;
		}
		gas_average = total / max_gas_sample_count;
    1438:	8a 81       	ldd	r24, Y+2	; 0x02
    143a:	9b 81       	ldd	r25, Y+3	; 0x03
		raw_gas_vector[sensor_id] = gas_average;
    143c:	e9 81       	ldd	r30, Y+1	; 0x01
    143e:	f0 e0       	ldi	r31, 0x00	; 0
    1440:	ee 0f       	add	r30, r30
    1442:	ff 1f       	adc	r31, r31
    1444:	e8 5b       	subi	r30, 0xB8	; 184
    1446:	fb 4f       	sbci	r31, 0xFB	; 251
			{
				SetBit(gas_sensor_initialization_errors,(sensor_id+3));  // If not, report an error
			}
			total += ADC_result;
		}
		gas_average = total / max_gas_sample_count;
    1448:	9c 01       	movw	r18, r24
    144a:	99 23       	and	r25, r25
    144c:	14 f4       	brge	.+4      	; 0x1452 <start_gas_sensor_read+0x108>
    144e:	2d 5f       	subi	r18, 0xFD	; 253
    1450:	3f 4f       	sbci	r19, 0xFF	; 255
    1452:	35 95       	asr	r19
    1454:	27 95       	ror	r18
    1456:	35 95       	asr	r19
    1458:	27 95       	ror	r18
		raw_gas_vector[sensor_id] = gas_average;
    145a:	31 83       	std	Z+1, r19	; 0x01
    145c:	20 83       	st	Z, r18
	int16_t gas_average;
	//
	// Enable the ADC
	SetBit(ADCSRA, ADEN);
	//Read initial value from the sensors
	for(sensor_id = 0; sensor_id < 5; sensor_id++)
    145e:	89 81       	ldd	r24, Y+1	; 0x01
    1460:	8f 5f       	subi	r24, 0xFF	; 255
    1462:	89 83       	std	Y+1, r24	; 0x01
    1464:	89 81       	ldd	r24, Y+1	; 0x01
    1466:	85 30       	cpi	r24, 0x05	; 5
    1468:	08 f4       	brcc	.+2      	; 0x146c <start_gas_sensor_read+0x122>
    146a:	9a cf       	rjmp	.-204    	; 0x13a0 <start_gas_sensor_read+0x56>
			total += ADC_result;
		}
		gas_average = total / max_gas_sample_count;
		raw_gas_vector[sensor_id] = gas_average;
	}
}
    146c:	0f 90       	pop	r0
    146e:	0f 90       	pop	r0
    1470:	0f 90       	pop	r0
    1472:	df 91       	pop	r29
    1474:	cf 91       	pop	r28
    1476:	1f 91       	pop	r17
    1478:	0f 91       	pop	r16
    147a:	ff 90       	pop	r15
    147c:	ef 90       	pop	r14
    147e:	df 90       	pop	r13
    1480:	cf 90       	pop	r12
    1482:	bf 90       	pop	r11
    1484:	af 90       	pop	r10
    1486:	9f 90       	pop	r9
    1488:	8f 90       	pop	r8
    148a:	08 95       	ret

0000148c <binary_search>:

void binary_search(int array[], int top, int bottom, int number) //return value directly above & below number
{
    148c:	cf 93       	push	r28
    148e:	df 93       	push	r29
	if ((number > array[top]) && (number < array[bottom]))
    1490:	fb 01       	movw	r30, r22
    1492:	ee 0f       	add	r30, r30
    1494:	ff 1f       	adc	r31, r31
    1496:	e8 0f       	add	r30, r24
    1498:	f9 1f       	adc	r31, r25
    149a:	01 90       	ld	r0, Z+
    149c:	f0 81       	ld	r31, Z
    149e:	e0 2d       	mov	r30, r0
    14a0:	e2 17       	cp	r30, r18
    14a2:	f3 07       	cpc	r31, r19
    14a4:	cc f5       	brge	.+114    	; 0x1518 <binary_search+0x8c>
    14a6:	fa 01       	movw	r30, r20
    14a8:	ee 0f       	add	r30, r30
    14aa:	ff 1f       	adc	r31, r31
    14ac:	e8 0f       	add	r30, r24
    14ae:	f9 1f       	adc	r31, r25
    14b0:	01 90       	ld	r0, Z+
    14b2:	f0 81       	ld	r31, Z
    14b4:	e0 2d       	mov	r30, r0
    14b6:	2e 17       	cp	r18, r30
    14b8:	3f 07       	cpc	r19, r31
    14ba:	74 f5       	brge	.+92     	; 0x1518 <binary_search+0x8c>
	{
		int mid = bottom + (top - bottom)/2;
    14bc:	db 01       	movw	r26, r22
    14be:	a4 1b       	sub	r26, r20
    14c0:	b5 0b       	sbc	r27, r21
    14c2:	fd 01       	movw	r30, r26
    14c4:	0a f4       	brpl	.+2      	; 0x14c8 <binary_search+0x3c>
    14c6:	31 96       	adiw	r30, 0x01	; 1
    14c8:	f5 95       	asr	r31
    14ca:	e7 95       	ror	r30
    14cc:	e4 0f       	add	r30, r20
    14ce:	f5 1f       	adc	r31, r21
		
		// If the element is closest to the middle
		if (number >= array[mid] && number <= array [mid + 1])
    14d0:	df 01       	movw	r26, r30
    14d2:	aa 0f       	add	r26, r26
    14d4:	bb 1f       	adc	r27, r27
    14d6:	ec 01       	movw	r28, r24
    14d8:	ca 0f       	add	r28, r26
    14da:	db 1f       	adc	r29, r27
    14dc:	09 90       	ld	r0, Y+
    14de:	d8 81       	ld	r29, Y
    14e0:	c0 2d       	mov	r28, r0
    14e2:	2c 17       	cp	r18, r28
    14e4:	3d 07       	cpc	r19, r29
    14e6:	8c f0       	brlt	.+34     	; 0x150a <binary_search+0x7e>
    14e8:	a8 0f       	add	r26, r24
    14ea:	b9 1f       	adc	r27, r25
    14ec:	12 96       	adiw	r26, 0x02	; 2
    14ee:	4d 91       	ld	r20, X+
    14f0:	5c 91       	ld	r21, X
    14f2:	13 97       	sbiw	r26, 0x03	; 3
    14f4:	42 17       	cp	r20, r18
    14f6:	53 07       	cpc	r21, r19
    14f8:	5c f0       	brlt	.+22     	; 0x1510 <binary_search+0x84>
		{
			valueOfIndex = mid + 1;
    14fa:	af 01       	movw	r20, r30
    14fc:	4f 5f       	subi	r20, 0xFF	; 255
    14fe:	5f 4f       	sbci	r21, 0xFF	; 255
    1500:	50 93 c2 04 	sts	0x04C2, r21	; 0x8004c2 <valueOfIndex+0x1>
    1504:	40 93 c1 04 	sts	0x04C1, r20	; 0x8004c1 <valueOfIndex>
    1508:	03 c0       	rjmp	.+6      	; 0x1510 <binary_search+0x84>
		}
		//
		// If element is smaller than mid, then
		// it can only be present in left subarray
		else if (number < array[mid])
		return binary_search(array, mid, bottom, number);
    150a:	bf 01       	movw	r22, r30
    150c:	bf df       	rcall	.-130    	; 0x148c <binary_search>
    150e:	04 c0       	rjmp	.+8      	; 0x1518 <binary_search+0x8c>
		
		// Else the element can only be present
		// in right subarray
		return binary_search(array, top, mid+1, number);
    1510:	af 01       	movw	r20, r30
    1512:	4f 5f       	subi	r20, 0xFF	; 255
    1514:	5f 4f       	sbci	r21, 0xFF	; 255
    1516:	ba df       	rcall	.-140    	; 0x148c <binary_search>
		return;
	}
	// We reach here when element is not
	// present in array
	//printf('value not in array');
}
    1518:	df 91       	pop	r29
    151a:	cf 91       	pop	r28
    151c:	08 95       	ret

0000151e <convert_to_ppm>:

void convert_to_ppm(uint8_t sensor_id)
{
    151e:	2f 92       	push	r2
    1520:	3f 92       	push	r3
    1522:	4f 92       	push	r4
    1524:	5f 92       	push	r5
    1526:	6f 92       	push	r6
    1528:	7f 92       	push	r7
    152a:	8f 92       	push	r8
    152c:	9f 92       	push	r9
    152e:	af 92       	push	r10
    1530:	bf 92       	push	r11
    1532:	cf 92       	push	r12
    1534:	df 92       	push	r13
    1536:	ef 92       	push	r14
    1538:	ff 92       	push	r15
    153a:	0f 93       	push	r16
    153c:	1f 93       	push	r17
    153e:	cf 93       	push	r28
    1540:	df 93       	push	r29
    1542:	cd b7       	in	r28, 0x3d	; 61
    1544:	de b7       	in	r29, 0x3e	; 62
    1546:	c9 51       	subi	r28, 0x19	; 25
    1548:	dc 40       	sbci	r29, 0x0C	; 12
    154a:	0f b6       	in	r0, 0x3f	; 63
    154c:	f8 94       	cli
    154e:	de bf       	out	0x3e, r29	; 62
    1550:	0f be       	out	0x3f, r0	; 63
    1552:	cd bf       	out	0x3d, r28	; 61
    1554:	c7 5e       	subi	r28, 0xE7	; 231
    1556:	d3 4f       	sbci	r29, 0xF3	; 243
    1558:	88 83       	st	Y, r24
    155a:	c9 51       	subi	r28, 0x19	; 25
    155c:	dc 40       	sbci	r29, 0x0C	; 12
	int VALS_TO_MULTIPLY[6] = {9, 6, 10, 8, 7}; // values for multiplication
    155e:	fe 01       	movw	r30, r28
    1560:	31 96       	adiw	r30, 0x01	; 1
    1562:	8c e0       	ldi	r24, 0x0C	; 12
    1564:	df 01       	movw	r26, r30
    1566:	1d 92       	st	X+, r1
    1568:	8a 95       	dec	r24
    156a:	e9 f7       	brne	.-6      	; 0x1566 <convert_to_ppm+0x48>
    156c:	0f 2e       	mov	r0, r31
    156e:	f9 e0       	ldi	r31, 0x09	; 9
    1570:	ef 2e       	mov	r14, r31
    1572:	f1 2c       	mov	r15, r1
    1574:	f0 2d       	mov	r31, r0
    1576:	fa 82       	std	Y+2, r15	; 0x02
    1578:	e9 82       	std	Y+1, r14	; 0x01
    157a:	86 e0       	ldi	r24, 0x06	; 6
    157c:	90 e0       	ldi	r25, 0x00	; 0
    157e:	9c 83       	std	Y+4, r25	; 0x04
    1580:	8b 83       	std	Y+3, r24	; 0x03
    1582:	8a e0       	ldi	r24, 0x0A	; 10
    1584:	90 e0       	ldi	r25, 0x00	; 0
    1586:	9e 83       	std	Y+6, r25	; 0x06
    1588:	8d 83       	std	Y+5, r24	; 0x05
    158a:	88 e0       	ldi	r24, 0x08	; 8
    158c:	90 e0       	ldi	r25, 0x00	; 0
    158e:	98 87       	std	Y+8, r25	; 0x08
    1590:	8f 83       	std	Y+7, r24	; 0x07
    1592:	87 e0       	ldi	r24, 0x07	; 7
    1594:	90 e0       	ldi	r25, 0x00	; 0
    1596:	9a 87       	std	Y+10, r25	; 0x0a
    1598:	89 87       	std	Y+9, r24	; 0x09
	int R0_VALS_GAS_SENSORS[6] = {381, 508, 308, 405, 38, 0}; //all R0 values. We may have a 6th sensor but it is currently not in existence
    159a:	8c e0       	ldi	r24, 0x0C	; 12
    159c:	e1 e1       	ldi	r30, 0x11	; 17
    159e:	f1 e0       	ldi	r31, 0x01	; 1
    15a0:	de 01       	movw	r26, r28
    15a2:	1d 96       	adiw	r26, 0x0d	; 13
    15a4:	01 90       	ld	r0, Z+
    15a6:	0d 92       	st	X+, r0
    15a8:	8a 95       	dec	r24
    15aa:	e1 f7       	brne	.-8      	; 0x15a4 <convert_to_ppm+0x86>
	int R0_RATIOS_CO[6][2][128] = {
    15ac:	fe 01       	movw	r30, r28
    15ae:	79 96       	adiw	r30, 0x19	; 25
    15b0:	80 e0       	ldi	r24, 0x00	; 0
    15b2:	9c e0       	ldi	r25, 0x0C	; 12
    15b4:	df 01       	movw	r26, r30
    15b6:	8c 01       	movw	r16, r24
    15b8:	1d 92       	st	X+, r1
    15ba:	01 50       	subi	r16, 0x01	; 1
    15bc:	10 40       	sbci	r17, 0x00	; 0
    15be:	e1 f7       	brne	.-8      	; 0x15b8 <convert_to_ppm+0x9a>
    15c0:	86 ed       	ldi	r24, 0xD6	; 214
    15c2:	9d e2       	ldi	r25, 0x2D	; 45
    15c4:	9a 8f       	std	Y+26, r25	; 0x1a
    15c6:	89 8f       	std	Y+25, r24	; 0x19
    15c8:	84 e4       	ldi	r24, 0x44	; 68
    15ca:	9f e0       	ldi	r25, 0x0F	; 15
    15cc:	9c 8f       	std	Y+28, r25	; 0x1c
    15ce:	8b 8f       	std	Y+27, r24	; 0x1b
    15d0:	88 e3       	ldi	r24, 0x38	; 56
    15d2:	9a e0       	ldi	r25, 0x0A	; 10
    15d4:	9e 8f       	std	Y+30, r25	; 0x1e
    15d6:	8d 8f       	std	Y+29, r24	; 0x1d
    15d8:	83 ef       	ldi	r24, 0xF3	; 243
    15da:	97 e0       	ldi	r25, 0x07	; 7
    15dc:	98 a3       	std	Y+32, r25	; 0x20
    15de:	8f 8f       	std	Y+31, r24	; 0x1f
    15e0:	8e e9       	ldi	r24, 0x9E	; 158
    15e2:	96 e0       	ldi	r25, 0x06	; 6
    15e4:	9a a3       	std	Y+34, r25	; 0x22
    15e6:	89 a3       	std	Y+33, r24	; 0x21
    15e8:	8a eb       	ldi	r24, 0xBA	; 186
    15ea:	95 e0       	ldi	r25, 0x05	; 5
    15ec:	9c a3       	std	Y+36, r25	; 0x24
    15ee:	8b a3       	std	Y+35, r24	; 0x23
    15f0:	85 e1       	ldi	r24, 0x15	; 21
    15f2:	95 e0       	ldi	r25, 0x05	; 5
    15f4:	9e a3       	std	Y+38, r25	; 0x26
    15f6:	8d a3       	std	Y+37, r24	; 0x25
    15f8:	88 e9       	ldi	r24, 0x98	; 152
    15fa:	94 e0       	ldi	r25, 0x04	; 4
    15fc:	98 a7       	std	Y+40, r25	; 0x28
    15fe:	8f a3       	std	Y+39, r24	; 0x27
    1600:	85 e3       	ldi	r24, 0x35	; 53
    1602:	94 e0       	ldi	r25, 0x04	; 4
    1604:	9a a7       	std	Y+42, r25	; 0x2a
    1606:	89 a7       	std	Y+41, r24	; 0x29
    1608:	84 ee       	ldi	r24, 0xE4	; 228
    160a:	93 e0       	ldi	r25, 0x03	; 3
    160c:	9c a7       	std	Y+44, r25	; 0x2c
    160e:	8b a7       	std	Y+43, r24	; 0x2b
    1610:	80 ea       	ldi	r24, 0xA0	; 160
    1612:	93 e0       	ldi	r25, 0x03	; 3
    1614:	9e a7       	std	Y+46, r25	; 0x2e
    1616:	8d a7       	std	Y+45, r24	; 0x2d
    1618:	87 e6       	ldi	r24, 0x67	; 103
    161a:	93 e0       	ldi	r25, 0x03	; 3
    161c:	98 ab       	std	Y+48, r25	; 0x30
    161e:	8f a7       	std	Y+47, r24	; 0x2f
    1620:	86 e3       	ldi	r24, 0x36	; 54
    1622:	93 e0       	ldi	r25, 0x03	; 3
    1624:	9a ab       	std	Y+50, r25	; 0x32
    1626:	89 ab       	std	Y+49, r24	; 0x31
    1628:	8b e0       	ldi	r24, 0x0B	; 11
    162a:	93 e0       	ldi	r25, 0x03	; 3
    162c:	9c ab       	std	Y+52, r25	; 0x34
    162e:	8b ab       	std	Y+51, r24	; 0x33
    1630:	85 ee       	ldi	r24, 0xE5	; 229
    1632:	92 e0       	ldi	r25, 0x02	; 2
    1634:	9e ab       	std	Y+54, r25	; 0x36
    1636:	8d ab       	std	Y+53, r24	; 0x35
    1638:	83 ec       	ldi	r24, 0xC3	; 195
    163a:	92 e0       	ldi	r25, 0x02	; 2
    163c:	98 af       	std	Y+56, r25	; 0x38
    163e:	8f ab       	std	Y+55, r24	; 0x37
    1640:	85 ea       	ldi	r24, 0xA5	; 165
    1642:	92 e0       	ldi	r25, 0x02	; 2
    1644:	9a af       	std	Y+58, r25	; 0x3a
    1646:	89 af       	std	Y+57, r24	; 0x39
    1648:	8a e8       	ldi	r24, 0x8A	; 138
    164a:	92 e0       	ldi	r25, 0x02	; 2
    164c:	9c af       	std	Y+60, r25	; 0x3c
    164e:	8b af       	std	Y+59, r24	; 0x3b
    1650:	82 e7       	ldi	r24, 0x72	; 114
    1652:	92 e0       	ldi	r25, 0x02	; 2
    1654:	9e af       	std	Y+62, r25	; 0x3e
    1656:	8d af       	std	Y+61, r24	; 0x3d
    1658:	8b e5       	ldi	r24, 0x5B	; 91
    165a:	92 e0       	ldi	r25, 0x02	; 2
    165c:	21 96       	adiw	r28, 0x01	; 1
    165e:	9f af       	std	Y+63, r25	; 0x3f
    1660:	8e af       	std	Y+62, r24	; 0x3e
    1662:	21 97       	sbiw	r28, 0x01	; 1
    1664:	87 e4       	ldi	r24, 0x47	; 71
    1666:	92 e0       	ldi	r25, 0x02	; 2
    1668:	23 96       	adiw	r28, 0x03	; 3
    166a:	9f af       	std	Y+63, r25	; 0x3f
    166c:	8e af       	std	Y+62, r24	; 0x3e
    166e:	23 97       	sbiw	r28, 0x03	; 3
    1670:	84 e3       	ldi	r24, 0x34	; 52
    1672:	92 e0       	ldi	r25, 0x02	; 2
    1674:	25 96       	adiw	r28, 0x05	; 5
    1676:	9f af       	std	Y+63, r25	; 0x3f
    1678:	8e af       	std	Y+62, r24	; 0x3e
    167a:	25 97       	sbiw	r28, 0x05	; 5
    167c:	82 e2       	ldi	r24, 0x22	; 34
    167e:	92 e0       	ldi	r25, 0x02	; 2
    1680:	27 96       	adiw	r28, 0x07	; 7
    1682:	9f af       	std	Y+63, r25	; 0x3f
    1684:	8e af       	std	Y+62, r24	; 0x3e
    1686:	27 97       	sbiw	r28, 0x07	; 7
    1688:	82 e1       	ldi	r24, 0x12	; 18
    168a:	92 e0       	ldi	r25, 0x02	; 2
    168c:	29 96       	adiw	r28, 0x09	; 9
    168e:	9f af       	std	Y+63, r25	; 0x3f
    1690:	8e af       	std	Y+62, r24	; 0x3e
    1692:	29 97       	sbiw	r28, 0x09	; 9
    1694:	83 e0       	ldi	r24, 0x03	; 3
    1696:	92 e0       	ldi	r25, 0x02	; 2
    1698:	2b 96       	adiw	r28, 0x0b	; 11
    169a:	9f af       	std	Y+63, r25	; 0x3f
    169c:	8e af       	std	Y+62, r24	; 0x3e
    169e:	2b 97       	sbiw	r28, 0x0b	; 11
    16a0:	8c ef       	ldi	r24, 0xFC	; 252
    16a2:	91 e0       	ldi	r25, 0x01	; 1
    16a4:	2d 96       	adiw	r28, 0x0d	; 13
    16a6:	9f af       	std	Y+63, r25	; 0x3f
    16a8:	8e af       	std	Y+62, r24	; 0x3e
    16aa:	2d 97       	sbiw	r28, 0x0d	; 13
    16ac:	8e ee       	ldi	r24, 0xEE	; 238
    16ae:	91 e0       	ldi	r25, 0x01	; 1
    16b0:	2f 96       	adiw	r28, 0x0f	; 15
    16b2:	9f af       	std	Y+63, r25	; 0x3f
    16b4:	8e af       	std	Y+62, r24	; 0x3e
    16b6:	2f 97       	sbiw	r28, 0x0f	; 15
    16b8:	21 ee       	ldi	r18, 0xE1	; 225
    16ba:	31 e0       	ldi	r19, 0x01	; 1
    16bc:	61 96       	adiw	r28, 0x11	; 17
    16be:	3f af       	std	Y+63, r19	; 0x3f
    16c0:	2e af       	std	Y+62, r18	; 0x3e
    16c2:	61 97       	sbiw	r28, 0x11	; 17
    16c4:	45 ed       	ldi	r20, 0xD5	; 213
    16c6:	51 e0       	ldi	r21, 0x01	; 1
    16c8:	63 96       	adiw	r28, 0x13	; 19
    16ca:	5f af       	std	Y+63, r21	; 0x3f
    16cc:	4e af       	std	Y+62, r20	; 0x3e
    16ce:	63 97       	sbiw	r28, 0x13	; 19
    16d0:	69 ec       	ldi	r22, 0xC9	; 201
    16d2:	71 e0       	ldi	r23, 0x01	; 1
    16d4:	65 96       	adiw	r28, 0x15	; 21
    16d6:	7f af       	std	Y+63, r23	; 0x3f
    16d8:	6e af       	std	Y+62, r22	; 0x3e
    16da:	65 97       	sbiw	r28, 0x15	; 21
    16dc:	8e eb       	ldi	r24, 0xBE	; 190
    16de:	91 e0       	ldi	r25, 0x01	; 1
    16e0:	67 96       	adiw	r28, 0x17	; 23
    16e2:	9f af       	std	Y+63, r25	; 0x3f
    16e4:	8e af       	std	Y+62, r24	; 0x3e
    16e6:	67 97       	sbiw	r28, 0x17	; 23
    16e8:	84 eb       	ldi	r24, 0xB4	; 180
    16ea:	91 e0       	ldi	r25, 0x01	; 1
    16ec:	69 96       	adiw	r28, 0x19	; 25
    16ee:	9f af       	std	Y+63, r25	; 0x3f
    16f0:	8e af       	std	Y+62, r24	; 0x3e
    16f2:	69 97       	sbiw	r28, 0x19	; 25
    16f4:	8b ea       	ldi	r24, 0xAB	; 171
    16f6:	91 e0       	ldi	r25, 0x01	; 1
    16f8:	6b 96       	adiw	r28, 0x1b	; 27
    16fa:	9f af       	std	Y+63, r25	; 0x3f
    16fc:	8e af       	std	Y+62, r24	; 0x3e
    16fe:	6b 97       	sbiw	r28, 0x1b	; 27
    1700:	a1 ea       	ldi	r26, 0xA1	; 161
    1702:	b1 e0       	ldi	r27, 0x01	; 1
    1704:	6d 96       	adiw	r28, 0x1d	; 29
    1706:	bf af       	std	Y+63, r27	; 0x3f
    1708:	ae af       	std	Y+62, r26	; 0x3e
    170a:	6d 97       	sbiw	r28, 0x1d	; 29
    170c:	e9 e9       	ldi	r30, 0x99	; 153
    170e:	f1 e0       	ldi	r31, 0x01	; 1
    1710:	6f 96       	adiw	r28, 0x1f	; 31
    1712:	ff af       	std	Y+63, r31	; 0x3f
    1714:	ee af       	std	Y+62, r30	; 0x3e
    1716:	6f 97       	sbiw	r28, 0x1f	; 31
    1718:	80 e9       	ldi	r24, 0x90	; 144
    171a:	91 e0       	ldi	r25, 0x01	; 1
    171c:	a1 96       	adiw	r28, 0x21	; 33
    171e:	9f af       	std	Y+63, r25	; 0x3f
    1720:	8e af       	std	Y+62, r24	; 0x3e
    1722:	a1 97       	sbiw	r28, 0x21	; 33
    1724:	0f 2e       	mov	r0, r31
    1726:	f9 e8       	ldi	r31, 0x89	; 137
    1728:	cf 2e       	mov	r12, r31
    172a:	dd 24       	eor	r13, r13
    172c:	d3 94       	inc	r13
    172e:	f0 2d       	mov	r31, r0
    1730:	a3 96       	adiw	r28, 0x23	; 35
    1732:	df ae       	std	Y+63, r13	; 0x3f
    1734:	ce ae       	std	Y+62, r12	; 0x3e
    1736:	a3 97       	sbiw	r28, 0x23	; 35
    1738:	0f 2e       	mov	r0, r31
    173a:	f1 e8       	ldi	r31, 0x81	; 129
    173c:	2f 2e       	mov	r2, r31
    173e:	33 24       	eor	r3, r3
    1740:	33 94       	inc	r3
    1742:	f0 2d       	mov	r31, r0
    1744:	a5 96       	adiw	r28, 0x25	; 37
    1746:	3f ae       	std	Y+63, r3	; 0x3f
    1748:	2e ae       	std	Y+62, r2	; 0x3e
    174a:	a5 97       	sbiw	r28, 0x25	; 37
    174c:	8a e7       	ldi	r24, 0x7A	; 122
    174e:	91 e0       	ldi	r25, 0x01	; 1
    1750:	a7 96       	adiw	r28, 0x27	; 39
    1752:	9f af       	std	Y+63, r25	; 0x3f
    1754:	8e af       	std	Y+62, r24	; 0x3e
    1756:	a7 97       	sbiw	r28, 0x27	; 39
    1758:	83 e7       	ldi	r24, 0x73	; 115
    175a:	91 e0       	ldi	r25, 0x01	; 1
    175c:	a9 96       	adiw	r28, 0x29	; 41
    175e:	9f af       	std	Y+63, r25	; 0x3f
    1760:	8e af       	std	Y+62, r24	; 0x3e
    1762:	a9 97       	sbiw	r28, 0x29	; 41
    1764:	8c e6       	ldi	r24, 0x6C	; 108
    1766:	91 e0       	ldi	r25, 0x01	; 1
    1768:	ab 96       	adiw	r28, 0x2b	; 43
    176a:	9f af       	std	Y+63, r25	; 0x3f
    176c:	8e af       	std	Y+62, r24	; 0x3e
    176e:	ab 97       	sbiw	r28, 0x2b	; 43
    1770:	86 e6       	ldi	r24, 0x66	; 102
    1772:	91 e0       	ldi	r25, 0x01	; 1
    1774:	ad 96       	adiw	r28, 0x2d	; 45
    1776:	9f af       	std	Y+63, r25	; 0x3f
    1778:	8e af       	std	Y+62, r24	; 0x3e
    177a:	ad 97       	sbiw	r28, 0x2d	; 45
    177c:	80 e6       	ldi	r24, 0x60	; 96
    177e:	91 e0       	ldi	r25, 0x01	; 1
    1780:	af 96       	adiw	r28, 0x2f	; 47
    1782:	9f af       	std	Y+63, r25	; 0x3f
    1784:	8e af       	std	Y+62, r24	; 0x3e
    1786:	af 97       	sbiw	r28, 0x2f	; 47
    1788:	8a e5       	ldi	r24, 0x5A	; 90
    178a:	91 e0       	ldi	r25, 0x01	; 1
    178c:	e1 96       	adiw	r28, 0x31	; 49
    178e:	9f af       	std	Y+63, r25	; 0x3f
    1790:	8e af       	std	Y+62, r24	; 0x3e
    1792:	e1 97       	sbiw	r28, 0x31	; 49
    1794:	05 e5       	ldi	r16, 0x55	; 85
    1796:	11 e0       	ldi	r17, 0x01	; 1
    1798:	e3 96       	adiw	r28, 0x33	; 51
    179a:	1f af       	std	Y+63, r17	; 0x3f
    179c:	0e af       	std	Y+62, r16	; 0x3e
    179e:	e3 97       	sbiw	r28, 0x33	; 51
    17a0:	8f e4       	ldi	r24, 0x4F	; 79
    17a2:	91 e0       	ldi	r25, 0x01	; 1
    17a4:	e5 96       	adiw	r28, 0x35	; 53
    17a6:	9f af       	std	Y+63, r25	; 0x3f
    17a8:	8e af       	std	Y+62, r24	; 0x3e
    17aa:	e5 97       	sbiw	r28, 0x35	; 53
    17ac:	8a e4       	ldi	r24, 0x4A	; 74
    17ae:	91 e0       	ldi	r25, 0x01	; 1
    17b0:	e7 96       	adiw	r28, 0x37	; 55
    17b2:	9f af       	std	Y+63, r25	; 0x3f
    17b4:	8e af       	std	Y+62, r24	; 0x3e
    17b6:	e7 97       	sbiw	r28, 0x37	; 55
    17b8:	25 e4       	ldi	r18, 0x45	; 69
    17ba:	31 e0       	ldi	r19, 0x01	; 1
    17bc:	e9 96       	adiw	r28, 0x39	; 57
    17be:	3f af       	std	Y+63, r19	; 0x3f
    17c0:	2e af       	std	Y+62, r18	; 0x3e
    17c2:	e9 97       	sbiw	r28, 0x39	; 57
    17c4:	80 e4       	ldi	r24, 0x40	; 64
    17c6:	91 e0       	ldi	r25, 0x01	; 1
    17c8:	eb 96       	adiw	r28, 0x3b	; 59
    17ca:	9f af       	std	Y+63, r25	; 0x3f
    17cc:	8e af       	std	Y+62, r24	; 0x3e
    17ce:	eb 97       	sbiw	r28, 0x3b	; 59
    17d0:	8c e3       	ldi	r24, 0x3C	; 60
    17d2:	91 e0       	ldi	r25, 0x01	; 1
    17d4:	ed 96       	adiw	r28, 0x3d	; 61
    17d6:	9f af       	std	Y+63, r25	; 0x3f
    17d8:	8e af       	std	Y+62, r24	; 0x3e
    17da:	ed 97       	sbiw	r28, 0x3d	; 61
    17dc:	87 e3       	ldi	r24, 0x37	; 55
    17de:	91 e0       	ldi	r25, 0x01	; 1
    17e0:	ef 96       	adiw	r28, 0x3f	; 63
    17e2:	9f af       	std	Y+63, r25	; 0x3f
    17e4:	8e af       	std	Y+62, r24	; 0x3e
    17e6:	ef 97       	sbiw	r28, 0x3f	; 63
    17e8:	83 e3       	ldi	r24, 0x33	; 51
    17ea:	91 e0       	ldi	r25, 0x01	; 1
    17ec:	c1 58       	subi	r28, 0x81	; 129
    17ee:	df 4f       	sbci	r29, 0xFF	; 255
    17f0:	99 83       	std	Y+1, r25	; 0x01
    17f2:	88 83       	st	Y, r24
    17f4:	cf 57       	subi	r28, 0x7F	; 127
    17f6:	d0 40       	sbci	r29, 0x00	; 0
    17f8:	8f e2       	ldi	r24, 0x2F	; 47
    17fa:	91 e0       	ldi	r25, 0x01	; 1
    17fc:	cf 57       	subi	r28, 0x7F	; 127
    17fe:	df 4f       	sbci	r29, 0xFF	; 255
    1800:	99 83       	std	Y+1, r25	; 0x01
    1802:	88 83       	st	Y, r24
    1804:	c1 58       	subi	r28, 0x81	; 129
    1806:	d0 40       	sbci	r29, 0x00	; 0
    1808:	4b e2       	ldi	r20, 0x2B	; 43
    180a:	51 e0       	ldi	r21, 0x01	; 1
    180c:	cd 57       	subi	r28, 0x7D	; 125
    180e:	df 4f       	sbci	r29, 0xFF	; 255
    1810:	59 83       	std	Y+1, r21	; 0x01
    1812:	48 83       	st	Y, r20
    1814:	c3 58       	subi	r28, 0x83	; 131
    1816:	d0 40       	sbci	r29, 0x00	; 0
    1818:	87 e2       	ldi	r24, 0x27	; 39
    181a:	91 e0       	ldi	r25, 0x01	; 1
    181c:	cb 57       	subi	r28, 0x7B	; 123
    181e:	df 4f       	sbci	r29, 0xFF	; 255
    1820:	99 83       	std	Y+1, r25	; 0x01
    1822:	88 83       	st	Y, r24
    1824:	c5 58       	subi	r28, 0x85	; 133
    1826:	d0 40       	sbci	r29, 0x00	; 0
    1828:	63 e2       	ldi	r22, 0x23	; 35
    182a:	71 e0       	ldi	r23, 0x01	; 1
    182c:	c9 57       	subi	r28, 0x79	; 121
    182e:	df 4f       	sbci	r29, 0xFF	; 255
    1830:	79 83       	std	Y+1, r23	; 0x01
    1832:	68 83       	st	Y, r22
    1834:	c7 58       	subi	r28, 0x87	; 135
    1836:	d0 40       	sbci	r29, 0x00	; 0
    1838:	8f e1       	ldi	r24, 0x1F	; 31
    183a:	91 e0       	ldi	r25, 0x01	; 1
    183c:	c7 57       	subi	r28, 0x77	; 119
    183e:	df 4f       	sbci	r29, 0xFF	; 255
    1840:	99 83       	std	Y+1, r25	; 0x01
    1842:	88 83       	st	Y, r24
    1844:	c9 58       	subi	r28, 0x89	; 137
    1846:	d0 40       	sbci	r29, 0x00	; 0
    1848:	8c e1       	ldi	r24, 0x1C	; 28
    184a:	91 e0       	ldi	r25, 0x01	; 1
    184c:	c5 57       	subi	r28, 0x75	; 117
    184e:	df 4f       	sbci	r29, 0xFF	; 255
    1850:	99 83       	std	Y+1, r25	; 0x01
    1852:	88 83       	st	Y, r24
    1854:	cb 58       	subi	r28, 0x8B	; 139
    1856:	d0 40       	sbci	r29, 0x00	; 0
    1858:	88 e1       	ldi	r24, 0x18	; 24
    185a:	91 e0       	ldi	r25, 0x01	; 1
    185c:	c3 57       	subi	r28, 0x73	; 115
    185e:	df 4f       	sbci	r29, 0xFF	; 255
    1860:	99 83       	std	Y+1, r25	; 0x01
    1862:	88 83       	st	Y, r24
    1864:	cd 58       	subi	r28, 0x8D	; 141
    1866:	d0 40       	sbci	r29, 0x00	; 0
    1868:	85 e1       	ldi	r24, 0x15	; 21
    186a:	91 e0       	ldi	r25, 0x01	; 1
    186c:	c1 57       	subi	r28, 0x71	; 113
    186e:	df 4f       	sbci	r29, 0xFF	; 255
    1870:	99 83       	std	Y+1, r25	; 0x01
    1872:	88 83       	st	Y, r24
    1874:	cf 58       	subi	r28, 0x8F	; 143
    1876:	d0 40       	sbci	r29, 0x00	; 0
    1878:	a1 e1       	ldi	r26, 0x11	; 17
    187a:	b1 e0       	ldi	r27, 0x01	; 1
    187c:	cf 56       	subi	r28, 0x6F	; 111
    187e:	df 4f       	sbci	r29, 0xFF	; 255
    1880:	b9 83       	std	Y+1, r27	; 0x01
    1882:	a8 83       	st	Y, r26
    1884:	c1 59       	subi	r28, 0x91	; 145
    1886:	d0 40       	sbci	r29, 0x00	; 0
    1888:	8e e0       	ldi	r24, 0x0E	; 14
    188a:	91 e0       	ldi	r25, 0x01	; 1
    188c:	cd 56       	subi	r28, 0x6D	; 109
    188e:	df 4f       	sbci	r29, 0xFF	; 255
    1890:	99 83       	std	Y+1, r25	; 0x01
    1892:	88 83       	st	Y, r24
    1894:	c3 59       	subi	r28, 0x93	; 147
    1896:	d0 40       	sbci	r29, 0x00	; 0
    1898:	8b e0       	ldi	r24, 0x0B	; 11
    189a:	91 e0       	ldi	r25, 0x01	; 1
    189c:	cb 56       	subi	r28, 0x6B	; 107
    189e:	df 4f       	sbci	r29, 0xFF	; 255
    18a0:	99 83       	std	Y+1, r25	; 0x01
    18a2:	88 83       	st	Y, r24
    18a4:	c5 59       	subi	r28, 0x95	; 149
    18a6:	d0 40       	sbci	r29, 0x00	; 0
    18a8:	88 e0       	ldi	r24, 0x08	; 8
    18aa:	91 e0       	ldi	r25, 0x01	; 1
    18ac:	c9 56       	subi	r28, 0x69	; 105
    18ae:	df 4f       	sbci	r29, 0xFF	; 255
    18b0:	99 83       	std	Y+1, r25	; 0x01
    18b2:	88 83       	st	Y, r24
    18b4:	c7 59       	subi	r28, 0x97	; 151
    18b6:	d0 40       	sbci	r29, 0x00	; 0
    18b8:	0f 2e       	mov	r0, r31
    18ba:	f5 e0       	ldi	r31, 0x05	; 5
    18bc:	4f 2e       	mov	r4, r31
    18be:	55 24       	eor	r5, r5
    18c0:	53 94       	inc	r5
    18c2:	f0 2d       	mov	r31, r0
    18c4:	c7 56       	subi	r28, 0x67	; 103
    18c6:	df 4f       	sbci	r29, 0xFF	; 255
    18c8:	59 82       	std	Y+1, r5	; 0x01
    18ca:	48 82       	st	Y, r4
    18cc:	c9 59       	subi	r28, 0x99	; 153
    18ce:	d0 40       	sbci	r29, 0x00	; 0
    18d0:	82 e0       	ldi	r24, 0x02	; 2
    18d2:	91 e0       	ldi	r25, 0x01	; 1
    18d4:	c5 56       	subi	r28, 0x65	; 101
    18d6:	df 4f       	sbci	r29, 0xFF	; 255
    18d8:	99 83       	std	Y+1, r25	; 0x01
    18da:	88 83       	st	Y, r24
    18dc:	cb 59       	subi	r28, 0x9B	; 155
    18de:	d0 40       	sbci	r29, 0x00	; 0
    18e0:	80 e0       	ldi	r24, 0x00	; 0
    18e2:	91 e0       	ldi	r25, 0x01	; 1
    18e4:	c3 56       	subi	r28, 0x63	; 99
    18e6:	df 4f       	sbci	r29, 0xFF	; 255
    18e8:	99 83       	std	Y+1, r25	; 0x01
    18ea:	88 83       	st	Y, r24
    18ec:	cd 59       	subi	r28, 0x9D	; 157
    18ee:	d0 40       	sbci	r29, 0x00	; 0
    18f0:	ed ef       	ldi	r30, 0xFD	; 253
    18f2:	f0 e0       	ldi	r31, 0x00	; 0
    18f4:	c1 56       	subi	r28, 0x61	; 97
    18f6:	df 4f       	sbci	r29, 0xFF	; 255
    18f8:	f9 83       	std	Y+1, r31	; 0x01
    18fa:	e8 83       	st	Y, r30
    18fc:	cf 59       	subi	r28, 0x9F	; 159
    18fe:	d0 40       	sbci	r29, 0x00	; 0
    1900:	8a ef       	ldi	r24, 0xFA	; 250
    1902:	90 e0       	ldi	r25, 0x00	; 0
    1904:	cf 55       	subi	r28, 0x5F	; 95
    1906:	df 4f       	sbci	r29, 0xFF	; 255
    1908:	99 83       	std	Y+1, r25	; 0x01
    190a:	88 83       	st	Y, r24
    190c:	c1 5a       	subi	r28, 0xA1	; 161
    190e:	d0 40       	sbci	r29, 0x00	; 0
    1910:	0f 2e       	mov	r0, r31
    1912:	f8 ef       	ldi	r31, 0xF8	; 248
    1914:	cf 2e       	mov	r12, r31
    1916:	d1 2c       	mov	r13, r1
    1918:	f0 2d       	mov	r31, r0
    191a:	cd 55       	subi	r28, 0x5D	; 93
    191c:	df 4f       	sbci	r29, 0xFF	; 255
    191e:	d9 82       	std	Y+1, r13	; 0x01
    1920:	c8 82       	st	Y, r12
    1922:	c3 5a       	subi	r28, 0xA3	; 163
    1924:	d0 40       	sbci	r29, 0x00	; 0
    1926:	05 ef       	ldi	r16, 0xF5	; 245
    1928:	10 e0       	ldi	r17, 0x00	; 0
    192a:	cb 55       	subi	r28, 0x5B	; 91
    192c:	df 4f       	sbci	r29, 0xFF	; 255
    192e:	19 83       	std	Y+1, r17	; 0x01
    1930:	08 83       	st	Y, r16
    1932:	c5 5a       	subi	r28, 0xA5	; 165
    1934:	d0 40       	sbci	r29, 0x00	; 0
    1936:	83 ef       	ldi	r24, 0xF3	; 243
    1938:	90 e0       	ldi	r25, 0x00	; 0
    193a:	c9 55       	subi	r28, 0x59	; 89
    193c:	df 4f       	sbci	r29, 0xFF	; 255
    193e:	99 83       	std	Y+1, r25	; 0x01
    1940:	88 83       	st	Y, r24
    1942:	c7 5a       	subi	r28, 0xA7	; 167
    1944:	d0 40       	sbci	r29, 0x00	; 0
    1946:	80 ef       	ldi	r24, 0xF0	; 240
    1948:	90 e0       	ldi	r25, 0x00	; 0
    194a:	c7 55       	subi	r28, 0x57	; 87
    194c:	df 4f       	sbci	r29, 0xFF	; 255
    194e:	99 83       	std	Y+1, r25	; 0x01
    1950:	88 83       	st	Y, r24
    1952:	c9 5a       	subi	r28, 0xA9	; 169
    1954:	d0 40       	sbci	r29, 0x00	; 0
    1956:	8e ee       	ldi	r24, 0xEE	; 238
    1958:	90 e0       	ldi	r25, 0x00	; 0
    195a:	c5 55       	subi	r28, 0x55	; 85
    195c:	df 4f       	sbci	r29, 0xFF	; 255
    195e:	99 83       	std	Y+1, r25	; 0x01
    1960:	88 83       	st	Y, r24
    1962:	cb 5a       	subi	r28, 0xAB	; 171
    1964:	d0 40       	sbci	r29, 0x00	; 0
    1966:	8c ee       	ldi	r24, 0xEC	; 236
    1968:	90 e0       	ldi	r25, 0x00	; 0
    196a:	c3 55       	subi	r28, 0x53	; 83
    196c:	df 4f       	sbci	r29, 0xFF	; 255
    196e:	99 83       	std	Y+1, r25	; 0x01
    1970:	88 83       	st	Y, r24
    1972:	cd 5a       	subi	r28, 0xAD	; 173
    1974:	d0 40       	sbci	r29, 0x00	; 0
    1976:	29 ee       	ldi	r18, 0xE9	; 233
    1978:	30 e0       	ldi	r19, 0x00	; 0
    197a:	c1 55       	subi	r28, 0x51	; 81
    197c:	df 4f       	sbci	r29, 0xFF	; 255
    197e:	39 83       	std	Y+1, r19	; 0x01
    1980:	28 83       	st	Y, r18
    1982:	cf 5a       	subi	r28, 0xAF	; 175
    1984:	d0 40       	sbci	r29, 0x00	; 0
    1986:	47 ee       	ldi	r20, 0xE7	; 231
    1988:	50 e0       	ldi	r21, 0x00	; 0
    198a:	cf 54       	subi	r28, 0x4F	; 79
    198c:	df 4f       	sbci	r29, 0xFF	; 255
    198e:	59 83       	std	Y+1, r21	; 0x01
    1990:	48 83       	st	Y, r20
    1992:	c1 5b       	subi	r28, 0xB1	; 177
    1994:	d0 40       	sbci	r29, 0x00	; 0
    1996:	65 ee       	ldi	r22, 0xE5	; 229
    1998:	70 e0       	ldi	r23, 0x00	; 0
    199a:	cd 54       	subi	r28, 0x4D	; 77
    199c:	df 4f       	sbci	r29, 0xFF	; 255
    199e:	79 83       	std	Y+1, r23	; 0x01
    19a0:	68 83       	st	Y, r22
    19a2:	c3 5b       	subi	r28, 0xB3	; 179
    19a4:	d0 40       	sbci	r29, 0x00	; 0
    19a6:	83 ee       	ldi	r24, 0xE3	; 227
    19a8:	90 e0       	ldi	r25, 0x00	; 0
    19aa:	cb 54       	subi	r28, 0x4B	; 75
    19ac:	df 4f       	sbci	r29, 0xFF	; 255
    19ae:	99 83       	std	Y+1, r25	; 0x01
    19b0:	88 83       	st	Y, r24
    19b2:	c5 5b       	subi	r28, 0xB5	; 181
    19b4:	d0 40       	sbci	r29, 0x00	; 0
    19b6:	81 ee       	ldi	r24, 0xE1	; 225
    19b8:	90 e0       	ldi	r25, 0x00	; 0
    19ba:	c9 54       	subi	r28, 0x49	; 73
    19bc:	df 4f       	sbci	r29, 0xFF	; 255
    19be:	99 83       	std	Y+1, r25	; 0x01
    19c0:	88 83       	st	Y, r24
    19c2:	c7 5b       	subi	r28, 0xB7	; 183
    19c4:	d0 40       	sbci	r29, 0x00	; 0
    19c6:	8f ed       	ldi	r24, 0xDF	; 223
    19c8:	90 e0       	ldi	r25, 0x00	; 0
    19ca:	c7 54       	subi	r28, 0x47	; 71
    19cc:	df 4f       	sbci	r29, 0xFF	; 255
    19ce:	99 83       	std	Y+1, r25	; 0x01
    19d0:	88 83       	st	Y, r24
    19d2:	c9 5b       	subi	r28, 0xB9	; 185
    19d4:	d0 40       	sbci	r29, 0x00	; 0
    19d6:	0f 2e       	mov	r0, r31
    19d8:	fd ed       	ldi	r31, 0xDD	; 221
    19da:	8f 2e       	mov	r8, r31
    19dc:	91 2c       	mov	r9, r1
    19de:	f0 2d       	mov	r31, r0
    19e0:	c5 54       	subi	r28, 0x45	; 69
    19e2:	df 4f       	sbci	r29, 0xFF	; 255
    19e4:	99 82       	std	Y+1, r9	; 0x01
    19e6:	88 82       	st	Y, r8
    19e8:	cb 5b       	subi	r28, 0xBB	; 187
    19ea:	d0 40       	sbci	r29, 0x00	; 0
    19ec:	8b ed       	ldi	r24, 0xDB	; 219
    19ee:	90 e0       	ldi	r25, 0x00	; 0
    19f0:	c3 54       	subi	r28, 0x43	; 67
    19f2:	df 4f       	sbci	r29, 0xFF	; 255
    19f4:	99 83       	std	Y+1, r25	; 0x01
    19f6:	88 83       	st	Y, r24
    19f8:	cd 5b       	subi	r28, 0xBD	; 189
    19fa:	d0 40       	sbci	r29, 0x00	; 0
    19fc:	a9 ed       	ldi	r26, 0xD9	; 217
    19fe:	b0 e0       	ldi	r27, 0x00	; 0
    1a00:	c1 54       	subi	r28, 0x41	; 65
    1a02:	df 4f       	sbci	r29, 0xFF	; 255
    1a04:	b9 83       	std	Y+1, r27	; 0x01
    1a06:	a8 83       	st	Y, r26
    1a08:	cf 5b       	subi	r28, 0xBF	; 191
    1a0a:	d0 40       	sbci	r29, 0x00	; 0
    1a0c:	87 ed       	ldi	r24, 0xD7	; 215
    1a0e:	90 e0       	ldi	r25, 0x00	; 0
    1a10:	cf 53       	subi	r28, 0x3F	; 63
    1a12:	df 4f       	sbci	r29, 0xFF	; 255
    1a14:	99 83       	std	Y+1, r25	; 0x01
    1a16:	88 83       	st	Y, r24
    1a18:	c1 5c       	subi	r28, 0xC1	; 193
    1a1a:	d0 40       	sbci	r29, 0x00	; 0
    1a1c:	86 ed       	ldi	r24, 0xD6	; 214
    1a1e:	90 e0       	ldi	r25, 0x00	; 0
    1a20:	cd 53       	subi	r28, 0x3D	; 61
    1a22:	df 4f       	sbci	r29, 0xFF	; 255
    1a24:	99 83       	std	Y+1, r25	; 0x01
    1a26:	88 83       	st	Y, r24
    1a28:	c3 5c       	subi	r28, 0xC3	; 195
    1a2a:	d0 40       	sbci	r29, 0x00	; 0
    1a2c:	84 ed       	ldi	r24, 0xD4	; 212
    1a2e:	90 e0       	ldi	r25, 0x00	; 0
    1a30:	cb 53       	subi	r28, 0x3B	; 59
    1a32:	df 4f       	sbci	r29, 0xFF	; 255
    1a34:	99 83       	std	Y+1, r25	; 0x01
    1a36:	88 83       	st	Y, r24
    1a38:	c5 5c       	subi	r28, 0xC5	; 197
    1a3a:	d0 40       	sbci	r29, 0x00	; 0
    1a3c:	82 ed       	ldi	r24, 0xD2	; 210
    1a3e:	90 e0       	ldi	r25, 0x00	; 0
    1a40:	c9 53       	subi	r28, 0x39	; 57
    1a42:	df 4f       	sbci	r29, 0xFF	; 255
    1a44:	99 83       	std	Y+1, r25	; 0x01
    1a46:	88 83       	st	Y, r24
    1a48:	c7 5c       	subi	r28, 0xC7	; 199
    1a4a:	d0 40       	sbci	r29, 0x00	; 0
    1a4c:	80 ed       	ldi	r24, 0xD0	; 208
    1a4e:	90 e0       	ldi	r25, 0x00	; 0
    1a50:	c7 53       	subi	r28, 0x37	; 55
    1a52:	df 4f       	sbci	r29, 0xFF	; 255
    1a54:	99 83       	std	Y+1, r25	; 0x01
    1a56:	88 83       	st	Y, r24
    1a58:	c9 5c       	subi	r28, 0xC9	; 201
    1a5a:	d0 40       	sbci	r29, 0x00	; 0
    1a5c:	ef ec       	ldi	r30, 0xCF	; 207
    1a5e:	f0 e0       	ldi	r31, 0x00	; 0
    1a60:	c5 53       	subi	r28, 0x35	; 53
    1a62:	df 4f       	sbci	r29, 0xFF	; 255
    1a64:	f9 83       	std	Y+1, r31	; 0x01
    1a66:	e8 83       	st	Y, r30
    1a68:	cb 5c       	subi	r28, 0xCB	; 203
    1a6a:	d0 40       	sbci	r29, 0x00	; 0
    1a6c:	0f 2e       	mov	r0, r31
    1a6e:	fd ec       	ldi	r31, 0xCD	; 205
    1a70:	cf 2e       	mov	r12, r31
    1a72:	d1 2c       	mov	r13, r1
    1a74:	f0 2d       	mov	r31, r0
    1a76:	c3 53       	subi	r28, 0x33	; 51
    1a78:	df 4f       	sbci	r29, 0xFF	; 255
    1a7a:	d9 82       	std	Y+1, r13	; 0x01
    1a7c:	c8 82       	st	Y, r12
    1a7e:	cd 5c       	subi	r28, 0xCD	; 205
    1a80:	d0 40       	sbci	r29, 0x00	; 0
    1a82:	8c ec       	ldi	r24, 0xCC	; 204
    1a84:	90 e0       	ldi	r25, 0x00	; 0
    1a86:	c1 53       	subi	r28, 0x31	; 49
    1a88:	df 4f       	sbci	r29, 0xFF	; 255
    1a8a:	99 83       	std	Y+1, r25	; 0x01
    1a8c:	88 83       	st	Y, r24
    1a8e:	cf 5c       	subi	r28, 0xCF	; 207
    1a90:	d0 40       	sbci	r29, 0x00	; 0
    1a92:	0a ec       	ldi	r16, 0xCA	; 202
    1a94:	10 e0       	ldi	r17, 0x00	; 0
    1a96:	cf 52       	subi	r28, 0x2F	; 47
    1a98:	df 4f       	sbci	r29, 0xFF	; 255
    1a9a:	19 83       	std	Y+1, r17	; 0x01
    1a9c:	08 83       	st	Y, r16
    1a9e:	c1 5d       	subi	r28, 0xD1	; 209
    1aa0:	d0 40       	sbci	r29, 0x00	; 0
    1aa2:	88 ec       	ldi	r24, 0xC8	; 200
    1aa4:	90 e0       	ldi	r25, 0x00	; 0
    1aa6:	cd 52       	subi	r28, 0x2D	; 45
    1aa8:	df 4f       	sbci	r29, 0xFF	; 255
    1aaa:	99 83       	std	Y+1, r25	; 0x01
    1aac:	88 83       	st	Y, r24
    1aae:	c3 5d       	subi	r28, 0xD3	; 211
    1ab0:	d0 40       	sbci	r29, 0x00	; 0
    1ab2:	87 ec       	ldi	r24, 0xC7	; 199
    1ab4:	90 e0       	ldi	r25, 0x00	; 0
    1ab6:	cb 52       	subi	r28, 0x2B	; 43
    1ab8:	df 4f       	sbci	r29, 0xFF	; 255
    1aba:	99 83       	std	Y+1, r25	; 0x01
    1abc:	88 83       	st	Y, r24
    1abe:	c5 5d       	subi	r28, 0xD5	; 213
    1ac0:	d0 40       	sbci	r29, 0x00	; 0
    1ac2:	85 ec       	ldi	r24, 0xC5	; 197
    1ac4:	90 e0       	ldi	r25, 0x00	; 0
    1ac6:	c9 52       	subi	r28, 0x29	; 41
    1ac8:	df 4f       	sbci	r29, 0xFF	; 255
    1aca:	99 83       	std	Y+1, r25	; 0x01
    1acc:	88 83       	st	Y, r24
    1ace:	c7 5d       	subi	r28, 0xD7	; 215
    1ad0:	d0 40       	sbci	r29, 0x00	; 0
    1ad2:	24 ec       	ldi	r18, 0xC4	; 196
    1ad4:	30 e0       	ldi	r19, 0x00	; 0
    1ad6:	c7 52       	subi	r28, 0x27	; 39
    1ad8:	df 4f       	sbci	r29, 0xFF	; 255
    1ada:	39 83       	std	Y+1, r19	; 0x01
    1adc:	28 83       	st	Y, r18
    1ade:	c9 5d       	subi	r28, 0xD9	; 217
    1ae0:	d0 40       	sbci	r29, 0x00	; 0
    1ae2:	22 ec       	ldi	r18, 0xC2	; 194
    1ae4:	30 e0       	ldi	r19, 0x00	; 0
    1ae6:	c5 52       	subi	r28, 0x25	; 37
    1ae8:	df 4f       	sbci	r29, 0xFF	; 255
    1aea:	39 83       	std	Y+1, r19	; 0x01
    1aec:	28 83       	st	Y, r18
    1aee:	cb 5d       	subi	r28, 0xDB	; 219
    1af0:	d0 40       	sbci	r29, 0x00	; 0
    1af2:	21 ec       	ldi	r18, 0xC1	; 193
    1af4:	30 e0       	ldi	r19, 0x00	; 0
    1af6:	c3 52       	subi	r28, 0x23	; 35
    1af8:	df 4f       	sbci	r29, 0xFF	; 255
    1afa:	39 83       	std	Y+1, r19	; 0x01
    1afc:	28 83       	st	Y, r18
    1afe:	cd 5d       	subi	r28, 0xDD	; 221
    1b00:	d0 40       	sbci	r29, 0x00	; 0
    1b02:	40 ec       	ldi	r20, 0xC0	; 192
    1b04:	50 e0       	ldi	r21, 0x00	; 0
    1b06:	c1 52       	subi	r28, 0x21	; 33
    1b08:	df 4f       	sbci	r29, 0xFF	; 255
    1b0a:	59 83       	std	Y+1, r21	; 0x01
    1b0c:	48 83       	st	Y, r20
    1b0e:	cf 5d       	subi	r28, 0xDF	; 223
    1b10:	d0 40       	sbci	r29, 0x00	; 0
    1b12:	4f eb       	ldi	r20, 0xBF	; 191
    1b14:	50 e0       	ldi	r21, 0x00	; 0
    1b16:	cf 51       	subi	r28, 0x1F	; 31
    1b18:	df 4f       	sbci	r29, 0xFF	; 255
    1b1a:	59 83       	std	Y+1, r21	; 0x01
    1b1c:	48 83       	st	Y, r20
    1b1e:	c1 5e       	subi	r28, 0xE1	; 225
    1b20:	d0 40       	sbci	r29, 0x00	; 0
    1b22:	4e eb       	ldi	r20, 0xBE	; 190
    1b24:	50 e0       	ldi	r21, 0x00	; 0
    1b26:	cd 51       	subi	r28, 0x1D	; 29
    1b28:	df 4f       	sbci	r29, 0xFF	; 255
    1b2a:	59 83       	std	Y+1, r21	; 0x01
    1b2c:	48 83       	st	Y, r20
    1b2e:	c3 5e       	subi	r28, 0xE3	; 227
    1b30:	d0 40       	sbci	r29, 0x00	; 0
    1b32:	4d eb       	ldi	r20, 0xBD	; 189
    1b34:	50 e0       	ldi	r21, 0x00	; 0
    1b36:	cb 51       	subi	r28, 0x1B	; 27
    1b38:	df 4f       	sbci	r29, 0xFF	; 255
    1b3a:	59 83       	std	Y+1, r21	; 0x01
    1b3c:	48 83       	st	Y, r20
    1b3e:	c5 5e       	subi	r28, 0xE5	; 229
    1b40:	d0 40       	sbci	r29, 0x00	; 0
    1b42:	6c eb       	ldi	r22, 0xBC	; 188
    1b44:	70 e0       	ldi	r23, 0x00	; 0
    1b46:	c9 51       	subi	r28, 0x19	; 25
    1b48:	df 4f       	sbci	r29, 0xFF	; 255
    1b4a:	79 83       	std	Y+1, r23	; 0x01
    1b4c:	68 83       	st	Y, r22
    1b4e:	c7 5e       	subi	r28, 0xE7	; 231
    1b50:	d0 40       	sbci	r29, 0x00	; 0
    1b52:	6b eb       	ldi	r22, 0xBB	; 187
    1b54:	70 e0       	ldi	r23, 0x00	; 0
    1b56:	c7 51       	subi	r28, 0x17	; 23
    1b58:	df 4f       	sbci	r29, 0xFF	; 255
    1b5a:	79 83       	std	Y+1, r23	; 0x01
    1b5c:	68 83       	st	Y, r22
    1b5e:	c9 5e       	subi	r28, 0xE9	; 233
    1b60:	d0 40       	sbci	r29, 0x00	; 0
    1b62:	6a eb       	ldi	r22, 0xBA	; 186
    1b64:	70 e0       	ldi	r23, 0x00	; 0
    1b66:	c5 51       	subi	r28, 0x15	; 21
    1b68:	df 4f       	sbci	r29, 0xFF	; 255
    1b6a:	79 83       	std	Y+1, r23	; 0x01
    1b6c:	68 83       	st	Y, r22
    1b6e:	cb 5e       	subi	r28, 0xEB	; 235
    1b70:	d0 40       	sbci	r29, 0x00	; 0
    1b72:	69 eb       	ldi	r22, 0xB9	; 185
    1b74:	70 e0       	ldi	r23, 0x00	; 0
    1b76:	c3 51       	subi	r28, 0x13	; 19
    1b78:	df 4f       	sbci	r29, 0xFF	; 255
    1b7a:	79 83       	std	Y+1, r23	; 0x01
    1b7c:	68 83       	st	Y, r22
    1b7e:	cd 5e       	subi	r28, 0xED	; 237
    1b80:	d0 40       	sbci	r29, 0x00	; 0
    1b82:	e8 eb       	ldi	r30, 0xB8	; 184
    1b84:	f0 e0       	ldi	r31, 0x00	; 0
    1b86:	c1 51       	subi	r28, 0x11	; 17
    1b88:	df 4f       	sbci	r29, 0xFF	; 255
    1b8a:	f9 83       	std	Y+1, r31	; 0x01
    1b8c:	e8 83       	st	Y, r30
    1b8e:	cf 5e       	subi	r28, 0xEF	; 239
    1b90:	d0 40       	sbci	r29, 0x00	; 0
    1b92:	a7 eb       	ldi	r26, 0xB7	; 183
    1b94:	b0 e0       	ldi	r27, 0x00	; 0
    1b96:	cf 50       	subi	r28, 0x0F	; 15
    1b98:	df 4f       	sbci	r29, 0xFF	; 255
    1b9a:	b9 83       	std	Y+1, r27	; 0x01
    1b9c:	a8 83       	st	Y, r26
    1b9e:	c1 5f       	subi	r28, 0xF1	; 241
    1ba0:	d0 40       	sbci	r29, 0x00	; 0
    1ba2:	e6 eb       	ldi	r30, 0xB6	; 182
    1ba4:	f0 e0       	ldi	r31, 0x00	; 0
    1ba6:	cd 50       	subi	r28, 0x0D	; 13
    1ba8:	df 4f       	sbci	r29, 0xFF	; 255
    1baa:	f9 83       	std	Y+1, r31	; 0x01
    1bac:	e8 83       	st	Y, r30
    1bae:	c3 5f       	subi	r28, 0xF3	; 243
    1bb0:	d0 40       	sbci	r29, 0x00	; 0
    1bb2:	e5 eb       	ldi	r30, 0xB5	; 181
    1bb4:	f0 e0       	ldi	r31, 0x00	; 0
    1bb6:	cb 50       	subi	r28, 0x0B	; 11
    1bb8:	df 4f       	sbci	r29, 0xFF	; 255
    1bba:	f9 83       	std	Y+1, r31	; 0x01
    1bbc:	e8 83       	st	Y, r30
    1bbe:	c5 5f       	subi	r28, 0xF5	; 245
    1bc0:	d0 40       	sbci	r29, 0x00	; 0
    1bc2:	a4 eb       	ldi	r26, 0xB4	; 180
    1bc4:	b0 e0       	ldi	r27, 0x00	; 0
    1bc6:	c9 50       	subi	r28, 0x09	; 9
    1bc8:	df 4f       	sbci	r29, 0xFF	; 255
    1bca:	b9 83       	std	Y+1, r27	; 0x01
    1bcc:	a8 83       	st	Y, r26
    1bce:	c7 5f       	subi	r28, 0xF7	; 247
    1bd0:	d0 40       	sbci	r29, 0x00	; 0
    1bd2:	0f 2e       	mov	r0, r31
    1bd4:	f3 eb       	ldi	r31, 0xB3	; 179
    1bd6:	cf 2e       	mov	r12, r31
    1bd8:	d1 2c       	mov	r13, r1
    1bda:	f0 2d       	mov	r31, r0
    1bdc:	c7 50       	subi	r28, 0x07	; 7
    1bde:	df 4f       	sbci	r29, 0xFF	; 255
    1be0:	d9 82       	std	Y+1, r13	; 0x01
    1be2:	c8 82       	st	Y, r12
    1be4:	c9 5f       	subi	r28, 0xF9	; 249
    1be6:	d0 40       	sbci	r29, 0x00	; 0
    1be8:	a2 eb       	ldi	r26, 0xB2	; 178
    1bea:	b0 e0       	ldi	r27, 0x00	; 0
    1bec:	c5 50       	subi	r28, 0x05	; 5
    1bee:	df 4f       	sbci	r29, 0xFF	; 255
    1bf0:	b9 83       	std	Y+1, r27	; 0x01
    1bf2:	a8 83       	st	Y, r26
    1bf4:	cb 5f       	subi	r28, 0xFB	; 251
    1bf6:	d0 40       	sbci	r29, 0x00	; 0
    1bf8:	a1 eb       	ldi	r26, 0xB1	; 177
    1bfa:	b0 e0       	ldi	r27, 0x00	; 0
    1bfc:	c3 50       	subi	r28, 0x03	; 3
    1bfe:	df 4f       	sbci	r29, 0xFF	; 255
    1c00:	b9 83       	std	Y+1, r27	; 0x01
    1c02:	a8 83       	st	Y, r26
    1c04:	cd 5f       	subi	r28, 0xFD	; 253
    1c06:	d0 40       	sbci	r29, 0x00	; 0
    1c08:	00 eb       	ldi	r16, 0xB0	; 176
    1c0a:	10 e0       	ldi	r17, 0x00	; 0
    1c0c:	c1 50       	subi	r28, 0x01	; 1
    1c0e:	df 4f       	sbci	r29, 0xFF	; 255
    1c10:	19 83       	std	Y+1, r17	; 0x01
    1c12:	08 83       	st	Y, r16
    1c14:	cf 5f       	subi	r28, 0xFF	; 255
    1c16:	d0 40       	sbci	r29, 0x00	; 0
    1c18:	0f ea       	ldi	r16, 0xAF	; 175
    1c1a:	10 e0       	ldi	r17, 0x00	; 0
    1c1c:	cf 5f       	subi	r28, 0xFF	; 255
    1c1e:	de 4f       	sbci	r29, 0xFE	; 254
    1c20:	19 83       	std	Y+1, r17	; 0x01
    1c22:	08 83       	st	Y, r16
    1c24:	c1 50       	subi	r28, 0x01	; 1
    1c26:	d1 40       	sbci	r29, 0x01	; 1
    1c28:	0e ea       	ldi	r16, 0xAE	; 174
    1c2a:	10 e0       	ldi	r17, 0x00	; 0
    1c2c:	cd 5f       	subi	r28, 0xFD	; 253
    1c2e:	de 4f       	sbci	r29, 0xFE	; 254
    1c30:	19 83       	std	Y+1, r17	; 0x01
    1c32:	08 83       	st	Y, r16
    1c34:	c3 50       	subi	r28, 0x03	; 3
    1c36:	d1 40       	sbci	r29, 0x01	; 1
    1c38:	0f 2e       	mov	r0, r31
    1c3a:	fd ea       	ldi	r31, 0xAD	; 173
    1c3c:	af 2e       	mov	r10, r31
    1c3e:	b1 2c       	mov	r11, r1
    1c40:	f0 2d       	mov	r31, r0
    1c42:	cb 5f       	subi	r28, 0xFB	; 251
    1c44:	de 4f       	sbci	r29, 0xFE	; 254
    1c46:	b9 82       	std	Y+1, r11	; 0x01
    1c48:	a8 82       	st	Y, r10
    1c4a:	c5 50       	subi	r28, 0x05	; 5
    1c4c:	d1 40       	sbci	r29, 0x01	; 1
    1c4e:	0c ea       	ldi	r16, 0xAC	; 172
    1c50:	10 e0       	ldi	r17, 0x00	; 0
    1c52:	c9 5f       	subi	r28, 0xF9	; 249
    1c54:	de 4f       	sbci	r29, 0xFE	; 254
    1c56:	19 83       	std	Y+1, r17	; 0x01
    1c58:	08 83       	st	Y, r16
    1c5a:	c7 50       	subi	r28, 0x07	; 7
    1c5c:	d1 40       	sbci	r29, 0x01	; 1
    1c5e:	0b ea       	ldi	r16, 0xAB	; 171
    1c60:	10 e0       	ldi	r17, 0x00	; 0
    1c62:	c7 5f       	subi	r28, 0xF7	; 247
    1c64:	de 4f       	sbci	r29, 0xFE	; 254
    1c66:	19 83       	std	Y+1, r17	; 0x01
    1c68:	08 83       	st	Y, r16
    1c6a:	c9 50       	subi	r28, 0x09	; 9
    1c6c:	d1 40       	sbci	r29, 0x01	; 1
    1c6e:	0a ea       	ldi	r16, 0xAA	; 170
    1c70:	10 e0       	ldi	r17, 0x00	; 0
    1c72:	c5 5f       	subi	r28, 0xF5	; 245
    1c74:	de 4f       	sbci	r29, 0xFE	; 254
    1c76:	19 83       	std	Y+1, r17	; 0x01
    1c78:	08 83       	st	Y, r16
    1c7a:	cb 50       	subi	r28, 0x0B	; 11
    1c7c:	d1 40       	sbci	r29, 0x01	; 1
    1c7e:	0f 2e       	mov	r0, r31
    1c80:	f9 ea       	ldi	r31, 0xA9	; 169
    1c82:	6f 2e       	mov	r6, r31
    1c84:	71 2c       	mov	r7, r1
    1c86:	f0 2d       	mov	r31, r0
    1c88:	c3 5f       	subi	r28, 0xF3	; 243
    1c8a:	de 4f       	sbci	r29, 0xFE	; 254
    1c8c:	79 82       	std	Y+1, r7	; 0x01
    1c8e:	68 82       	st	Y, r6
    1c90:	cd 50       	subi	r28, 0x0D	; 13
    1c92:	d1 40       	sbci	r29, 0x01	; 1
    1c94:	c1 5f       	subi	r28, 0xF1	; 241
    1c96:	de 4f       	sbci	r29, 0xFE	; 254
    1c98:	79 82       	std	Y+1, r7	; 0x01
    1c9a:	68 82       	st	Y, r6
    1c9c:	cf 50       	subi	r28, 0x0F	; 15
    1c9e:	d1 40       	sbci	r29, 0x01	; 1
    1ca0:	08 ea       	ldi	r16, 0xA8	; 168
    1ca2:	10 e0       	ldi	r17, 0x00	; 0
    1ca4:	cf 5e       	subi	r28, 0xEF	; 239
    1ca6:	de 4f       	sbci	r29, 0xFE	; 254
    1ca8:	19 83       	std	Y+1, r17	; 0x01
    1caa:	08 83       	st	Y, r16
    1cac:	c1 51       	subi	r28, 0x11	; 17
    1cae:	d1 40       	sbci	r29, 0x01	; 1
    1cb0:	07 ea       	ldi	r16, 0xA7	; 167
    1cb2:	10 e0       	ldi	r17, 0x00	; 0
    1cb4:	cd 5e       	subi	r28, 0xED	; 237
    1cb6:	de 4f       	sbci	r29, 0xFE	; 254
    1cb8:	19 83       	std	Y+1, r17	; 0x01
    1cba:	08 83       	st	Y, r16
    1cbc:	c3 51       	subi	r28, 0x13	; 19
    1cbe:	d1 40       	sbci	r29, 0x01	; 1
    1cc0:	0f 2e       	mov	r0, r31
    1cc2:	f6 ea       	ldi	r31, 0xA6	; 166
    1cc4:	cf 2e       	mov	r12, r31
    1cc6:	d1 2c       	mov	r13, r1
    1cc8:	f0 2d       	mov	r31, r0
    1cca:	cb 5e       	subi	r28, 0xEB	; 235
    1ccc:	de 4f       	sbci	r29, 0xFE	; 254
    1cce:	d9 82       	std	Y+1, r13	; 0x01
    1cd0:	c8 82       	st	Y, r12
    1cd2:	c5 51       	subi	r28, 0x15	; 21
    1cd4:	d1 40       	sbci	r29, 0x01	; 1
    1cd6:	05 ea       	ldi	r16, 0xA5	; 165
    1cd8:	10 e0       	ldi	r17, 0x00	; 0
    1cda:	c9 5e       	subi	r28, 0xE9	; 233
    1cdc:	de 4f       	sbci	r29, 0xFE	; 254
    1cde:	19 83       	std	Y+1, r17	; 0x01
    1ce0:	08 83       	st	Y, r16
    1ce2:	c7 51       	subi	r28, 0x17	; 23
    1ce4:	d1 40       	sbci	r29, 0x01	; 1
    1ce6:	cc 24       	eor	r12, r12
    1ce8:	c3 94       	inc	r12
    1cea:	d1 2c       	mov	r13, r1
    1cec:	c7 5e       	subi	r28, 0xE7	; 231
    1cee:	de 4f       	sbci	r29, 0xFE	; 254
    1cf0:	d9 82       	std	Y+1, r13	; 0x01
    1cf2:	c8 82       	st	Y, r12
    1cf4:	c9 51       	subi	r28, 0x19	; 25
    1cf6:	d1 40       	sbci	r29, 0x01	; 1
    1cf8:	0f 2e       	mov	r0, r31
    1cfa:	f5 e0       	ldi	r31, 0x05	; 5
    1cfc:	cf 2e       	mov	r12, r31
    1cfe:	d1 2c       	mov	r13, r1
    1d00:	f0 2d       	mov	r31, r0
    1d02:	c5 5e       	subi	r28, 0xE5	; 229
    1d04:	de 4f       	sbci	r29, 0xFE	; 254
    1d06:	d9 82       	std	Y+1, r13	; 0x01
    1d08:	c8 82       	st	Y, r12
    1d0a:	cb 51       	subi	r28, 0x1B	; 27
    1d0c:	d1 40       	sbci	r29, 0x01	; 1
    1d0e:	c3 5e       	subi	r28, 0xE3	; 227
    1d10:	de 4f       	sbci	r29, 0xFE	; 254
    1d12:	f9 82       	std	Y+1, r15	; 0x01
    1d14:	e8 82       	st	Y, r14
    1d16:	cd 51       	subi	r28, 0x1D	; 29
    1d18:	d1 40       	sbci	r29, 0x01	; 1
    1d1a:	0f 2e       	mov	r0, r31
    1d1c:	fd e0       	ldi	r31, 0x0D	; 13
    1d1e:	ef 2e       	mov	r14, r31
    1d20:	f1 2c       	mov	r15, r1
    1d22:	f0 2d       	mov	r31, r0
    1d24:	c1 5e       	subi	r28, 0xE1	; 225
    1d26:	de 4f       	sbci	r29, 0xFE	; 254
    1d28:	f9 82       	std	Y+1, r15	; 0x01
    1d2a:	e8 82       	st	Y, r14
    1d2c:	cf 51       	subi	r28, 0x1F	; 31
    1d2e:	d1 40       	sbci	r29, 0x01	; 1
    1d30:	0f 2e       	mov	r0, r31
    1d32:	f1 e1       	ldi	r31, 0x11	; 17
    1d34:	ef 2e       	mov	r14, r31
    1d36:	f1 2c       	mov	r15, r1
    1d38:	f0 2d       	mov	r31, r0
    1d3a:	cf 5d       	subi	r28, 0xDF	; 223
    1d3c:	de 4f       	sbci	r29, 0xFE	; 254
    1d3e:	f9 82       	std	Y+1, r15	; 0x01
    1d40:	e8 82       	st	Y, r14
    1d42:	c1 52       	subi	r28, 0x21	; 33
    1d44:	d1 40       	sbci	r29, 0x01	; 1
    1d46:	0f 2e       	mov	r0, r31
    1d48:	f5 e1       	ldi	r31, 0x15	; 21
    1d4a:	ef 2e       	mov	r14, r31
    1d4c:	f1 2c       	mov	r15, r1
    1d4e:	f0 2d       	mov	r31, r0
    1d50:	cd 5d       	subi	r28, 0xDD	; 221
    1d52:	de 4f       	sbci	r29, 0xFE	; 254
    1d54:	f9 82       	std	Y+1, r15	; 0x01
    1d56:	e8 82       	st	Y, r14
    1d58:	c3 52       	subi	r28, 0x23	; 35
    1d5a:	d1 40       	sbci	r29, 0x01	; 1
    1d5c:	0f 2e       	mov	r0, r31
    1d5e:	f9 e1       	ldi	r31, 0x19	; 25
    1d60:	ef 2e       	mov	r14, r31
    1d62:	f1 2c       	mov	r15, r1
    1d64:	f0 2d       	mov	r31, r0
    1d66:	cb 5d       	subi	r28, 0xDB	; 219
    1d68:	de 4f       	sbci	r29, 0xFE	; 254
    1d6a:	f9 82       	std	Y+1, r15	; 0x01
    1d6c:	e8 82       	st	Y, r14
    1d6e:	c5 52       	subi	r28, 0x25	; 37
    1d70:	d1 40       	sbci	r29, 0x01	; 1
    1d72:	0f 2e       	mov	r0, r31
    1d74:	fd e1       	ldi	r31, 0x1D	; 29
    1d76:	ef 2e       	mov	r14, r31
    1d78:	f1 2c       	mov	r15, r1
    1d7a:	f0 2d       	mov	r31, r0
    1d7c:	c9 5d       	subi	r28, 0xD9	; 217
    1d7e:	de 4f       	sbci	r29, 0xFE	; 254
    1d80:	f9 82       	std	Y+1, r15	; 0x01
    1d82:	e8 82       	st	Y, r14
    1d84:	c7 52       	subi	r28, 0x27	; 39
    1d86:	d1 40       	sbci	r29, 0x01	; 1
    1d88:	0f 2e       	mov	r0, r31
    1d8a:	f1 e2       	ldi	r31, 0x21	; 33
    1d8c:	ef 2e       	mov	r14, r31
    1d8e:	f1 2c       	mov	r15, r1
    1d90:	f0 2d       	mov	r31, r0
    1d92:	c7 5d       	subi	r28, 0xD7	; 215
    1d94:	de 4f       	sbci	r29, 0xFE	; 254
    1d96:	f9 82       	std	Y+1, r15	; 0x01
    1d98:	e8 82       	st	Y, r14
    1d9a:	c9 52       	subi	r28, 0x29	; 41
    1d9c:	d1 40       	sbci	r29, 0x01	; 1
    1d9e:	0f 2e       	mov	r0, r31
    1da0:	f5 e2       	ldi	r31, 0x25	; 37
    1da2:	ef 2e       	mov	r14, r31
    1da4:	f1 2c       	mov	r15, r1
    1da6:	f0 2d       	mov	r31, r0
    1da8:	c5 5d       	subi	r28, 0xD5	; 213
    1daa:	de 4f       	sbci	r29, 0xFE	; 254
    1dac:	f9 82       	std	Y+1, r15	; 0x01
    1dae:	e8 82       	st	Y, r14
    1db0:	cb 52       	subi	r28, 0x2B	; 43
    1db2:	d1 40       	sbci	r29, 0x01	; 1
    1db4:	0f 2e       	mov	r0, r31
    1db6:	f9 e2       	ldi	r31, 0x29	; 41
    1db8:	ef 2e       	mov	r14, r31
    1dba:	f1 2c       	mov	r15, r1
    1dbc:	f0 2d       	mov	r31, r0
    1dbe:	c3 5d       	subi	r28, 0xD3	; 211
    1dc0:	de 4f       	sbci	r29, 0xFE	; 254
    1dc2:	f9 82       	std	Y+1, r15	; 0x01
    1dc4:	e8 82       	st	Y, r14
    1dc6:	cd 52       	subi	r28, 0x2D	; 45
    1dc8:	d1 40       	sbci	r29, 0x01	; 1
    1dca:	0f 2e       	mov	r0, r31
    1dcc:	fd e2       	ldi	r31, 0x2D	; 45
    1dce:	ef 2e       	mov	r14, r31
    1dd0:	f1 2c       	mov	r15, r1
    1dd2:	f0 2d       	mov	r31, r0
    1dd4:	c1 5d       	subi	r28, 0xD1	; 209
    1dd6:	de 4f       	sbci	r29, 0xFE	; 254
    1dd8:	f9 82       	std	Y+1, r15	; 0x01
    1dda:	e8 82       	st	Y, r14
    1ddc:	cf 52       	subi	r28, 0x2F	; 47
    1dde:	d1 40       	sbci	r29, 0x01	; 1
    1de0:	0f 2e       	mov	r0, r31
    1de2:	f1 e3       	ldi	r31, 0x31	; 49
    1de4:	ef 2e       	mov	r14, r31
    1de6:	f1 2c       	mov	r15, r1
    1de8:	f0 2d       	mov	r31, r0
    1dea:	cf 5c       	subi	r28, 0xCF	; 207
    1dec:	de 4f       	sbci	r29, 0xFE	; 254
    1dee:	f9 82       	std	Y+1, r15	; 0x01
    1df0:	e8 82       	st	Y, r14
    1df2:	c1 53       	subi	r28, 0x31	; 49
    1df4:	d1 40       	sbci	r29, 0x01	; 1
    1df6:	0f 2e       	mov	r0, r31
    1df8:	f5 e3       	ldi	r31, 0x35	; 53
    1dfa:	ef 2e       	mov	r14, r31
    1dfc:	f1 2c       	mov	r15, r1
    1dfe:	f0 2d       	mov	r31, r0
    1e00:	cd 5c       	subi	r28, 0xCD	; 205
    1e02:	de 4f       	sbci	r29, 0xFE	; 254
    1e04:	f9 82       	std	Y+1, r15	; 0x01
    1e06:	e8 82       	st	Y, r14
    1e08:	c3 53       	subi	r28, 0x33	; 51
    1e0a:	d1 40       	sbci	r29, 0x01	; 1
    1e0c:	0f 2e       	mov	r0, r31
    1e0e:	f9 e3       	ldi	r31, 0x39	; 57
    1e10:	ef 2e       	mov	r14, r31
    1e12:	f1 2c       	mov	r15, r1
    1e14:	f0 2d       	mov	r31, r0
    1e16:	cb 5c       	subi	r28, 0xCB	; 203
    1e18:	de 4f       	sbci	r29, 0xFE	; 254
    1e1a:	f9 82       	std	Y+1, r15	; 0x01
    1e1c:	e8 82       	st	Y, r14
    1e1e:	c5 53       	subi	r28, 0x35	; 53
    1e20:	d1 40       	sbci	r29, 0x01	; 1
    1e22:	0f 2e       	mov	r0, r31
    1e24:	fd e3       	ldi	r31, 0x3D	; 61
    1e26:	ef 2e       	mov	r14, r31
    1e28:	f1 2c       	mov	r15, r1
    1e2a:	f0 2d       	mov	r31, r0
    1e2c:	c9 5c       	subi	r28, 0xC9	; 201
    1e2e:	de 4f       	sbci	r29, 0xFE	; 254
    1e30:	f9 82       	std	Y+1, r15	; 0x01
    1e32:	e8 82       	st	Y, r14
    1e34:	c7 53       	subi	r28, 0x37	; 55
    1e36:	d1 40       	sbci	r29, 0x01	; 1
    1e38:	0f 2e       	mov	r0, r31
    1e3a:	f1 e4       	ldi	r31, 0x41	; 65
    1e3c:	ef 2e       	mov	r14, r31
    1e3e:	f1 2c       	mov	r15, r1
    1e40:	f0 2d       	mov	r31, r0
    1e42:	c7 5c       	subi	r28, 0xC7	; 199
    1e44:	de 4f       	sbci	r29, 0xFE	; 254
    1e46:	f9 82       	std	Y+1, r15	; 0x01
    1e48:	e8 82       	st	Y, r14
    1e4a:	c9 53       	subi	r28, 0x39	; 57
    1e4c:	d1 40       	sbci	r29, 0x01	; 1
    1e4e:	0f 2e       	mov	r0, r31
    1e50:	f5 e4       	ldi	r31, 0x45	; 69
    1e52:	ef 2e       	mov	r14, r31
    1e54:	f1 2c       	mov	r15, r1
    1e56:	f0 2d       	mov	r31, r0
    1e58:	c5 5c       	subi	r28, 0xC5	; 197
    1e5a:	de 4f       	sbci	r29, 0xFE	; 254
    1e5c:	f9 82       	std	Y+1, r15	; 0x01
    1e5e:	e8 82       	st	Y, r14
    1e60:	cb 53       	subi	r28, 0x3B	; 59
    1e62:	d1 40       	sbci	r29, 0x01	; 1
    1e64:	0f 2e       	mov	r0, r31
    1e66:	f9 e4       	ldi	r31, 0x49	; 73
    1e68:	ef 2e       	mov	r14, r31
    1e6a:	f1 2c       	mov	r15, r1
    1e6c:	f0 2d       	mov	r31, r0
    1e6e:	c3 5c       	subi	r28, 0xC3	; 195
    1e70:	de 4f       	sbci	r29, 0xFE	; 254
    1e72:	f9 82       	std	Y+1, r15	; 0x01
    1e74:	e8 82       	st	Y, r14
    1e76:	cd 53       	subi	r28, 0x3D	; 61
    1e78:	d1 40       	sbci	r29, 0x01	; 1
    1e7a:	0f 2e       	mov	r0, r31
    1e7c:	fd e4       	ldi	r31, 0x4D	; 77
    1e7e:	ef 2e       	mov	r14, r31
    1e80:	f1 2c       	mov	r15, r1
    1e82:	f0 2d       	mov	r31, r0
    1e84:	c1 5c       	subi	r28, 0xC1	; 193
    1e86:	de 4f       	sbci	r29, 0xFE	; 254
    1e88:	f9 82       	std	Y+1, r15	; 0x01
    1e8a:	e8 82       	st	Y, r14
    1e8c:	cf 53       	subi	r28, 0x3F	; 63
    1e8e:	d1 40       	sbci	r29, 0x01	; 1
    1e90:	0f 2e       	mov	r0, r31
    1e92:	f1 e5       	ldi	r31, 0x51	; 81
    1e94:	ef 2e       	mov	r14, r31
    1e96:	f1 2c       	mov	r15, r1
    1e98:	f0 2d       	mov	r31, r0
    1e9a:	cf 5b       	subi	r28, 0xBF	; 191
    1e9c:	de 4f       	sbci	r29, 0xFE	; 254
    1e9e:	f9 82       	std	Y+1, r15	; 0x01
    1ea0:	e8 82       	st	Y, r14
    1ea2:	c1 54       	subi	r28, 0x41	; 65
    1ea4:	d1 40       	sbci	r29, 0x01	; 1
    1ea6:	0f 2e       	mov	r0, r31
    1ea8:	f5 e5       	ldi	r31, 0x55	; 85
    1eaa:	ef 2e       	mov	r14, r31
    1eac:	f1 2c       	mov	r15, r1
    1eae:	f0 2d       	mov	r31, r0
    1eb0:	cd 5b       	subi	r28, 0xBD	; 189
    1eb2:	de 4f       	sbci	r29, 0xFE	; 254
    1eb4:	f9 82       	std	Y+1, r15	; 0x01
    1eb6:	e8 82       	st	Y, r14
    1eb8:	c3 54       	subi	r28, 0x43	; 67
    1eba:	d1 40       	sbci	r29, 0x01	; 1
    1ebc:	0f 2e       	mov	r0, r31
    1ebe:	f9 e5       	ldi	r31, 0x59	; 89
    1ec0:	ef 2e       	mov	r14, r31
    1ec2:	f1 2c       	mov	r15, r1
    1ec4:	f0 2d       	mov	r31, r0
    1ec6:	cb 5b       	subi	r28, 0xBB	; 187
    1ec8:	de 4f       	sbci	r29, 0xFE	; 254
    1eca:	f9 82       	std	Y+1, r15	; 0x01
    1ecc:	e8 82       	st	Y, r14
    1ece:	c5 54       	subi	r28, 0x45	; 69
    1ed0:	d1 40       	sbci	r29, 0x01	; 1
    1ed2:	0f 2e       	mov	r0, r31
    1ed4:	fd e5       	ldi	r31, 0x5D	; 93
    1ed6:	ef 2e       	mov	r14, r31
    1ed8:	f1 2c       	mov	r15, r1
    1eda:	f0 2d       	mov	r31, r0
    1edc:	c9 5b       	subi	r28, 0xB9	; 185
    1ede:	de 4f       	sbci	r29, 0xFE	; 254
    1ee0:	f9 82       	std	Y+1, r15	; 0x01
    1ee2:	e8 82       	st	Y, r14
    1ee4:	c7 54       	subi	r28, 0x47	; 71
    1ee6:	d1 40       	sbci	r29, 0x01	; 1
    1ee8:	0f 2e       	mov	r0, r31
    1eea:	f1 e6       	ldi	r31, 0x61	; 97
    1eec:	ef 2e       	mov	r14, r31
    1eee:	f1 2c       	mov	r15, r1
    1ef0:	f0 2d       	mov	r31, r0
    1ef2:	c7 5b       	subi	r28, 0xB7	; 183
    1ef4:	de 4f       	sbci	r29, 0xFE	; 254
    1ef6:	f9 82       	std	Y+1, r15	; 0x01
    1ef8:	e8 82       	st	Y, r14
    1efa:	c9 54       	subi	r28, 0x49	; 73
    1efc:	d1 40       	sbci	r29, 0x01	; 1
    1efe:	0f 2e       	mov	r0, r31
    1f00:	f5 e6       	ldi	r31, 0x65	; 101
    1f02:	ef 2e       	mov	r14, r31
    1f04:	f1 2c       	mov	r15, r1
    1f06:	f0 2d       	mov	r31, r0
    1f08:	c5 5b       	subi	r28, 0xB5	; 181
    1f0a:	de 4f       	sbci	r29, 0xFE	; 254
    1f0c:	f9 82       	std	Y+1, r15	; 0x01
    1f0e:	e8 82       	st	Y, r14
    1f10:	cb 54       	subi	r28, 0x4B	; 75
    1f12:	d1 40       	sbci	r29, 0x01	; 1
    1f14:	0f 2e       	mov	r0, r31
    1f16:	f9 e6       	ldi	r31, 0x69	; 105
    1f18:	ef 2e       	mov	r14, r31
    1f1a:	f1 2c       	mov	r15, r1
    1f1c:	f0 2d       	mov	r31, r0
    1f1e:	c3 5b       	subi	r28, 0xB3	; 179
    1f20:	de 4f       	sbci	r29, 0xFE	; 254
    1f22:	f9 82       	std	Y+1, r15	; 0x01
    1f24:	e8 82       	st	Y, r14
    1f26:	cd 54       	subi	r28, 0x4D	; 77
    1f28:	d1 40       	sbci	r29, 0x01	; 1
    1f2a:	0f 2e       	mov	r0, r31
    1f2c:	fd e6       	ldi	r31, 0x6D	; 109
    1f2e:	ef 2e       	mov	r14, r31
    1f30:	f1 2c       	mov	r15, r1
    1f32:	f0 2d       	mov	r31, r0
    1f34:	c1 5b       	subi	r28, 0xB1	; 177
    1f36:	de 4f       	sbci	r29, 0xFE	; 254
    1f38:	f9 82       	std	Y+1, r15	; 0x01
    1f3a:	e8 82       	st	Y, r14
    1f3c:	cf 54       	subi	r28, 0x4F	; 79
    1f3e:	d1 40       	sbci	r29, 0x01	; 1
    1f40:	0f 2e       	mov	r0, r31
    1f42:	f1 e7       	ldi	r31, 0x71	; 113
    1f44:	ef 2e       	mov	r14, r31
    1f46:	f1 2c       	mov	r15, r1
    1f48:	f0 2d       	mov	r31, r0
    1f4a:	cf 5a       	subi	r28, 0xAF	; 175
    1f4c:	de 4f       	sbci	r29, 0xFE	; 254
    1f4e:	f9 82       	std	Y+1, r15	; 0x01
    1f50:	e8 82       	st	Y, r14
    1f52:	c1 55       	subi	r28, 0x51	; 81
    1f54:	d1 40       	sbci	r29, 0x01	; 1
    1f56:	0f 2e       	mov	r0, r31
    1f58:	f5 e7       	ldi	r31, 0x75	; 117
    1f5a:	ef 2e       	mov	r14, r31
    1f5c:	f1 2c       	mov	r15, r1
    1f5e:	f0 2d       	mov	r31, r0
    1f60:	cd 5a       	subi	r28, 0xAD	; 173
    1f62:	de 4f       	sbci	r29, 0xFE	; 254
    1f64:	f9 82       	std	Y+1, r15	; 0x01
    1f66:	e8 82       	st	Y, r14
    1f68:	c3 55       	subi	r28, 0x53	; 83
    1f6a:	d1 40       	sbci	r29, 0x01	; 1
    1f6c:	0f 2e       	mov	r0, r31
    1f6e:	f9 e7       	ldi	r31, 0x79	; 121
    1f70:	ef 2e       	mov	r14, r31
    1f72:	f1 2c       	mov	r15, r1
    1f74:	f0 2d       	mov	r31, r0
    1f76:	cb 5a       	subi	r28, 0xAB	; 171
    1f78:	de 4f       	sbci	r29, 0xFE	; 254
    1f7a:	f9 82       	std	Y+1, r15	; 0x01
    1f7c:	e8 82       	st	Y, r14
    1f7e:	c5 55       	subi	r28, 0x55	; 85
    1f80:	d1 40       	sbci	r29, 0x01	; 1
    1f82:	0f 2e       	mov	r0, r31
    1f84:	fd e7       	ldi	r31, 0x7D	; 125
    1f86:	ef 2e       	mov	r14, r31
    1f88:	f1 2c       	mov	r15, r1
    1f8a:	f0 2d       	mov	r31, r0
    1f8c:	c9 5a       	subi	r28, 0xA9	; 169
    1f8e:	de 4f       	sbci	r29, 0xFE	; 254
    1f90:	f9 82       	std	Y+1, r15	; 0x01
    1f92:	e8 82       	st	Y, r14
    1f94:	c7 55       	subi	r28, 0x57	; 87
    1f96:	d1 40       	sbci	r29, 0x01	; 1
    1f98:	0f 2e       	mov	r0, r31
    1f9a:	f1 e8       	ldi	r31, 0x81	; 129
    1f9c:	ef 2e       	mov	r14, r31
    1f9e:	f1 2c       	mov	r15, r1
    1fa0:	f0 2d       	mov	r31, r0
    1fa2:	c7 5a       	subi	r28, 0xA7	; 167
    1fa4:	de 4f       	sbci	r29, 0xFE	; 254
    1fa6:	f9 82       	std	Y+1, r15	; 0x01
    1fa8:	e8 82       	st	Y, r14
    1faa:	c9 55       	subi	r28, 0x59	; 89
    1fac:	d1 40       	sbci	r29, 0x01	; 1
    1fae:	0f 2e       	mov	r0, r31
    1fb0:	f5 e8       	ldi	r31, 0x85	; 133
    1fb2:	ef 2e       	mov	r14, r31
    1fb4:	f1 2c       	mov	r15, r1
    1fb6:	f0 2d       	mov	r31, r0
    1fb8:	c5 5a       	subi	r28, 0xA5	; 165
    1fba:	de 4f       	sbci	r29, 0xFE	; 254
    1fbc:	f9 82       	std	Y+1, r15	; 0x01
    1fbe:	e8 82       	st	Y, r14
    1fc0:	cb 55       	subi	r28, 0x5B	; 91
    1fc2:	d1 40       	sbci	r29, 0x01	; 1
    1fc4:	0f 2e       	mov	r0, r31
    1fc6:	f9 e8       	ldi	r31, 0x89	; 137
    1fc8:	ef 2e       	mov	r14, r31
    1fca:	f1 2c       	mov	r15, r1
    1fcc:	f0 2d       	mov	r31, r0
    1fce:	c3 5a       	subi	r28, 0xA3	; 163
    1fd0:	de 4f       	sbci	r29, 0xFE	; 254
    1fd2:	f9 82       	std	Y+1, r15	; 0x01
    1fd4:	e8 82       	st	Y, r14
    1fd6:	cd 55       	subi	r28, 0x5D	; 93
    1fd8:	d1 40       	sbci	r29, 0x01	; 1
    1fda:	0f 2e       	mov	r0, r31
    1fdc:	fd e8       	ldi	r31, 0x8D	; 141
    1fde:	ef 2e       	mov	r14, r31
    1fe0:	f1 2c       	mov	r15, r1
    1fe2:	f0 2d       	mov	r31, r0
    1fe4:	c1 5a       	subi	r28, 0xA1	; 161
    1fe6:	de 4f       	sbci	r29, 0xFE	; 254
    1fe8:	f9 82       	std	Y+1, r15	; 0x01
    1fea:	e8 82       	st	Y, r14
    1fec:	cf 55       	subi	r28, 0x5F	; 95
    1fee:	d1 40       	sbci	r29, 0x01	; 1
    1ff0:	0f 2e       	mov	r0, r31
    1ff2:	f1 e9       	ldi	r31, 0x91	; 145
    1ff4:	ef 2e       	mov	r14, r31
    1ff6:	f1 2c       	mov	r15, r1
    1ff8:	f0 2d       	mov	r31, r0
    1ffa:	cf 59       	subi	r28, 0x9F	; 159
    1ffc:	de 4f       	sbci	r29, 0xFE	; 254
    1ffe:	f9 82       	std	Y+1, r15	; 0x01
    2000:	e8 82       	st	Y, r14
    2002:	c1 56       	subi	r28, 0x61	; 97
    2004:	d1 40       	sbci	r29, 0x01	; 1
    2006:	0f 2e       	mov	r0, r31
    2008:	f5 e9       	ldi	r31, 0x95	; 149
    200a:	ef 2e       	mov	r14, r31
    200c:	f1 2c       	mov	r15, r1
    200e:	f0 2d       	mov	r31, r0
    2010:	cd 59       	subi	r28, 0x9D	; 157
    2012:	de 4f       	sbci	r29, 0xFE	; 254
    2014:	f9 82       	std	Y+1, r15	; 0x01
    2016:	e8 82       	st	Y, r14
    2018:	c3 56       	subi	r28, 0x63	; 99
    201a:	d1 40       	sbci	r29, 0x01	; 1
    201c:	0f 2e       	mov	r0, r31
    201e:	f9 e9       	ldi	r31, 0x99	; 153
    2020:	cf 2e       	mov	r12, r31
    2022:	d1 2c       	mov	r13, r1
    2024:	f0 2d       	mov	r31, r0
    2026:	cb 59       	subi	r28, 0x9B	; 155
    2028:	de 4f       	sbci	r29, 0xFE	; 254
    202a:	d9 82       	std	Y+1, r13	; 0x01
    202c:	c8 82       	st	Y, r12
    202e:	c5 56       	subi	r28, 0x65	; 101
    2030:	d1 40       	sbci	r29, 0x01	; 1
    2032:	0f 2e       	mov	r0, r31
    2034:	fd e9       	ldi	r31, 0x9D	; 157
    2036:	ef 2e       	mov	r14, r31
    2038:	f1 2c       	mov	r15, r1
    203a:	f0 2d       	mov	r31, r0
    203c:	c9 59       	subi	r28, 0x99	; 153
    203e:	de 4f       	sbci	r29, 0xFE	; 254
    2040:	f9 82       	std	Y+1, r15	; 0x01
    2042:	e8 82       	st	Y, r14
    2044:	c7 56       	subi	r28, 0x67	; 103
    2046:	d1 40       	sbci	r29, 0x01	; 1
    2048:	0f 2e       	mov	r0, r31
    204a:	f1 ea       	ldi	r31, 0xA1	; 161
    204c:	ef 2e       	mov	r14, r31
    204e:	f1 2c       	mov	r15, r1
    2050:	f0 2d       	mov	r31, r0
    2052:	c7 59       	subi	r28, 0x97	; 151
    2054:	de 4f       	sbci	r29, 0xFE	; 254
    2056:	f9 82       	std	Y+1, r15	; 0x01
    2058:	e8 82       	st	Y, r14
    205a:	c9 56       	subi	r28, 0x69	; 105
    205c:	d1 40       	sbci	r29, 0x01	; 1
    205e:	c5 59       	subi	r28, 0x95	; 149
    2060:	de 4f       	sbci	r29, 0xFE	; 254
    2062:	19 83       	std	Y+1, r17	; 0x01
    2064:	08 83       	st	Y, r16
    2066:	cb 56       	subi	r28, 0x6B	; 107
    2068:	d1 40       	sbci	r29, 0x01	; 1
    206a:	c3 59       	subi	r28, 0x93	; 147
    206c:	de 4f       	sbci	r29, 0xFE	; 254
    206e:	79 82       	std	Y+1, r7	; 0x01
    2070:	68 82       	st	Y, r6
    2072:	cd 56       	subi	r28, 0x6D	; 109
    2074:	d1 40       	sbci	r29, 0x01	; 1
    2076:	c1 59       	subi	r28, 0x91	; 145
    2078:	de 4f       	sbci	r29, 0xFE	; 254
    207a:	b9 82       	std	Y+1, r11	; 0x01
    207c:	a8 82       	st	Y, r10
    207e:	cf 56       	subi	r28, 0x6F	; 111
    2080:	d1 40       	sbci	r29, 0x01	; 1
    2082:	cf 58       	subi	r28, 0x8F	; 143
    2084:	de 4f       	sbci	r29, 0xFE	; 254
    2086:	b9 83       	std	Y+1, r27	; 0x01
    2088:	a8 83       	st	Y, r26
    208a:	c1 57       	subi	r28, 0x71	; 113
    208c:	d1 40       	sbci	r29, 0x01	; 1
    208e:	cd 58       	subi	r28, 0x8D	; 141
    2090:	de 4f       	sbci	r29, 0xFE	; 254
    2092:	f9 83       	std	Y+1, r31	; 0x01
    2094:	e8 83       	st	Y, r30
    2096:	c3 57       	subi	r28, 0x73	; 115
    2098:	d1 40       	sbci	r29, 0x01	; 1
    209a:	cb 58       	subi	r28, 0x8B	; 139
    209c:	de 4f       	sbci	r29, 0xFE	; 254
    209e:	79 83       	std	Y+1, r23	; 0x01
    20a0:	68 83       	st	Y, r22
    20a2:	c5 57       	subi	r28, 0x75	; 117
    20a4:	d1 40       	sbci	r29, 0x01	; 1
    20a6:	c9 58       	subi	r28, 0x89	; 137
    20a8:	de 4f       	sbci	r29, 0xFE	; 254
    20aa:	59 83       	std	Y+1, r21	; 0x01
    20ac:	48 83       	st	Y, r20
    20ae:	c7 57       	subi	r28, 0x77	; 119
    20b0:	d1 40       	sbci	r29, 0x01	; 1
    20b2:	c7 58       	subi	r28, 0x87	; 135
    20b4:	de 4f       	sbci	r29, 0xFE	; 254
    20b6:	39 83       	std	Y+1, r19	; 0x01
    20b8:	28 83       	st	Y, r18
    20ba:	c9 57       	subi	r28, 0x79	; 121
    20bc:	d1 40       	sbci	r29, 0x01	; 1
    20be:	c5 58       	subi	r28, 0x85	; 133
    20c0:	de 4f       	sbci	r29, 0xFE	; 254
    20c2:	99 83       	std	Y+1, r25	; 0x01
    20c4:	88 83       	st	Y, r24
    20c6:	cb 57       	subi	r28, 0x7B	; 123
    20c8:	d1 40       	sbci	r29, 0x01	; 1
    20ca:	89 ec       	ldi	r24, 0xC9	; 201
    20cc:	90 e0       	ldi	r25, 0x00	; 0
    20ce:	c3 58       	subi	r28, 0x83	; 131
    20d0:	de 4f       	sbci	r29, 0xFE	; 254
    20d2:	99 83       	std	Y+1, r25	; 0x01
    20d4:	88 83       	st	Y, r24
    20d6:	cd 57       	subi	r28, 0x7D	; 125
    20d8:	d1 40       	sbci	r29, 0x01	; 1
    20da:	0d ec       	ldi	r16, 0xCD	; 205
    20dc:	10 e0       	ldi	r17, 0x00	; 0
    20de:	c1 58       	subi	r28, 0x81	; 129
    20e0:	de 4f       	sbci	r29, 0xFE	; 254
    20e2:	19 83       	std	Y+1, r17	; 0x01
    20e4:	08 83       	st	Y, r16
    20e6:	cf 57       	subi	r28, 0x7F	; 127
    20e8:	d1 40       	sbci	r29, 0x01	; 1
    20ea:	81 ed       	ldi	r24, 0xD1	; 209
    20ec:	90 e0       	ldi	r25, 0x00	; 0
    20ee:	cf 57       	subi	r28, 0x7F	; 127
    20f0:	de 4f       	sbci	r29, 0xFE	; 254
    20f2:	99 83       	std	Y+1, r25	; 0x01
    20f4:	88 83       	st	Y, r24
    20f6:	c1 58       	subi	r28, 0x81	; 129
    20f8:	d1 40       	sbci	r29, 0x01	; 1
    20fa:	85 ed       	ldi	r24, 0xD5	; 213
    20fc:	90 e0       	ldi	r25, 0x00	; 0
    20fe:	cd 57       	subi	r28, 0x7D	; 125
    2100:	de 4f       	sbci	r29, 0xFE	; 254
    2102:	99 83       	std	Y+1, r25	; 0x01
    2104:	88 83       	st	Y, r24
    2106:	c3 58       	subi	r28, 0x83	; 131
    2108:	d1 40       	sbci	r29, 0x01	; 1
    210a:	29 ed       	ldi	r18, 0xD9	; 217
    210c:	30 e0       	ldi	r19, 0x00	; 0
    210e:	cb 57       	subi	r28, 0x7B	; 123
    2110:	de 4f       	sbci	r29, 0xFE	; 254
    2112:	39 83       	std	Y+1, r19	; 0x01
    2114:	28 83       	st	Y, r18
    2116:	c5 58       	subi	r28, 0x85	; 133
    2118:	d1 40       	sbci	r29, 0x01	; 1
    211a:	c9 57       	subi	r28, 0x79	; 121
    211c:	de 4f       	sbci	r29, 0xFE	; 254
    211e:	99 82       	std	Y+1, r9	; 0x01
    2120:	88 82       	st	Y, r8
    2122:	c7 58       	subi	r28, 0x87	; 135
    2124:	d1 40       	sbci	r29, 0x01	; 1
    2126:	41 ee       	ldi	r20, 0xE1	; 225
    2128:	50 e0       	ldi	r21, 0x00	; 0
    212a:	c7 57       	subi	r28, 0x77	; 119
    212c:	de 4f       	sbci	r29, 0xFE	; 254
    212e:	59 83       	std	Y+1, r21	; 0x01
    2130:	48 83       	st	Y, r20
    2132:	c9 58       	subi	r28, 0x89	; 137
    2134:	d1 40       	sbci	r29, 0x01	; 1
    2136:	65 ee       	ldi	r22, 0xE5	; 229
    2138:	70 e0       	ldi	r23, 0x00	; 0
    213a:	c5 57       	subi	r28, 0x75	; 117
    213c:	de 4f       	sbci	r29, 0xFE	; 254
    213e:	79 83       	std	Y+1, r23	; 0x01
    2140:	68 83       	st	Y, r22
    2142:	cb 58       	subi	r28, 0x8B	; 139
    2144:	d1 40       	sbci	r29, 0x01	; 1
    2146:	89 ee       	ldi	r24, 0xE9	; 233
    2148:	90 e0       	ldi	r25, 0x00	; 0
    214a:	c3 57       	subi	r28, 0x73	; 115
    214c:	de 4f       	sbci	r29, 0xFE	; 254
    214e:	99 83       	std	Y+1, r25	; 0x01
    2150:	88 83       	st	Y, r24
    2152:	cd 58       	subi	r28, 0x8D	; 141
    2154:	d1 40       	sbci	r29, 0x01	; 1
    2156:	8d ee       	ldi	r24, 0xED	; 237
    2158:	90 e0       	ldi	r25, 0x00	; 0
    215a:	c1 57       	subi	r28, 0x71	; 113
    215c:	de 4f       	sbci	r29, 0xFE	; 254
    215e:	99 83       	std	Y+1, r25	; 0x01
    2160:	88 83       	st	Y, r24
    2162:	cf 58       	subi	r28, 0x8F	; 143
    2164:	d1 40       	sbci	r29, 0x01	; 1
    2166:	21 ef       	ldi	r18, 0xF1	; 241
    2168:	30 e0       	ldi	r19, 0x00	; 0
    216a:	cf 56       	subi	r28, 0x6F	; 111
    216c:	de 4f       	sbci	r29, 0xFE	; 254
    216e:	39 83       	std	Y+1, r19	; 0x01
    2170:	28 83       	st	Y, r18
    2172:	c1 59       	subi	r28, 0x91	; 145
    2174:	d1 40       	sbci	r29, 0x01	; 1
    2176:	a5 ef       	ldi	r26, 0xF5	; 245
    2178:	b0 e0       	ldi	r27, 0x00	; 0
    217a:	cd 56       	subi	r28, 0x6D	; 109
    217c:	de 4f       	sbci	r29, 0xFE	; 254
    217e:	b9 83       	std	Y+1, r27	; 0x01
    2180:	a8 83       	st	Y, r26
    2182:	c3 59       	subi	r28, 0x93	; 147
    2184:	d1 40       	sbci	r29, 0x01	; 1
    2186:	29 ef       	ldi	r18, 0xF9	; 249
    2188:	30 e0       	ldi	r19, 0x00	; 0
    218a:	cb 56       	subi	r28, 0x6B	; 107
    218c:	de 4f       	sbci	r29, 0xFE	; 254
    218e:	39 83       	std	Y+1, r19	; 0x01
    2190:	28 83       	st	Y, r18
    2192:	c5 59       	subi	r28, 0x95	; 149
    2194:	d1 40       	sbci	r29, 0x01	; 1
    2196:	ed ef       	ldi	r30, 0xFD	; 253
    2198:	f0 e0       	ldi	r31, 0x00	; 0
    219a:	c9 56       	subi	r28, 0x69	; 105
    219c:	de 4f       	sbci	r29, 0xFE	; 254
    219e:	f9 83       	std	Y+1, r31	; 0x01
    21a0:	e8 83       	st	Y, r30
    21a2:	c7 59       	subi	r28, 0x97	; 151
    21a4:	d1 40       	sbci	r29, 0x01	; 1
    21a6:	21 e0       	ldi	r18, 0x01	; 1
    21a8:	31 e0       	ldi	r19, 0x01	; 1
    21aa:	c7 56       	subi	r28, 0x67	; 103
    21ac:	de 4f       	sbci	r29, 0xFE	; 254
    21ae:	39 83       	std	Y+1, r19	; 0x01
    21b0:	28 83       	st	Y, r18
    21b2:	c9 59       	subi	r28, 0x99	; 153
    21b4:	d1 40       	sbci	r29, 0x01	; 1
    21b6:	c5 56       	subi	r28, 0x65	; 101
    21b8:	de 4f       	sbci	r29, 0xFE	; 254
    21ba:	59 82       	std	Y+1, r5	; 0x01
    21bc:	48 82       	st	Y, r4
    21be:	cb 59       	subi	r28, 0x9B	; 155
    21c0:	d1 40       	sbci	r29, 0x01	; 1
    21c2:	29 e0       	ldi	r18, 0x09	; 9
    21c4:	31 e0       	ldi	r19, 0x01	; 1
    21c6:	c3 56       	subi	r28, 0x63	; 99
    21c8:	de 4f       	sbci	r29, 0xFE	; 254
    21ca:	39 83       	std	Y+1, r19	; 0x01
    21cc:	28 83       	st	Y, r18
    21ce:	cd 59       	subi	r28, 0x9D	; 157
    21d0:	d1 40       	sbci	r29, 0x01	; 1
    21d2:	2d e0       	ldi	r18, 0x0D	; 13
    21d4:	31 e0       	ldi	r19, 0x01	; 1
    21d6:	c1 56       	subi	r28, 0x61	; 97
    21d8:	de 4f       	sbci	r29, 0xFE	; 254
    21da:	39 83       	std	Y+1, r19	; 0x01
    21dc:	28 83       	st	Y, r18
    21de:	cf 59       	subi	r28, 0x9F	; 159
    21e0:	d1 40       	sbci	r29, 0x01	; 1
    21e2:	01 e1       	ldi	r16, 0x11	; 17
    21e4:	11 e0       	ldi	r17, 0x01	; 1
    21e6:	cf 55       	subi	r28, 0x5F	; 95
    21e8:	de 4f       	sbci	r29, 0xFE	; 254
    21ea:	19 83       	std	Y+1, r17	; 0x01
    21ec:	08 83       	st	Y, r16
    21ee:	c1 5a       	subi	r28, 0xA1	; 161
    21f0:	d1 40       	sbci	r29, 0x01	; 1
    21f2:	25 e1       	ldi	r18, 0x15	; 21
    21f4:	31 e0       	ldi	r19, 0x01	; 1
    21f6:	cd 55       	subi	r28, 0x5D	; 93
    21f8:	de 4f       	sbci	r29, 0xFE	; 254
    21fa:	39 83       	std	Y+1, r19	; 0x01
    21fc:	28 83       	st	Y, r18
    21fe:	c3 5a       	subi	r28, 0xA3	; 163
    2200:	d1 40       	sbci	r29, 0x01	; 1
    2202:	29 e1       	ldi	r18, 0x19	; 25
    2204:	31 e0       	ldi	r19, 0x01	; 1
    2206:	cb 55       	subi	r28, 0x5B	; 91
    2208:	de 4f       	sbci	r29, 0xFE	; 254
    220a:	39 83       	std	Y+1, r19	; 0x01
    220c:	28 83       	st	Y, r18
    220e:	c5 5a       	subi	r28, 0xA5	; 165
    2210:	d1 40       	sbci	r29, 0x01	; 1
    2212:	2d e1       	ldi	r18, 0x1D	; 29
    2214:	31 e0       	ldi	r19, 0x01	; 1
    2216:	c9 55       	subi	r28, 0x59	; 89
    2218:	de 4f       	sbci	r29, 0xFE	; 254
    221a:	39 83       	std	Y+1, r19	; 0x01
    221c:	28 83       	st	Y, r18
    221e:	c7 5a       	subi	r28, 0xA7	; 167
    2220:	d1 40       	sbci	r29, 0x01	; 1
    2222:	21 e2       	ldi	r18, 0x21	; 33
    2224:	31 e0       	ldi	r19, 0x01	; 1
    2226:	c7 55       	subi	r28, 0x57	; 87
    2228:	de 4f       	sbci	r29, 0xFE	; 254
    222a:	39 83       	std	Y+1, r19	; 0x01
    222c:	28 83       	st	Y, r18
    222e:	c9 5a       	subi	r28, 0xA9	; 169
    2230:	d1 40       	sbci	r29, 0x01	; 1
    2232:	25 e2       	ldi	r18, 0x25	; 37
    2234:	31 e0       	ldi	r19, 0x01	; 1
    2236:	c5 55       	subi	r28, 0x55	; 85
    2238:	de 4f       	sbci	r29, 0xFE	; 254
    223a:	39 83       	std	Y+1, r19	; 0x01
    223c:	28 83       	st	Y, r18
    223e:	cb 5a       	subi	r28, 0xAB	; 171
    2240:	d1 40       	sbci	r29, 0x01	; 1
    2242:	29 e2       	ldi	r18, 0x29	; 41
    2244:	31 e0       	ldi	r19, 0x01	; 1
    2246:	c3 55       	subi	r28, 0x53	; 83
    2248:	de 4f       	sbci	r29, 0xFE	; 254
    224a:	39 83       	std	Y+1, r19	; 0x01
    224c:	28 83       	st	Y, r18
    224e:	cd 5a       	subi	r28, 0xAD	; 173
    2250:	d1 40       	sbci	r29, 0x01	; 1
    2252:	2d e2       	ldi	r18, 0x2D	; 45
    2254:	31 e0       	ldi	r19, 0x01	; 1
    2256:	c1 55       	subi	r28, 0x51	; 81
    2258:	de 4f       	sbci	r29, 0xFE	; 254
    225a:	39 83       	std	Y+1, r19	; 0x01
    225c:	28 83       	st	Y, r18
    225e:	cf 5a       	subi	r28, 0xAF	; 175
    2260:	d1 40       	sbci	r29, 0x01	; 1
    2262:	21 e3       	ldi	r18, 0x31	; 49
    2264:	31 e0       	ldi	r19, 0x01	; 1
    2266:	cf 54       	subi	r28, 0x4F	; 79
    2268:	de 4f       	sbci	r29, 0xFE	; 254
    226a:	39 83       	std	Y+1, r19	; 0x01
    226c:	28 83       	st	Y, r18
    226e:	c1 5b       	subi	r28, 0xB1	; 177
    2270:	d1 40       	sbci	r29, 0x01	; 1
    2272:	25 e3       	ldi	r18, 0x35	; 53
    2274:	31 e0       	ldi	r19, 0x01	; 1
    2276:	cd 54       	subi	r28, 0x4D	; 77
    2278:	de 4f       	sbci	r29, 0xFE	; 254
    227a:	39 83       	std	Y+1, r19	; 0x01
    227c:	28 83       	st	Y, r18
    227e:	c3 5b       	subi	r28, 0xB3	; 179
    2280:	d1 40       	sbci	r29, 0x01	; 1
    2282:	29 e3       	ldi	r18, 0x39	; 57
    2284:	31 e0       	ldi	r19, 0x01	; 1
    2286:	cb 54       	subi	r28, 0x4B	; 75
    2288:	de 4f       	sbci	r29, 0xFE	; 254
    228a:	39 83       	std	Y+1, r19	; 0x01
    228c:	28 83       	st	Y, r18
    228e:	c5 5b       	subi	r28, 0xB5	; 181
    2290:	d1 40       	sbci	r29, 0x01	; 1
    2292:	2d e3       	ldi	r18, 0x3D	; 61
    2294:	31 e0       	ldi	r19, 0x01	; 1
    2296:	c9 54       	subi	r28, 0x49	; 73
    2298:	de 4f       	sbci	r29, 0xFE	; 254
    229a:	39 83       	std	Y+1, r19	; 0x01
    229c:	28 83       	st	Y, r18
    229e:	c7 5b       	subi	r28, 0xB7	; 183
    22a0:	d1 40       	sbci	r29, 0x01	; 1
    22a2:	41 e4       	ldi	r20, 0x41	; 65
    22a4:	51 e0       	ldi	r21, 0x01	; 1
    22a6:	c7 54       	subi	r28, 0x47	; 71
    22a8:	de 4f       	sbci	r29, 0xFE	; 254
    22aa:	59 83       	std	Y+1, r21	; 0x01
    22ac:	48 83       	st	Y, r20
    22ae:	c9 5b       	subi	r28, 0xB9	; 185
    22b0:	d1 40       	sbci	r29, 0x01	; 1
    22b2:	45 e4       	ldi	r20, 0x45	; 69
    22b4:	51 e0       	ldi	r21, 0x01	; 1
    22b6:	c5 54       	subi	r28, 0x45	; 69
    22b8:	de 4f       	sbci	r29, 0xFE	; 254
    22ba:	59 83       	std	Y+1, r21	; 0x01
    22bc:	48 83       	st	Y, r20
    22be:	cb 5b       	subi	r28, 0xBB	; 187
    22c0:	d1 40       	sbci	r29, 0x01	; 1
    22c2:	49 e4       	ldi	r20, 0x49	; 73
    22c4:	51 e0       	ldi	r21, 0x01	; 1
    22c6:	c3 54       	subi	r28, 0x43	; 67
    22c8:	de 4f       	sbci	r29, 0xFE	; 254
    22ca:	59 83       	std	Y+1, r21	; 0x01
    22cc:	48 83       	st	Y, r20
    22ce:	cd 5b       	subi	r28, 0xBD	; 189
    22d0:	d1 40       	sbci	r29, 0x01	; 1
    22d2:	4d e4       	ldi	r20, 0x4D	; 77
    22d4:	51 e0       	ldi	r21, 0x01	; 1
    22d6:	c1 54       	subi	r28, 0x41	; 65
    22d8:	de 4f       	sbci	r29, 0xFE	; 254
    22da:	59 83       	std	Y+1, r21	; 0x01
    22dc:	48 83       	st	Y, r20
    22de:	cf 5b       	subi	r28, 0xBF	; 191
    22e0:	d1 40       	sbci	r29, 0x01	; 1
    22e2:	41 e5       	ldi	r20, 0x51	; 81
    22e4:	51 e0       	ldi	r21, 0x01	; 1
    22e6:	cf 53       	subi	r28, 0x3F	; 63
    22e8:	de 4f       	sbci	r29, 0xFE	; 254
    22ea:	59 83       	std	Y+1, r21	; 0x01
    22ec:	48 83       	st	Y, r20
    22ee:	c1 5c       	subi	r28, 0xC1	; 193
    22f0:	d1 40       	sbci	r29, 0x01	; 1
    22f2:	65 e5       	ldi	r22, 0x55	; 85
    22f4:	71 e0       	ldi	r23, 0x01	; 1
    22f6:	cd 53       	subi	r28, 0x3D	; 61
    22f8:	de 4f       	sbci	r29, 0xFE	; 254
    22fa:	79 83       	std	Y+1, r23	; 0x01
    22fc:	68 83       	st	Y, r22
    22fe:	c3 5c       	subi	r28, 0xC3	; 195
    2300:	d1 40       	sbci	r29, 0x01	; 1
    2302:	69 e5       	ldi	r22, 0x59	; 89
    2304:	71 e0       	ldi	r23, 0x01	; 1
    2306:	cb 53       	subi	r28, 0x3B	; 59
    2308:	de 4f       	sbci	r29, 0xFE	; 254
    230a:	79 83       	std	Y+1, r23	; 0x01
    230c:	68 83       	st	Y, r22
    230e:	c5 5c       	subi	r28, 0xC5	; 197
    2310:	d1 40       	sbci	r29, 0x01	; 1
    2312:	6d e5       	ldi	r22, 0x5D	; 93
    2314:	71 e0       	ldi	r23, 0x01	; 1
    2316:	c9 53       	subi	r28, 0x39	; 57
    2318:	de 4f       	sbci	r29, 0xFE	; 254
    231a:	79 83       	std	Y+1, r23	; 0x01
    231c:	68 83       	st	Y, r22
    231e:	c7 5c       	subi	r28, 0xC7	; 199
    2320:	d1 40       	sbci	r29, 0x01	; 1
    2322:	61 e6       	ldi	r22, 0x61	; 97
    2324:	71 e0       	ldi	r23, 0x01	; 1
    2326:	c7 53       	subi	r28, 0x37	; 55
    2328:	de 4f       	sbci	r29, 0xFE	; 254
    232a:	79 83       	std	Y+1, r23	; 0x01
    232c:	68 83       	st	Y, r22
    232e:	c9 5c       	subi	r28, 0xC9	; 201
    2330:	d1 40       	sbci	r29, 0x01	; 1
    2332:	65 e6       	ldi	r22, 0x65	; 101
    2334:	71 e0       	ldi	r23, 0x01	; 1
    2336:	c5 53       	subi	r28, 0x35	; 53
    2338:	de 4f       	sbci	r29, 0xFE	; 254
    233a:	79 83       	std	Y+1, r23	; 0x01
    233c:	68 83       	st	Y, r22
    233e:	cb 5c       	subi	r28, 0xCB	; 203
    2340:	d1 40       	sbci	r29, 0x01	; 1
    2342:	69 e6       	ldi	r22, 0x69	; 105
    2344:	71 e0       	ldi	r23, 0x01	; 1
    2346:	c3 53       	subi	r28, 0x33	; 51
    2348:	de 4f       	sbci	r29, 0xFE	; 254
    234a:	79 83       	std	Y+1, r23	; 0x01
    234c:	68 83       	st	Y, r22
    234e:	cd 5c       	subi	r28, 0xCD	; 205
    2350:	d1 40       	sbci	r29, 0x01	; 1
    2352:	6d e6       	ldi	r22, 0x6D	; 109
    2354:	71 e0       	ldi	r23, 0x01	; 1
    2356:	c1 53       	subi	r28, 0x31	; 49
    2358:	de 4f       	sbci	r29, 0xFE	; 254
    235a:	79 83       	std	Y+1, r23	; 0x01
    235c:	68 83       	st	Y, r22
    235e:	cf 5c       	subi	r28, 0xCF	; 207
    2360:	d1 40       	sbci	r29, 0x01	; 1
    2362:	61 e7       	ldi	r22, 0x71	; 113
    2364:	71 e0       	ldi	r23, 0x01	; 1
    2366:	cf 52       	subi	r28, 0x2F	; 47
    2368:	de 4f       	sbci	r29, 0xFE	; 254
    236a:	79 83       	std	Y+1, r23	; 0x01
    236c:	68 83       	st	Y, r22
    236e:	c1 5d       	subi	r28, 0xD1	; 209
    2370:	d1 40       	sbci	r29, 0x01	; 1
    2372:	65 e7       	ldi	r22, 0x75	; 117
    2374:	71 e0       	ldi	r23, 0x01	; 1
    2376:	cd 52       	subi	r28, 0x2D	; 45
    2378:	de 4f       	sbci	r29, 0xFE	; 254
    237a:	79 83       	std	Y+1, r23	; 0x01
    237c:	68 83       	st	Y, r22
    237e:	c3 5d       	subi	r28, 0xD3	; 211
    2380:	d1 40       	sbci	r29, 0x01	; 1
    2382:	69 e7       	ldi	r22, 0x79	; 121
    2384:	71 e0       	ldi	r23, 0x01	; 1
    2386:	cb 52       	subi	r28, 0x2B	; 43
    2388:	de 4f       	sbci	r29, 0xFE	; 254
    238a:	79 83       	std	Y+1, r23	; 0x01
    238c:	68 83       	st	Y, r22
    238e:	c5 5d       	subi	r28, 0xD5	; 213
    2390:	d1 40       	sbci	r29, 0x01	; 1
    2392:	6d e7       	ldi	r22, 0x7D	; 125
    2394:	71 e0       	ldi	r23, 0x01	; 1
    2396:	c9 52       	subi	r28, 0x29	; 41
    2398:	de 4f       	sbci	r29, 0xFE	; 254
    239a:	79 83       	std	Y+1, r23	; 0x01
    239c:	68 83       	st	Y, r22
    239e:	c7 5d       	subi	r28, 0xD7	; 215
    23a0:	d1 40       	sbci	r29, 0x01	; 1
    23a2:	c7 52       	subi	r28, 0x27	; 39
    23a4:	de 4f       	sbci	r29, 0xFE	; 254
    23a6:	39 82       	std	Y+1, r3	; 0x01
    23a8:	28 82       	st	Y, r2
    23aa:	c9 5d       	subi	r28, 0xD9	; 217
    23ac:	d1 40       	sbci	r29, 0x01	; 1
    23ae:	65 e8       	ldi	r22, 0x85	; 133
    23b0:	71 e0       	ldi	r23, 0x01	; 1
    23b2:	c5 52       	subi	r28, 0x25	; 37
    23b4:	de 4f       	sbci	r29, 0xFE	; 254
    23b6:	79 83       	std	Y+1, r23	; 0x01
    23b8:	68 83       	st	Y, r22
    23ba:	cb 5d       	subi	r28, 0xDB	; 219
    23bc:	d1 40       	sbci	r29, 0x01	; 1
    23be:	a9 e8       	ldi	r26, 0x89	; 137
    23c0:	b1 e0       	ldi	r27, 0x01	; 1
    23c2:	c3 52       	subi	r28, 0x23	; 35
    23c4:	de 4f       	sbci	r29, 0xFE	; 254
    23c6:	b9 83       	std	Y+1, r27	; 0x01
    23c8:	a8 83       	st	Y, r26
    23ca:	cd 5d       	subi	r28, 0xDD	; 221
    23cc:	d1 40       	sbci	r29, 0x01	; 1
    23ce:	6d e8       	ldi	r22, 0x8D	; 141
    23d0:	71 e0       	ldi	r23, 0x01	; 1
    23d2:	c1 52       	subi	r28, 0x21	; 33
    23d4:	de 4f       	sbci	r29, 0xFE	; 254
    23d6:	79 83       	std	Y+1, r23	; 0x01
    23d8:	68 83       	st	Y, r22
    23da:	cf 5d       	subi	r28, 0xDF	; 223
    23dc:	d1 40       	sbci	r29, 0x01	; 1
    23de:	61 e9       	ldi	r22, 0x91	; 145
    23e0:	71 e0       	ldi	r23, 0x01	; 1
    23e2:	cf 51       	subi	r28, 0x1F	; 31
    23e4:	de 4f       	sbci	r29, 0xFE	; 254
    23e6:	79 83       	std	Y+1, r23	; 0x01
    23e8:	68 83       	st	Y, r22
    23ea:	c1 5e       	subi	r28, 0xE1	; 225
    23ec:	d1 40       	sbci	r29, 0x01	; 1
    23ee:	65 e9       	ldi	r22, 0x95	; 149
    23f0:	71 e0       	ldi	r23, 0x01	; 1
    23f2:	cd 51       	subi	r28, 0x1D	; 29
    23f4:	de 4f       	sbci	r29, 0xFE	; 254
    23f6:	79 83       	std	Y+1, r23	; 0x01
    23f8:	68 83       	st	Y, r22
    23fa:	c3 5e       	subi	r28, 0xE3	; 227
    23fc:	d1 40       	sbci	r29, 0x01	; 1
    23fe:	e9 e9       	ldi	r30, 0x99	; 153
    2400:	f1 e0       	ldi	r31, 0x01	; 1
    2402:	cb 51       	subi	r28, 0x1B	; 27
    2404:	de 4f       	sbci	r29, 0xFE	; 254
    2406:	f9 83       	std	Y+1, r31	; 0x01
    2408:	e8 83       	st	Y, r30
    240a:	c5 5e       	subi	r28, 0xE5	; 229
    240c:	d1 40       	sbci	r29, 0x01	; 1
    240e:	6d e9       	ldi	r22, 0x9D	; 157
    2410:	71 e0       	ldi	r23, 0x01	; 1
    2412:	c9 51       	subi	r28, 0x19	; 25
    2414:	de 4f       	sbci	r29, 0xFE	; 254
    2416:	79 83       	std	Y+1, r23	; 0x01
    2418:	68 83       	st	Y, r22
    241a:	c7 5e       	subi	r28, 0xE7	; 231
    241c:	d1 40       	sbci	r29, 0x01	; 1
    241e:	01 ea       	ldi	r16, 0xA1	; 161
    2420:	11 e0       	ldi	r17, 0x01	; 1
    2422:	c7 51       	subi	r28, 0x17	; 23
    2424:	de 4f       	sbci	r29, 0xFE	; 254
    2426:	19 83       	std	Y+1, r17	; 0x01
    2428:	08 83       	st	Y, r16
    242a:	c9 5e       	subi	r28, 0xE9	; 233
    242c:	d1 40       	sbci	r29, 0x01	; 1
    242e:	e5 ea       	ldi	r30, 0xA5	; 165
    2430:	f1 e0       	ldi	r31, 0x01	; 1
    2432:	c5 51       	subi	r28, 0x15	; 21
    2434:	de 4f       	sbci	r29, 0xFE	; 254
    2436:	f9 83       	std	Y+1, r31	; 0x01
    2438:	e8 83       	st	Y, r30
    243a:	cb 5e       	subi	r28, 0xEB	; 235
    243c:	d1 40       	sbci	r29, 0x01	; 1
    243e:	e9 ea       	ldi	r30, 0xA9	; 169
    2440:	f1 e0       	ldi	r31, 0x01	; 1
    2442:	c3 51       	subi	r28, 0x13	; 19
    2444:	de 4f       	sbci	r29, 0xFE	; 254
    2446:	f9 83       	std	Y+1, r31	; 0x01
    2448:	e8 83       	st	Y, r30
    244a:	cd 5e       	subi	r28, 0xED	; 237
    244c:	d1 40       	sbci	r29, 0x01	; 1
    244e:	ed ea       	ldi	r30, 0xAD	; 173
    2450:	f1 e0       	ldi	r31, 0x01	; 1
    2452:	c1 51       	subi	r28, 0x11	; 17
    2454:	de 4f       	sbci	r29, 0xFE	; 254
    2456:	f9 83       	std	Y+1, r31	; 0x01
    2458:	e8 83       	st	Y, r30
    245a:	cf 5e       	subi	r28, 0xEF	; 239
    245c:	d1 40       	sbci	r29, 0x01	; 1
    245e:	a1 eb       	ldi	r26, 0xB1	; 177
    2460:	b1 e0       	ldi	r27, 0x01	; 1
    2462:	cf 50       	subi	r28, 0x0F	; 15
    2464:	de 4f       	sbci	r29, 0xFE	; 254
    2466:	b9 83       	std	Y+1, r27	; 0x01
    2468:	a8 83       	st	Y, r26
    246a:	c1 5f       	subi	r28, 0xF1	; 241
    246c:	d1 40       	sbci	r29, 0x01	; 1
    246e:	a5 eb       	ldi	r26, 0xB5	; 181
    2470:	b1 e0       	ldi	r27, 0x01	; 1
    2472:	cd 50       	subi	r28, 0x0D	; 13
    2474:	de 4f       	sbci	r29, 0xFE	; 254
    2476:	b9 83       	std	Y+1, r27	; 0x01
    2478:	a8 83       	st	Y, r26
    247a:	c3 5f       	subi	r28, 0xF3	; 243
    247c:	d1 40       	sbci	r29, 0x01	; 1
    247e:	a9 eb       	ldi	r26, 0xB9	; 185
    2480:	b1 e0       	ldi	r27, 0x01	; 1
    2482:	cb 50       	subi	r28, 0x0B	; 11
    2484:	de 4f       	sbci	r29, 0xFE	; 254
    2486:	b9 83       	std	Y+1, r27	; 0x01
    2488:	a8 83       	st	Y, r26
    248a:	c5 5f       	subi	r28, 0xF5	; 245
    248c:	d1 40       	sbci	r29, 0x01	; 1
    248e:	ad eb       	ldi	r26, 0xBD	; 189
    2490:	b1 e0       	ldi	r27, 0x01	; 1
    2492:	c9 50       	subi	r28, 0x09	; 9
    2494:	de 4f       	sbci	r29, 0xFE	; 254
    2496:	b9 83       	std	Y+1, r27	; 0x01
    2498:	a8 83       	st	Y, r26
    249a:	c7 5f       	subi	r28, 0xF7	; 247
    249c:	d1 40       	sbci	r29, 0x01	; 1
    249e:	a1 ec       	ldi	r26, 0xC1	; 193
    24a0:	b1 e0       	ldi	r27, 0x01	; 1
    24a2:	c7 50       	subi	r28, 0x07	; 7
    24a4:	de 4f       	sbci	r29, 0xFE	; 254
    24a6:	b9 83       	std	Y+1, r27	; 0x01
    24a8:	a8 83       	st	Y, r26
    24aa:	c9 5f       	subi	r28, 0xF9	; 249
    24ac:	d1 40       	sbci	r29, 0x01	; 1
    24ae:	a5 ec       	ldi	r26, 0xC5	; 197
    24b0:	b1 e0       	ldi	r27, 0x01	; 1
    24b2:	c5 50       	subi	r28, 0x05	; 5
    24b4:	de 4f       	sbci	r29, 0xFE	; 254
    24b6:	b9 83       	std	Y+1, r27	; 0x01
    24b8:	a8 83       	st	Y, r26
    24ba:	cb 5f       	subi	r28, 0xFB	; 251
    24bc:	d1 40       	sbci	r29, 0x01	; 1
    24be:	a9 ec       	ldi	r26, 0xC9	; 201
    24c0:	b1 e0       	ldi	r27, 0x01	; 1
    24c2:	c3 50       	subi	r28, 0x03	; 3
    24c4:	de 4f       	sbci	r29, 0xFE	; 254
    24c6:	b9 83       	std	Y+1, r27	; 0x01
    24c8:	a8 83       	st	Y, r26
    24ca:	cd 5f       	subi	r28, 0xFD	; 253
    24cc:	d1 40       	sbci	r29, 0x01	; 1
    24ce:	ad ec       	ldi	r26, 0xCD	; 205
    24d0:	b1 e0       	ldi	r27, 0x01	; 1
    24d2:	c1 50       	subi	r28, 0x01	; 1
    24d4:	de 4f       	sbci	r29, 0xFE	; 254
    24d6:	b9 83       	std	Y+1, r27	; 0x01
    24d8:	a8 83       	st	Y, r26
    24da:	cf 5f       	subi	r28, 0xFF	; 255
    24dc:	d1 40       	sbci	r29, 0x01	; 1
    24de:	a1 ed       	ldi	r26, 0xD1	; 209
    24e0:	b1 e0       	ldi	r27, 0x01	; 1
    24e2:	cf 5f       	subi	r28, 0xFF	; 255
    24e4:	dd 4f       	sbci	r29, 0xFD	; 253
    24e6:	b9 83       	std	Y+1, r27	; 0x01
    24e8:	a8 83       	st	Y, r26
    24ea:	c1 50       	subi	r28, 0x01	; 1
    24ec:	d2 40       	sbci	r29, 0x02	; 2
    24ee:	05 ed       	ldi	r16, 0xD5	; 213
    24f0:	11 e0       	ldi	r17, 0x01	; 1
    24f2:	cd 5f       	subi	r28, 0xFD	; 253
    24f4:	dd 4f       	sbci	r29, 0xFD	; 253
    24f6:	19 83       	std	Y+1, r17	; 0x01
    24f8:	08 83       	st	Y, r16
    24fa:	c3 50       	subi	r28, 0x03	; 3
    24fc:	d2 40       	sbci	r29, 0x02	; 2
    24fe:	a9 ed       	ldi	r26, 0xD9	; 217
    2500:	b1 e0       	ldi	r27, 0x01	; 1
    2502:	cb 5f       	subi	r28, 0xFB	; 251
    2504:	dd 4f       	sbci	r29, 0xFD	; 253
    2506:	b9 83       	std	Y+1, r27	; 0x01
    2508:	a8 83       	st	Y, r26
    250a:	c5 50       	subi	r28, 0x05	; 5
    250c:	d2 40       	sbci	r29, 0x02	; 2
    250e:	ad ed       	ldi	r26, 0xDD	; 221
    2510:	b1 e0       	ldi	r27, 0x01	; 1
    2512:	c9 5f       	subi	r28, 0xF9	; 249
    2514:	dd 4f       	sbci	r29, 0xFD	; 253
    2516:	b9 83       	std	Y+1, r27	; 0x01
    2518:	a8 83       	st	Y, r26
    251a:	c7 50       	subi	r28, 0x07	; 7
    251c:	d2 40       	sbci	r29, 0x02	; 2
    251e:	a1 ee       	ldi	r26, 0xE1	; 225
    2520:	b1 e0       	ldi	r27, 0x01	; 1
    2522:	c7 5f       	subi	r28, 0xF7	; 247
    2524:	dd 4f       	sbci	r29, 0xFD	; 253
    2526:	b9 83       	std	Y+1, r27	; 0x01
    2528:	a8 83       	st	Y, r26
    252a:	c9 50       	subi	r28, 0x09	; 9
    252c:	d2 40       	sbci	r29, 0x02	; 2
    252e:	a5 ee       	ldi	r26, 0xE5	; 229
    2530:	b1 e0       	ldi	r27, 0x01	; 1
    2532:	c5 5f       	subi	r28, 0xF5	; 245
    2534:	dd 4f       	sbci	r29, 0xFD	; 253
    2536:	b9 83       	std	Y+1, r27	; 0x01
    2538:	a8 83       	st	Y, r26
    253a:	cb 50       	subi	r28, 0x0B	; 11
    253c:	d2 40       	sbci	r29, 0x02	; 2
    253e:	a9 ee       	ldi	r26, 0xE9	; 233
    2540:	b1 e0       	ldi	r27, 0x01	; 1
    2542:	c3 5f       	subi	r28, 0xF3	; 243
    2544:	dd 4f       	sbci	r29, 0xFD	; 253
    2546:	b9 83       	std	Y+1, r27	; 0x01
    2548:	a8 83       	st	Y, r26
    254a:	cd 50       	subi	r28, 0x0D	; 13
    254c:	d2 40       	sbci	r29, 0x02	; 2
    254e:	ad ee       	ldi	r26, 0xED	; 237
    2550:	b1 e0       	ldi	r27, 0x01	; 1
    2552:	c1 5f       	subi	r28, 0xF1	; 241
    2554:	dd 4f       	sbci	r29, 0xFD	; 253
    2556:	b9 83       	std	Y+1, r27	; 0x01
    2558:	a8 83       	st	Y, r26
    255a:	cf 50       	subi	r28, 0x0F	; 15
    255c:	d2 40       	sbci	r29, 0x02	; 2
    255e:	a1 ef       	ldi	r26, 0xF1	; 241
    2560:	b1 e0       	ldi	r27, 0x01	; 1
    2562:	cf 5e       	subi	r28, 0xEF	; 239
    2564:	dd 4f       	sbci	r29, 0xFD	; 253
    2566:	b9 83       	std	Y+1, r27	; 0x01
    2568:	a8 83       	st	Y, r26
    256a:	c1 51       	subi	r28, 0x11	; 17
    256c:	d2 40       	sbci	r29, 0x02	; 2
    256e:	a5 ef       	ldi	r26, 0xF5	; 245
    2570:	b1 e0       	ldi	r27, 0x01	; 1
    2572:	cd 5e       	subi	r28, 0xED	; 237
    2574:	dd 4f       	sbci	r29, 0xFD	; 253
    2576:	b9 83       	std	Y+1, r27	; 0x01
    2578:	a8 83       	st	Y, r26
    257a:	c3 51       	subi	r28, 0x13	; 19
    257c:	d2 40       	sbci	r29, 0x02	; 2
    257e:	a9 ef       	ldi	r26, 0xF9	; 249
    2580:	b1 e0       	ldi	r27, 0x01	; 1
    2582:	cb 5e       	subi	r28, 0xEB	; 235
    2584:	dd 4f       	sbci	r29, 0xFD	; 253
    2586:	b9 83       	std	Y+1, r27	; 0x01
    2588:	a8 83       	st	Y, r26
    258a:	c5 51       	subi	r28, 0x15	; 21
    258c:	d2 40       	sbci	r29, 0x02	; 2
    258e:	ad ef       	ldi	r26, 0xFD	; 253
    2590:	b1 e0       	ldi	r27, 0x01	; 1
    2592:	c9 5e       	subi	r28, 0xE9	; 233
    2594:	dd 4f       	sbci	r29, 0xFD	; 253
    2596:	b9 83       	std	Y+1, r27	; 0x01
    2598:	a8 83       	st	Y, r26
    259a:	c7 51       	subi	r28, 0x17	; 23
    259c:	d2 40       	sbci	r29, 0x02	; 2
    259e:	ac ee       	ldi	r26, 0xEC	; 236
    25a0:	b4 ee       	ldi	r27, 0xE4	; 228
    25a2:	c7 5e       	subi	r28, 0xE7	; 231
    25a4:	dd 4f       	sbci	r29, 0xFD	; 253
    25a6:	b9 83       	std	Y+1, r27	; 0x01
    25a8:	a8 83       	st	Y, r26
    25aa:	c9 51       	subi	r28, 0x19	; 25
    25ac:	d2 40       	sbci	r29, 0x02	; 2
    25ae:	a1 ef       	ldi	r26, 0xF1	; 241
    25b0:	ba e4       	ldi	r27, 0x4A	; 74
    25b2:	c5 5e       	subi	r28, 0xE5	; 229
    25b4:	dd 4f       	sbci	r29, 0xFD	; 253
    25b6:	b9 83       	std	Y+1, r27	; 0x01
    25b8:	a8 83       	st	Y, r26
    25ba:	cb 51       	subi	r28, 0x1B	; 27
    25bc:	d2 40       	sbci	r29, 0x02	; 2
    25be:	a4 eb       	ldi	r26, 0xB4	; 180
    25c0:	b9 e2       	ldi	r27, 0x29	; 41
    25c2:	c3 5e       	subi	r28, 0xE3	; 227
    25c4:	dd 4f       	sbci	r29, 0xFD	; 253
    25c6:	b9 83       	std	Y+1, r27	; 0x01
    25c8:	a8 83       	st	Y, r26
    25ca:	cd 51       	subi	r28, 0x1D	; 29
    25cc:	d2 40       	sbci	r29, 0x02	; 2
    25ce:	a3 ef       	ldi	r26, 0xF3	; 243
    25d0:	bb e1       	ldi	r27, 0x1B	; 27
    25d2:	c1 5e       	subi	r28, 0xE1	; 225
    25d4:	dd 4f       	sbci	r29, 0xFD	; 253
    25d6:	b9 83       	std	Y+1, r27	; 0x01
    25d8:	a8 83       	st	Y, r26
    25da:	cf 51       	subi	r28, 0x1F	; 31
    25dc:	d2 40       	sbci	r29, 0x02	; 2
    25de:	af e9       	ldi	r26, 0x9F	; 159
    25e0:	b4 e1       	ldi	r27, 0x14	; 20
    25e2:	cf 5d       	subi	r28, 0xDF	; 223
    25e4:	dd 4f       	sbci	r29, 0xFD	; 253
    25e6:	b9 83       	std	Y+1, r27	; 0x01
    25e8:	a8 83       	st	Y, r26
    25ea:	c1 52       	subi	r28, 0x21	; 33
    25ec:	d2 40       	sbci	r29, 0x02	; 2
    25ee:	a2 e2       	ldi	r26, 0x22	; 34
    25f0:	b0 e1       	ldi	r27, 0x10	; 16
    25f2:	cd 5d       	subi	r28, 0xDD	; 221
    25f4:	dd 4f       	sbci	r29, 0xFD	; 253
    25f6:	b9 83       	std	Y+1, r27	; 0x01
    25f8:	a8 83       	st	Y, r26
    25fa:	c3 52       	subi	r28, 0x23	; 35
    25fc:	d2 40       	sbci	r29, 0x02	; 2
    25fe:	a2 e2       	ldi	r26, 0x22	; 34
    2600:	bd e0       	ldi	r27, 0x0D	; 13
    2602:	cb 5d       	subi	r28, 0xDB	; 219
    2604:	dd 4f       	sbci	r29, 0xFD	; 253
    2606:	b9 83       	std	Y+1, r27	; 0x01
    2608:	a8 83       	st	Y, r26
    260a:	c5 52       	subi	r28, 0x25	; 37
    260c:	d2 40       	sbci	r29, 0x02	; 2
    260e:	a1 e0       	ldi	r26, 0x01	; 1
    2610:	bb e0       	ldi	r27, 0x0B	; 11
    2612:	c9 5d       	subi	r28, 0xD9	; 217
    2614:	dd 4f       	sbci	r29, 0xFD	; 253
    2616:	b9 83       	std	Y+1, r27	; 0x01
    2618:	a8 83       	st	Y, r26
    261a:	c7 52       	subi	r28, 0x27	; 39
    261c:	d2 40       	sbci	r29, 0x02	; 2
    261e:	ab e6       	ldi	r26, 0x6B	; 107
    2620:	b9 e0       	ldi	r27, 0x09	; 9
    2622:	c7 5d       	subi	r28, 0xD7	; 215
    2624:	dd 4f       	sbci	r29, 0xFD	; 253
    2626:	b9 83       	std	Y+1, r27	; 0x01
    2628:	a8 83       	st	Y, r26
    262a:	c9 52       	subi	r28, 0x29	; 41
    262c:	d2 40       	sbci	r29, 0x02	; 2
    262e:	a3 e3       	ldi	r26, 0x33	; 51
    2630:	b8 e0       	ldi	r27, 0x08	; 8
    2632:	c5 5d       	subi	r28, 0xD5	; 213
    2634:	dd 4f       	sbci	r29, 0xFD	; 253
    2636:	b9 83       	std	Y+1, r27	; 0x01
    2638:	a8 83       	st	Y, r26
    263a:	cb 52       	subi	r28, 0x2B	; 43
    263c:	d2 40       	sbci	r29, 0x02	; 2
    263e:	ac e3       	ldi	r26, 0x3C	; 60
    2640:	b7 e0       	ldi	r27, 0x07	; 7
    2642:	c3 5d       	subi	r28, 0xD3	; 211
    2644:	dd 4f       	sbci	r29, 0xFD	; 253
    2646:	b9 83       	std	Y+1, r27	; 0x01
    2648:	a8 83       	st	Y, r26
    264a:	cd 52       	subi	r28, 0x2D	; 45
    264c:	d2 40       	sbci	r29, 0x02	; 2
    264e:	a5 e7       	ldi	r26, 0x75	; 117
    2650:	b6 e0       	ldi	r27, 0x06	; 6
    2652:	c1 5d       	subi	r28, 0xD1	; 209
    2654:	dd 4f       	sbci	r29, 0xFD	; 253
    2656:	b9 83       	std	Y+1, r27	; 0x01
    2658:	a8 83       	st	Y, r26
    265a:	cf 52       	subi	r28, 0x2F	; 47
    265c:	d2 40       	sbci	r29, 0x02	; 2
    265e:	a1 ed       	ldi	r26, 0xD1	; 209
    2660:	b5 e0       	ldi	r27, 0x05	; 5
    2662:	cf 5c       	subi	r28, 0xCF	; 207
    2664:	dd 4f       	sbci	r29, 0xFD	; 253
    2666:	b9 83       	std	Y+1, r27	; 0x01
    2668:	a8 83       	st	Y, r26
    266a:	c1 53       	subi	r28, 0x31	; 49
    266c:	d2 40       	sbci	r29, 0x02	; 2
    266e:	a8 e4       	ldi	r26, 0x48	; 72
    2670:	b5 e0       	ldi	r27, 0x05	; 5
    2672:	cd 5c       	subi	r28, 0xCD	; 205
    2674:	dd 4f       	sbci	r29, 0xFD	; 253
    2676:	b9 83       	std	Y+1, r27	; 0x01
    2678:	a8 83       	st	Y, r26
    267a:	c3 53       	subi	r28, 0x33	; 51
    267c:	d2 40       	sbci	r29, 0x02	; 2
    267e:	a4 ed       	ldi	r26, 0xD4	; 212
    2680:	b4 e0       	ldi	r27, 0x04	; 4
    2682:	cb 5c       	subi	r28, 0xCB	; 203
    2684:	dd 4f       	sbci	r29, 0xFD	; 253
    2686:	b9 83       	std	Y+1, r27	; 0x01
    2688:	a8 83       	st	Y, r26
    268a:	c5 53       	subi	r28, 0x35	; 53
    268c:	d2 40       	sbci	r29, 0x02	; 2
    268e:	a0 e7       	ldi	r26, 0x70	; 112
    2690:	b4 e0       	ldi	r27, 0x04	; 4
    2692:	c9 5c       	subi	r28, 0xC9	; 201
    2694:	dd 4f       	sbci	r29, 0xFD	; 253
    2696:	b9 83       	std	Y+1, r27	; 0x01
    2698:	a8 83       	st	Y, r26
    269a:	c7 53       	subi	r28, 0x37	; 55
    269c:	d2 40       	sbci	r29, 0x02	; 2
    269e:	aa e1       	ldi	r26, 0x1A	; 26
    26a0:	b4 e0       	ldi	r27, 0x04	; 4
    26a2:	c7 5c       	subi	r28, 0xC7	; 199
    26a4:	dd 4f       	sbci	r29, 0xFD	; 253
    26a6:	b9 83       	std	Y+1, r27	; 0x01
    26a8:	a8 83       	st	Y, r26
    26aa:	c9 53       	subi	r28, 0x39	; 57
    26ac:	d2 40       	sbci	r29, 0x02	; 2
    26ae:	af ec       	ldi	r26, 0xCF	; 207
    26b0:	b3 e0       	ldi	r27, 0x03	; 3
    26b2:	c5 5c       	subi	r28, 0xC5	; 197
    26b4:	dd 4f       	sbci	r29, 0xFD	; 253
    26b6:	b9 83       	std	Y+1, r27	; 0x01
    26b8:	a8 83       	st	Y, r26
    26ba:	cb 53       	subi	r28, 0x3B	; 59
    26bc:	d2 40       	sbci	r29, 0x02	; 2
    26be:	ad e8       	ldi	r26, 0x8D	; 141
    26c0:	b3 e0       	ldi	r27, 0x03	; 3
    26c2:	c3 5c       	subi	r28, 0xC3	; 195
    26c4:	dd 4f       	sbci	r29, 0xFD	; 253
    26c6:	b9 83       	std	Y+1, r27	; 0x01
    26c8:	a8 83       	st	Y, r26
    26ca:	cd 53       	subi	r28, 0x3D	; 61
    26cc:	d2 40       	sbci	r29, 0x02	; 2
    26ce:	a3 e5       	ldi	r26, 0x53	; 83
    26d0:	b3 e0       	ldi	r27, 0x03	; 3
    26d2:	c1 5c       	subi	r28, 0xC1	; 193
    26d4:	dd 4f       	sbci	r29, 0xFD	; 253
    26d6:	b9 83       	std	Y+1, r27	; 0x01
    26d8:	a8 83       	st	Y, r26
    26da:	cf 53       	subi	r28, 0x3F	; 63
    26dc:	d2 40       	sbci	r29, 0x02	; 2
    26de:	af e1       	ldi	r26, 0x1F	; 31
    26e0:	b3 e0       	ldi	r27, 0x03	; 3
    26e2:	cf 5b       	subi	r28, 0xBF	; 191
    26e4:	dd 4f       	sbci	r29, 0xFD	; 253
    26e6:	b9 83       	std	Y+1, r27	; 0x01
    26e8:	a8 83       	st	Y, r26
    26ea:	c1 54       	subi	r28, 0x41	; 65
    26ec:	d2 40       	sbci	r29, 0x02	; 2
    26ee:	a0 ef       	ldi	r26, 0xF0	; 240
    26f0:	b2 e0       	ldi	r27, 0x02	; 2
    26f2:	cd 5b       	subi	r28, 0xBD	; 189
    26f4:	dd 4f       	sbci	r29, 0xFD	; 253
    26f6:	b9 83       	std	Y+1, r27	; 0x01
    26f8:	a8 83       	st	Y, r26
    26fa:	c3 54       	subi	r28, 0x43	; 67
    26fc:	d2 40       	sbci	r29, 0x02	; 2
    26fe:	a6 ec       	ldi	r26, 0xC6	; 198
    2700:	b2 e0       	ldi	r27, 0x02	; 2
    2702:	cb 5b       	subi	r28, 0xBB	; 187
    2704:	dd 4f       	sbci	r29, 0xFD	; 253
    2706:	b9 83       	std	Y+1, r27	; 0x01
    2708:	a8 83       	st	Y, r26
    270a:	c5 54       	subi	r28, 0x45	; 69
    270c:	d2 40       	sbci	r29, 0x02	; 2
    270e:	a0 ea       	ldi	r26, 0xA0	; 160
    2710:	b2 e0       	ldi	r27, 0x02	; 2
    2712:	c9 5b       	subi	r28, 0xB9	; 185
    2714:	dd 4f       	sbci	r29, 0xFD	; 253
    2716:	b9 83       	std	Y+1, r27	; 0x01
    2718:	a8 83       	st	Y, r26
    271a:	c7 54       	subi	r28, 0x47	; 71
    271c:	d2 40       	sbci	r29, 0x02	; 2
    271e:	ae e7       	ldi	r26, 0x7E	; 126
    2720:	b2 e0       	ldi	r27, 0x02	; 2
    2722:	c7 5b       	subi	r28, 0xB7	; 183
    2724:	dd 4f       	sbci	r29, 0xFD	; 253
    2726:	b9 83       	std	Y+1, r27	; 0x01
    2728:	a8 83       	st	Y, r26
    272a:	c9 54       	subi	r28, 0x49	; 73
    272c:	d2 40       	sbci	r29, 0x02	; 2
    272e:	ae e5       	ldi	r26, 0x5E	; 94
    2730:	b2 e0       	ldi	r27, 0x02	; 2
    2732:	c5 5b       	subi	r28, 0xB5	; 181
    2734:	dd 4f       	sbci	r29, 0xFD	; 253
    2736:	b9 83       	std	Y+1, r27	; 0x01
    2738:	a8 83       	st	Y, r26
    273a:	cb 54       	subi	r28, 0x4B	; 75
    273c:	d2 40       	sbci	r29, 0x02	; 2
    273e:	a1 e4       	ldi	r26, 0x41	; 65
    2740:	b2 e0       	ldi	r27, 0x02	; 2
    2742:	c3 5b       	subi	r28, 0xB3	; 179
    2744:	dd 4f       	sbci	r29, 0xFD	; 253
    2746:	b9 83       	std	Y+1, r27	; 0x01
    2748:	a8 83       	st	Y, r26
    274a:	cd 54       	subi	r28, 0x4D	; 77
    274c:	d2 40       	sbci	r29, 0x02	; 2
    274e:	a7 e2       	ldi	r26, 0x27	; 39
    2750:	b2 e0       	ldi	r27, 0x02	; 2
    2752:	c1 5b       	subi	r28, 0xB1	; 177
    2754:	dd 4f       	sbci	r29, 0xFD	; 253
    2756:	b9 83       	std	Y+1, r27	; 0x01
    2758:	a8 83       	st	Y, r26
    275a:	cf 54       	subi	r28, 0x4F	; 79
    275c:	d2 40       	sbci	r29, 0x02	; 2
    275e:	ae e0       	ldi	r26, 0x0E	; 14
    2760:	b2 e0       	ldi	r27, 0x02	; 2
    2762:	cf 5a       	subi	r28, 0xAF	; 175
    2764:	dd 4f       	sbci	r29, 0xFD	; 253
    2766:	b9 83       	std	Y+1, r27	; 0x01
    2768:	a8 83       	st	Y, r26
    276a:	c1 55       	subi	r28, 0x51	; 81
    276c:	d2 40       	sbci	r29, 0x02	; 2
    276e:	a8 ef       	ldi	r26, 0xF8	; 248
    2770:	b1 e0       	ldi	r27, 0x01	; 1
    2772:	cd 5a       	subi	r28, 0xAD	; 173
    2774:	dd 4f       	sbci	r29, 0xFD	; 253
    2776:	b9 83       	std	Y+1, r27	; 0x01
    2778:	a8 83       	st	Y, r26
    277a:	c3 55       	subi	r28, 0x53	; 83
    277c:	d2 40       	sbci	r29, 0x02	; 2
    277e:	a3 ee       	ldi	r26, 0xE3	; 227
    2780:	b1 e0       	ldi	r27, 0x01	; 1
    2782:	cb 5a       	subi	r28, 0xAB	; 171
    2784:	dd 4f       	sbci	r29, 0xFD	; 253
    2786:	b9 83       	std	Y+1, r27	; 0x01
    2788:	a8 83       	st	Y, r26
    278a:	c5 55       	subi	r28, 0x55	; 85
    278c:	d2 40       	sbci	r29, 0x02	; 2
    278e:	a0 ed       	ldi	r26, 0xD0	; 208
    2790:	b1 e0       	ldi	r27, 0x01	; 1
    2792:	c9 5a       	subi	r28, 0xA9	; 169
    2794:	dd 4f       	sbci	r29, 0xFD	; 253
    2796:	b9 83       	std	Y+1, r27	; 0x01
    2798:	a8 83       	st	Y, r26
    279a:	c7 55       	subi	r28, 0x57	; 87
    279c:	d2 40       	sbci	r29, 0x02	; 2
    279e:	0e eb       	ldi	r16, 0xBE	; 190
    27a0:	11 e0       	ldi	r17, 0x01	; 1
    27a2:	c7 5a       	subi	r28, 0xA7	; 167
    27a4:	dd 4f       	sbci	r29, 0xFD	; 253
    27a6:	19 83       	std	Y+1, r17	; 0x01
    27a8:	08 83       	st	Y, r16
    27aa:	c9 55       	subi	r28, 0x59	; 89
    27ac:	d2 40       	sbci	r29, 0x02	; 2
    27ae:	c5 5a       	subi	r28, 0xA5	; 165
    27b0:	dd 4f       	sbci	r29, 0xFD	; 253
    27b2:	f9 83       	std	Y+1, r31	; 0x01
    27b4:	e8 83       	st	Y, r30
    27b6:	cb 55       	subi	r28, 0x5B	; 91
    27b8:	d2 40       	sbci	r29, 0x02	; 2
    27ba:	c3 5a       	subi	r28, 0xA3	; 163
    27bc:	dd 4f       	sbci	r29, 0xFD	; 253
    27be:	79 83       	std	Y+1, r23	; 0x01
    27c0:	68 83       	st	Y, r22
    27c2:	cd 55       	subi	r28, 0x5D	; 93
    27c4:	d2 40       	sbci	r29, 0x02	; 2
    27c6:	6e e8       	ldi	r22, 0x8E	; 142
    27c8:	71 e0       	ldi	r23, 0x01	; 1
    27ca:	c1 5a       	subi	r28, 0xA1	; 161
    27cc:	dd 4f       	sbci	r29, 0xFD	; 253
    27ce:	79 83       	std	Y+1, r23	; 0x01
    27d0:	68 83       	st	Y, r22
    27d2:	cf 55       	subi	r28, 0x5F	; 95
    27d4:	d2 40       	sbci	r29, 0x02	; 2
    27d6:	cf 59       	subi	r28, 0x9F	; 159
    27d8:	dd 4f       	sbci	r29, 0xFD	; 253
    27da:	39 82       	std	Y+1, r3	; 0x01
    27dc:	28 82       	st	Y, r2
    27de:	c1 56       	subi	r28, 0x61	; 97
    27e0:	d2 40       	sbci	r29, 0x02	; 2
    27e2:	64 e7       	ldi	r22, 0x74	; 116
    27e4:	71 e0       	ldi	r23, 0x01	; 1
    27e6:	cd 59       	subi	r28, 0x9D	; 157
    27e8:	dd 4f       	sbci	r29, 0xFD	; 253
    27ea:	79 83       	std	Y+1, r23	; 0x01
    27ec:	68 83       	st	Y, r22
    27ee:	c3 56       	subi	r28, 0x63	; 99
    27f0:	d2 40       	sbci	r29, 0x02	; 2
    27f2:	67 e6       	ldi	r22, 0x67	; 103
    27f4:	71 e0       	ldi	r23, 0x01	; 1
    27f6:	cb 59       	subi	r28, 0x9B	; 155
    27f8:	dd 4f       	sbci	r29, 0xFD	; 253
    27fa:	79 83       	std	Y+1, r23	; 0x01
    27fc:	68 83       	st	Y, r22
    27fe:	c5 56       	subi	r28, 0x65	; 101
    2800:	d2 40       	sbci	r29, 0x02	; 2
    2802:	6c e5       	ldi	r22, 0x5C	; 92
    2804:	71 e0       	ldi	r23, 0x01	; 1
    2806:	c9 59       	subi	r28, 0x99	; 153
    2808:	dd 4f       	sbci	r29, 0xFD	; 253
    280a:	79 83       	std	Y+1, r23	; 0x01
    280c:	68 83       	st	Y, r22
    280e:	c7 56       	subi	r28, 0x67	; 103
    2810:	d2 40       	sbci	r29, 0x02	; 2
    2812:	c7 59       	subi	r28, 0x97	; 151
    2814:	dd 4f       	sbci	r29, 0xFD	; 253
    2816:	59 83       	std	Y+1, r21	; 0x01
    2818:	48 83       	st	Y, r20
    281a:	c9 56       	subi	r28, 0x69	; 105
    281c:	d2 40       	sbci	r29, 0x02	; 2
    281e:	47 e4       	ldi	r20, 0x47	; 71
    2820:	51 e0       	ldi	r21, 0x01	; 1
    2822:	c5 59       	subi	r28, 0x95	; 149
    2824:	dd 4f       	sbci	r29, 0xFD	; 253
    2826:	59 83       	std	Y+1, r21	; 0x01
    2828:	48 83       	st	Y, r20
    282a:	cb 56       	subi	r28, 0x6B	; 107
    282c:	d2 40       	sbci	r29, 0x02	; 2
    282e:	c3 59       	subi	r28, 0x93	; 147
    2830:	dd 4f       	sbci	r29, 0xFD	; 253
    2832:	39 83       	std	Y+1, r19	; 0x01
    2834:	28 83       	st	Y, r18
    2836:	cd 56       	subi	r28, 0x6D	; 109
    2838:	d2 40       	sbci	r29, 0x02	; 2
    283a:	24 e3       	ldi	r18, 0x34	; 52
    283c:	31 e0       	ldi	r19, 0x01	; 1
    283e:	c1 59       	subi	r28, 0x91	; 145
    2840:	dd 4f       	sbci	r29, 0xFD	; 253
    2842:	39 83       	std	Y+1, r19	; 0x01
    2844:	28 83       	st	Y, r18
    2846:	cf 56       	subi	r28, 0x6F	; 111
    2848:	d2 40       	sbci	r29, 0x02	; 2
    284a:	2b e2       	ldi	r18, 0x2B	; 43
    284c:	31 e0       	ldi	r19, 0x01	; 1
    284e:	cf 58       	subi	r28, 0x8F	; 143
    2850:	dd 4f       	sbci	r29, 0xFD	; 253
    2852:	39 83       	std	Y+1, r19	; 0x01
    2854:	28 83       	st	Y, r18
    2856:	c1 57       	subi	r28, 0x71	; 113
    2858:	d2 40       	sbci	r29, 0x02	; 2
    285a:	43 e2       	ldi	r20, 0x23	; 35
    285c:	51 e0       	ldi	r21, 0x01	; 1
    285e:	cd 58       	subi	r28, 0x8D	; 141
    2860:	dd 4f       	sbci	r29, 0xFD	; 253
    2862:	59 83       	std	Y+1, r21	; 0x01
    2864:	48 83       	st	Y, r20
    2866:	c3 57       	subi	r28, 0x73	; 115
    2868:	d2 40       	sbci	r29, 0x02	; 2
    286a:	2b e1       	ldi	r18, 0x1B	; 27
    286c:	31 e0       	ldi	r19, 0x01	; 1
    286e:	cb 58       	subi	r28, 0x8B	; 139
    2870:	dd 4f       	sbci	r29, 0xFD	; 253
    2872:	39 83       	std	Y+1, r19	; 0x01
    2874:	28 83       	st	Y, r18
    2876:	c5 57       	subi	r28, 0x75	; 117
    2878:	d2 40       	sbci	r29, 0x02	; 2
    287a:	23 e1       	ldi	r18, 0x13	; 19
    287c:	31 e0       	ldi	r19, 0x01	; 1
    287e:	c9 58       	subi	r28, 0x89	; 137
    2880:	dd 4f       	sbci	r29, 0xFD	; 253
    2882:	39 83       	std	Y+1, r19	; 0x01
    2884:	28 83       	st	Y, r18
    2886:	c7 57       	subi	r28, 0x77	; 119
    2888:	d2 40       	sbci	r29, 0x02	; 2
    288a:	2c e0       	ldi	r18, 0x0C	; 12
    288c:	31 e0       	ldi	r19, 0x01	; 1
    288e:	c7 58       	subi	r28, 0x87	; 135
    2890:	dd 4f       	sbci	r29, 0xFD	; 253
    2892:	39 83       	std	Y+1, r19	; 0x01
    2894:	28 83       	st	Y, r18
    2896:	c9 57       	subi	r28, 0x79	; 121
    2898:	d2 40       	sbci	r29, 0x02	; 2
    289a:	c5 58       	subi	r28, 0x85	; 133
    289c:	dd 4f       	sbci	r29, 0xFD	; 253
    289e:	59 82       	std	Y+1, r5	; 0x01
    28a0:	48 82       	st	Y, r4
    28a2:	cb 57       	subi	r28, 0x7B	; 123
    28a4:	d2 40       	sbci	r29, 0x02	; 2
    28a6:	2f ef       	ldi	r18, 0xFF	; 255
    28a8:	30 e0       	ldi	r19, 0x00	; 0
    28aa:	c3 58       	subi	r28, 0x83	; 131
    28ac:	dd 4f       	sbci	r29, 0xFD	; 253
    28ae:	39 83       	std	Y+1, r19	; 0x01
    28b0:	28 83       	st	Y, r18
    28b2:	cd 57       	subi	r28, 0x7D	; 125
    28b4:	d2 40       	sbci	r29, 0x02	; 2
    28b6:	68 ef       	ldi	r22, 0xF8	; 248
    28b8:	70 e0       	ldi	r23, 0x00	; 0
    28ba:	c1 58       	subi	r28, 0x81	; 129
    28bc:	dd 4f       	sbci	r29, 0xFD	; 253
    28be:	79 83       	std	Y+1, r23	; 0x01
    28c0:	68 83       	st	Y, r22
    28c2:	cf 57       	subi	r28, 0x7F	; 127
    28c4:	d2 40       	sbci	r29, 0x02	; 2
    28c6:	22 ef       	ldi	r18, 0xF2	; 242
    28c8:	30 e0       	ldi	r19, 0x00	; 0
    28ca:	cf 57       	subi	r28, 0x7F	; 127
    28cc:	dd 4f       	sbci	r29, 0xFD	; 253
    28ce:	39 83       	std	Y+1, r19	; 0x01
    28d0:	28 83       	st	Y, r18
    28d2:	c1 58       	subi	r28, 0x81	; 129
    28d4:	d2 40       	sbci	r29, 0x02	; 2
    28d6:	cd 57       	subi	r28, 0x7D	; 125
    28d8:	dd 4f       	sbci	r29, 0xFD	; 253
    28da:	99 83       	std	Y+1, r25	; 0x01
    28dc:	88 83       	st	Y, r24
    28de:	c3 58       	subi	r28, 0x83	; 131
    28e0:	d2 40       	sbci	r29, 0x02	; 2
    28e2:	87 ee       	ldi	r24, 0xE7	; 231
    28e4:	90 e0       	ldi	r25, 0x00	; 0
    28e6:	cb 57       	subi	r28, 0x7B	; 123
    28e8:	dd 4f       	sbci	r29, 0xFD	; 253
    28ea:	99 83       	std	Y+1, r25	; 0x01
    28ec:	88 83       	st	Y, r24
    28ee:	c5 58       	subi	r28, 0x85	; 133
    28f0:	d2 40       	sbci	r29, 0x02	; 2
    28f2:	82 ee       	ldi	r24, 0xE2	; 226
    28f4:	90 e0       	ldi	r25, 0x00	; 0
    28f6:	c9 57       	subi	r28, 0x79	; 121
    28f8:	dd 4f       	sbci	r29, 0xFD	; 253
    28fa:	99 83       	std	Y+1, r25	; 0x01
    28fc:	88 83       	st	Y, r24
    28fe:	c7 58       	subi	r28, 0x87	; 135
    2900:	d2 40       	sbci	r29, 0x02	; 2
    2902:	c7 57       	subi	r28, 0x77	; 119
    2904:	dd 4f       	sbci	r29, 0xFD	; 253
    2906:	99 82       	std	Y+1, r9	; 0x01
    2908:	88 82       	st	Y, r8
    290a:	c9 58       	subi	r28, 0x89	; 137
    290c:	d2 40       	sbci	r29, 0x02	; 2
    290e:	88 ed       	ldi	r24, 0xD8	; 216
    2910:	90 e0       	ldi	r25, 0x00	; 0
    2912:	c5 57       	subi	r28, 0x75	; 117
    2914:	dd 4f       	sbci	r29, 0xFD	; 253
    2916:	99 83       	std	Y+1, r25	; 0x01
    2918:	88 83       	st	Y, r24
    291a:	cb 58       	subi	r28, 0x8B	; 139
    291c:	d2 40       	sbci	r29, 0x02	; 2
    291e:	83 ed       	ldi	r24, 0xD3	; 211
    2920:	90 e0       	ldi	r25, 0x00	; 0
    2922:	c3 57       	subi	r28, 0x73	; 115
    2924:	dd 4f       	sbci	r29, 0xFD	; 253
    2926:	99 83       	std	Y+1, r25	; 0x01
    2928:	88 83       	st	Y, r24
    292a:	cd 58       	subi	r28, 0x8D	; 141
    292c:	d2 40       	sbci	r29, 0x02	; 2
    292e:	af ec       	ldi	r26, 0xCF	; 207
    2930:	b0 e0       	ldi	r27, 0x00	; 0
    2932:	c1 57       	subi	r28, 0x71	; 113
    2934:	dd 4f       	sbci	r29, 0xFD	; 253
    2936:	b9 83       	std	Y+1, r27	; 0x01
    2938:	a8 83       	st	Y, r26
    293a:	cf 58       	subi	r28, 0x8F	; 143
    293c:	d2 40       	sbci	r29, 0x02	; 2
    293e:	ea ec       	ldi	r30, 0xCA	; 202
    2940:	f0 e0       	ldi	r31, 0x00	; 0
    2942:	cf 56       	subi	r28, 0x6F	; 111
    2944:	dd 4f       	sbci	r29, 0xFD	; 253
    2946:	f9 83       	std	Y+1, r31	; 0x01
    2948:	e8 83       	st	Y, r30
    294a:	c1 59       	subi	r28, 0x91	; 145
    294c:	d2 40       	sbci	r29, 0x02	; 2
    294e:	86 ec       	ldi	r24, 0xC6	; 198
    2950:	90 e0       	ldi	r25, 0x00	; 0
    2952:	cd 56       	subi	r28, 0x6D	; 109
    2954:	dd 4f       	sbci	r29, 0xFD	; 253
    2956:	99 83       	std	Y+1, r25	; 0x01
    2958:	88 83       	st	Y, r24
    295a:	c3 59       	subi	r28, 0x93	; 147
    295c:	d2 40       	sbci	r29, 0x02	; 2
    295e:	02 ec       	ldi	r16, 0xC2	; 194
    2960:	10 e0       	ldi	r17, 0x00	; 0
    2962:	cb 56       	subi	r28, 0x6B	; 107
    2964:	dd 4f       	sbci	r29, 0xFD	; 253
    2966:	19 83       	std	Y+1, r17	; 0x01
    2968:	08 83       	st	Y, r16
    296a:	c5 59       	subi	r28, 0x95	; 149
    296c:	d2 40       	sbci	r29, 0x02	; 2
    296e:	2e eb       	ldi	r18, 0xBE	; 190
    2970:	30 e0       	ldi	r19, 0x00	; 0
    2972:	c9 56       	subi	r28, 0x69	; 105
    2974:	dd 4f       	sbci	r29, 0xFD	; 253
    2976:	39 83       	std	Y+1, r19	; 0x01
    2978:	28 83       	st	Y, r18
    297a:	c7 59       	subi	r28, 0x97	; 151
    297c:	d2 40       	sbci	r29, 0x02	; 2
    297e:	4a eb       	ldi	r20, 0xBA	; 186
    2980:	50 e0       	ldi	r21, 0x00	; 0
    2982:	c7 56       	subi	r28, 0x67	; 103
    2984:	dd 4f       	sbci	r29, 0xFD	; 253
    2986:	59 83       	std	Y+1, r21	; 0x01
    2988:	48 83       	st	Y, r20
    298a:	c9 59       	subi	r28, 0x99	; 153
    298c:	d2 40       	sbci	r29, 0x02	; 2
    298e:	67 eb       	ldi	r22, 0xB7	; 183
    2990:	70 e0       	ldi	r23, 0x00	; 0
    2992:	c5 56       	subi	r28, 0x65	; 101
    2994:	dd 4f       	sbci	r29, 0xFD	; 253
    2996:	79 83       	std	Y+1, r23	; 0x01
    2998:	68 83       	st	Y, r22
    299a:	cb 59       	subi	r28, 0x9B	; 155
    299c:	d2 40       	sbci	r29, 0x02	; 2
    299e:	83 eb       	ldi	r24, 0xB3	; 179
    29a0:	90 e0       	ldi	r25, 0x00	; 0
    29a2:	c3 56       	subi	r28, 0x63	; 99
    29a4:	dd 4f       	sbci	r29, 0xFD	; 253
    29a6:	99 83       	std	Y+1, r25	; 0x01
    29a8:	88 83       	st	Y, r24
    29aa:	cd 59       	subi	r28, 0x9D	; 157
    29ac:	d2 40       	sbci	r29, 0x02	; 2
    29ae:	a0 eb       	ldi	r26, 0xB0	; 176
    29b0:	b0 e0       	ldi	r27, 0x00	; 0
    29b2:	c1 56       	subi	r28, 0x61	; 97
    29b4:	dd 4f       	sbci	r29, 0xFD	; 253
    29b6:	b9 83       	std	Y+1, r27	; 0x01
    29b8:	a8 83       	st	Y, r26
    29ba:	cf 59       	subi	r28, 0x9F	; 159
    29bc:	d2 40       	sbci	r29, 0x02	; 2
    29be:	cf 55       	subi	r28, 0x5F	; 95
    29c0:	dd 4f       	sbci	r29, 0xFD	; 253
    29c2:	b9 82       	std	Y+1, r11	; 0x01
    29c4:	a8 82       	st	Y, r10
    29c6:	c1 5a       	subi	r28, 0xA1	; 161
    29c8:	d2 40       	sbci	r29, 0x02	; 2
    29ca:	cd 55       	subi	r28, 0x5D	; 93
    29cc:	dd 4f       	sbci	r29, 0xFD	; 253
    29ce:	79 82       	std	Y+1, r7	; 0x01
    29d0:	68 82       	st	Y, r6
    29d2:	c3 5a       	subi	r28, 0xA3	; 163
    29d4:	d2 40       	sbci	r29, 0x02	; 2
    29d6:	e6 ea       	ldi	r30, 0xA6	; 166
    29d8:	f0 e0       	ldi	r31, 0x00	; 0
    29da:	cb 55       	subi	r28, 0x5B	; 91
    29dc:	dd 4f       	sbci	r29, 0xFD	; 253
    29de:	f9 83       	std	Y+1, r31	; 0x01
    29e0:	e8 83       	st	Y, r30
    29e2:	c5 5a       	subi	r28, 0xA5	; 165
    29e4:	d2 40       	sbci	r29, 0x02	; 2
    29e6:	c9 55       	subi	r28, 0x59	; 89
    29e8:	dd 4f       	sbci	r29, 0xFD	; 253
    29ea:	f9 82       	std	Y+1, r15	; 0x01
    29ec:	e8 82       	st	Y, r14
    29ee:	c7 5a       	subi	r28, 0xA7	; 167
    29f0:	d2 40       	sbci	r29, 0x02	; 2
    29f2:	83 ea       	ldi	r24, 0xA3	; 163
    29f4:	90 e0       	ldi	r25, 0x00	; 0
    29f6:	c7 55       	subi	r28, 0x57	; 87
    29f8:	dd 4f       	sbci	r29, 0xFD	; 253
    29fa:	99 83       	std	Y+1, r25	; 0x01
    29fc:	88 83       	st	Y, r24
    29fe:	c9 5a       	subi	r28, 0xA9	; 169
    2a00:	d2 40       	sbci	r29, 0x02	; 2
    2a02:	8c e9       	ldi	r24, 0x9C	; 156
    2a04:	90 e0       	ldi	r25, 0x00	; 0
    2a06:	c5 55       	subi	r28, 0x55	; 85
    2a08:	dd 4f       	sbci	r29, 0xFD	; 253
    2a0a:	99 83       	std	Y+1, r25	; 0x01
    2a0c:	88 83       	st	Y, r24
    2a0e:	cb 5a       	subi	r28, 0xAB	; 171
    2a10:	d2 40       	sbci	r29, 0x02	; 2
    2a12:	c3 55       	subi	r28, 0x53	; 83
    2a14:	dd 4f       	sbci	r29, 0xFD	; 253
    2a16:	d9 82       	std	Y+1, r13	; 0x01
    2a18:	c8 82       	st	Y, r12
    2a1a:	cd 5a       	subi	r28, 0xAD	; 173
    2a1c:	d2 40       	sbci	r29, 0x02	; 2
    2a1e:	87 e9       	ldi	r24, 0x97	; 151
    2a20:	90 e0       	ldi	r25, 0x00	; 0
    2a22:	c1 55       	subi	r28, 0x51	; 81
    2a24:	dd 4f       	sbci	r29, 0xFD	; 253
    2a26:	99 83       	std	Y+1, r25	; 0x01
    2a28:	88 83       	st	Y, r24
    2a2a:	cf 5a       	subi	r28, 0xAF	; 175
    2a2c:	d2 40       	sbci	r29, 0x02	; 2
    2a2e:	84 e9       	ldi	r24, 0x94	; 148
    2a30:	90 e0       	ldi	r25, 0x00	; 0
    2a32:	cf 54       	subi	r28, 0x4F	; 79
    2a34:	dd 4f       	sbci	r29, 0xFD	; 253
    2a36:	99 83       	std	Y+1, r25	; 0x01
    2a38:	88 83       	st	Y, r24
    2a3a:	c1 5b       	subi	r28, 0xB1	; 177
    2a3c:	d2 40       	sbci	r29, 0x02	; 2
    2a3e:	82 e9       	ldi	r24, 0x92	; 146
    2a40:	90 e0       	ldi	r25, 0x00	; 0
    2a42:	cd 54       	subi	r28, 0x4D	; 77
    2a44:	dd 4f       	sbci	r29, 0xFD	; 253
    2a46:	99 83       	std	Y+1, r25	; 0x01
    2a48:	88 83       	st	Y, r24
    2a4a:	c3 5b       	subi	r28, 0xB3	; 179
    2a4c:	d2 40       	sbci	r29, 0x02	; 2
    2a4e:	8f e8       	ldi	r24, 0x8F	; 143
    2a50:	90 e0       	ldi	r25, 0x00	; 0
    2a52:	cb 54       	subi	r28, 0x4B	; 75
    2a54:	dd 4f       	sbci	r29, 0xFD	; 253
    2a56:	99 83       	std	Y+1, r25	; 0x01
    2a58:	88 83       	st	Y, r24
    2a5a:	c5 5b       	subi	r28, 0xB5	; 181
    2a5c:	d2 40       	sbci	r29, 0x02	; 2
    2a5e:	8d e8       	ldi	r24, 0x8D	; 141
    2a60:	90 e0       	ldi	r25, 0x00	; 0
    2a62:	c9 54       	subi	r28, 0x49	; 73
    2a64:	dd 4f       	sbci	r29, 0xFD	; 253
    2a66:	99 83       	std	Y+1, r25	; 0x01
    2a68:	88 83       	st	Y, r24
    2a6a:	c7 5b       	subi	r28, 0xB7	; 183
    2a6c:	d2 40       	sbci	r29, 0x02	; 2
    2a6e:	8b e8       	ldi	r24, 0x8B	; 139
    2a70:	90 e0       	ldi	r25, 0x00	; 0
    2a72:	c7 54       	subi	r28, 0x47	; 71
    2a74:	dd 4f       	sbci	r29, 0xFD	; 253
    2a76:	99 83       	std	Y+1, r25	; 0x01
    2a78:	88 83       	st	Y, r24
    2a7a:	c9 5b       	subi	r28, 0xB9	; 185
    2a7c:	d2 40       	sbci	r29, 0x02	; 2
    2a7e:	89 e8       	ldi	r24, 0x89	; 137
    2a80:	90 e0       	ldi	r25, 0x00	; 0
    2a82:	c5 54       	subi	r28, 0x45	; 69
    2a84:	dd 4f       	sbci	r29, 0xFD	; 253
    2a86:	99 83       	std	Y+1, r25	; 0x01
    2a88:	88 83       	st	Y, r24
    2a8a:	cb 5b       	subi	r28, 0xBB	; 187
    2a8c:	d2 40       	sbci	r29, 0x02	; 2
    2a8e:	87 e8       	ldi	r24, 0x87	; 135
    2a90:	90 e0       	ldi	r25, 0x00	; 0
    2a92:	c3 54       	subi	r28, 0x43	; 67
    2a94:	dd 4f       	sbci	r29, 0xFD	; 253
    2a96:	99 83       	std	Y+1, r25	; 0x01
    2a98:	88 83       	st	Y, r24
    2a9a:	cd 5b       	subi	r28, 0xBD	; 189
    2a9c:	d2 40       	sbci	r29, 0x02	; 2
    2a9e:	85 e8       	ldi	r24, 0x85	; 133
    2aa0:	90 e0       	ldi	r25, 0x00	; 0
    2aa2:	c1 54       	subi	r28, 0x41	; 65
    2aa4:	dd 4f       	sbci	r29, 0xFD	; 253
    2aa6:	99 83       	std	Y+1, r25	; 0x01
    2aa8:	88 83       	st	Y, r24
    2aaa:	cf 5b       	subi	r28, 0xBF	; 191
    2aac:	d2 40       	sbci	r29, 0x02	; 2
    2aae:	83 e8       	ldi	r24, 0x83	; 131
    2ab0:	90 e0       	ldi	r25, 0x00	; 0
    2ab2:	cf 53       	subi	r28, 0x3F	; 63
    2ab4:	dd 4f       	sbci	r29, 0xFD	; 253
    2ab6:	99 83       	std	Y+1, r25	; 0x01
    2ab8:	88 83       	st	Y, r24
    2aba:	c1 5c       	subi	r28, 0xC1	; 193
    2abc:	d2 40       	sbci	r29, 0x02	; 2
    2abe:	21 e8       	ldi	r18, 0x81	; 129
    2ac0:	30 e0       	ldi	r19, 0x00	; 0
    2ac2:	cd 53       	subi	r28, 0x3D	; 61
    2ac4:	dd 4f       	sbci	r29, 0xFD	; 253
    2ac6:	39 83       	std	Y+1, r19	; 0x01
    2ac8:	28 83       	st	Y, r18
    2aca:	c3 5c       	subi	r28, 0xC3	; 195
    2acc:	d2 40       	sbci	r29, 0x02	; 2
    2ace:	2f e7       	ldi	r18, 0x7F	; 127
    2ad0:	30 e0       	ldi	r19, 0x00	; 0
    2ad2:	cb 53       	subi	r28, 0x3B	; 59
    2ad4:	dd 4f       	sbci	r29, 0xFD	; 253
    2ad6:	39 83       	std	Y+1, r19	; 0x01
    2ad8:	28 83       	st	Y, r18
    2ada:	c5 5c       	subi	r28, 0xC5	; 197
    2adc:	d2 40       	sbci	r29, 0x02	; 2
    2ade:	2d e7       	ldi	r18, 0x7D	; 125
    2ae0:	30 e0       	ldi	r19, 0x00	; 0
    2ae2:	c9 53       	subi	r28, 0x39	; 57
    2ae4:	dd 4f       	sbci	r29, 0xFD	; 253
    2ae6:	39 83       	std	Y+1, r19	; 0x01
    2ae8:	28 83       	st	Y, r18
    2aea:	c7 5c       	subi	r28, 0xC7	; 199
    2aec:	d2 40       	sbci	r29, 0x02	; 2
    2aee:	2b e7       	ldi	r18, 0x7B	; 123
    2af0:	30 e0       	ldi	r19, 0x00	; 0
    2af2:	c7 53       	subi	r28, 0x37	; 55
    2af4:	dd 4f       	sbci	r29, 0xFD	; 253
    2af6:	39 83       	std	Y+1, r19	; 0x01
    2af8:	28 83       	st	Y, r18
    2afa:	c9 5c       	subi	r28, 0xC9	; 201
    2afc:	d2 40       	sbci	r29, 0x02	; 2
    2afe:	29 e7       	ldi	r18, 0x79	; 121
    2b00:	30 e0       	ldi	r19, 0x00	; 0
    2b02:	c5 53       	subi	r28, 0x35	; 53
    2b04:	dd 4f       	sbci	r29, 0xFD	; 253
    2b06:	39 83       	std	Y+1, r19	; 0x01
    2b08:	28 83       	st	Y, r18
    2b0a:	cb 5c       	subi	r28, 0xCB	; 203
    2b0c:	d2 40       	sbci	r29, 0x02	; 2
    2b0e:	28 e7       	ldi	r18, 0x78	; 120
    2b10:	30 e0       	ldi	r19, 0x00	; 0
    2b12:	c3 53       	subi	r28, 0x33	; 51
    2b14:	dd 4f       	sbci	r29, 0xFD	; 253
    2b16:	39 83       	std	Y+1, r19	; 0x01
    2b18:	28 83       	st	Y, r18
    2b1a:	cd 5c       	subi	r28, 0xCD	; 205
    2b1c:	d2 40       	sbci	r29, 0x02	; 2
    2b1e:	26 e7       	ldi	r18, 0x76	; 118
    2b20:	30 e0       	ldi	r19, 0x00	; 0
    2b22:	c1 53       	subi	r28, 0x31	; 49
    2b24:	dd 4f       	sbci	r29, 0xFD	; 253
    2b26:	39 83       	std	Y+1, r19	; 0x01
    2b28:	28 83       	st	Y, r18
    2b2a:	cf 5c       	subi	r28, 0xCF	; 207
    2b2c:	d2 40       	sbci	r29, 0x02	; 2
    2b2e:	24 e7       	ldi	r18, 0x74	; 116
    2b30:	30 e0       	ldi	r19, 0x00	; 0
    2b32:	cf 52       	subi	r28, 0x2F	; 47
    2b34:	dd 4f       	sbci	r29, 0xFD	; 253
    2b36:	39 83       	std	Y+1, r19	; 0x01
    2b38:	28 83       	st	Y, r18
    2b3a:	c1 5d       	subi	r28, 0xD1	; 209
    2b3c:	d2 40       	sbci	r29, 0x02	; 2
    2b3e:	23 e7       	ldi	r18, 0x73	; 115
    2b40:	30 e0       	ldi	r19, 0x00	; 0
    2b42:	cd 52       	subi	r28, 0x2D	; 45
    2b44:	dd 4f       	sbci	r29, 0xFD	; 253
    2b46:	39 83       	std	Y+1, r19	; 0x01
    2b48:	28 83       	st	Y, r18
    2b4a:	c3 5d       	subi	r28, 0xD3	; 211
    2b4c:	d2 40       	sbci	r29, 0x02	; 2
    2b4e:	21 e7       	ldi	r18, 0x71	; 113
    2b50:	30 e0       	ldi	r19, 0x00	; 0
    2b52:	cb 52       	subi	r28, 0x2B	; 43
    2b54:	dd 4f       	sbci	r29, 0xFD	; 253
    2b56:	39 83       	std	Y+1, r19	; 0x01
    2b58:	28 83       	st	Y, r18
    2b5a:	c5 5d       	subi	r28, 0xD5	; 213
    2b5c:	d2 40       	sbci	r29, 0x02	; 2
    2b5e:	20 e7       	ldi	r18, 0x70	; 112
    2b60:	30 e0       	ldi	r19, 0x00	; 0
    2b62:	c9 52       	subi	r28, 0x29	; 41
    2b64:	dd 4f       	sbci	r29, 0xFD	; 253
    2b66:	39 83       	std	Y+1, r19	; 0x01
    2b68:	28 83       	st	Y, r18
    2b6a:	c7 5d       	subi	r28, 0xD7	; 215
    2b6c:	d2 40       	sbci	r29, 0x02	; 2
    2b6e:	2e e6       	ldi	r18, 0x6E	; 110
    2b70:	30 e0       	ldi	r19, 0x00	; 0
    2b72:	c7 52       	subi	r28, 0x27	; 39
    2b74:	dd 4f       	sbci	r29, 0xFD	; 253
    2b76:	39 83       	std	Y+1, r19	; 0x01
    2b78:	28 83       	st	Y, r18
    2b7a:	c9 5d       	subi	r28, 0xD9	; 217
    2b7c:	d2 40       	sbci	r29, 0x02	; 2
    2b7e:	4d e6       	ldi	r20, 0x6D	; 109
    2b80:	50 e0       	ldi	r21, 0x00	; 0
    2b82:	c5 52       	subi	r28, 0x25	; 37
    2b84:	dd 4f       	sbci	r29, 0xFD	; 253
    2b86:	59 83       	std	Y+1, r21	; 0x01
    2b88:	48 83       	st	Y, r20
    2b8a:	cb 5d       	subi	r28, 0xDB	; 219
    2b8c:	d2 40       	sbci	r29, 0x02	; 2
    2b8e:	4c e6       	ldi	r20, 0x6C	; 108
    2b90:	50 e0       	ldi	r21, 0x00	; 0
    2b92:	c3 52       	subi	r28, 0x23	; 35
    2b94:	dd 4f       	sbci	r29, 0xFD	; 253
    2b96:	59 83       	std	Y+1, r21	; 0x01
    2b98:	48 83       	st	Y, r20
    2b9a:	cd 5d       	subi	r28, 0xDD	; 221
    2b9c:	d2 40       	sbci	r29, 0x02	; 2
    2b9e:	4a e6       	ldi	r20, 0x6A	; 106
    2ba0:	50 e0       	ldi	r21, 0x00	; 0
    2ba2:	c1 52       	subi	r28, 0x21	; 33
    2ba4:	dd 4f       	sbci	r29, 0xFD	; 253
    2ba6:	59 83       	std	Y+1, r21	; 0x01
    2ba8:	48 83       	st	Y, r20
    2baa:	cf 5d       	subi	r28, 0xDF	; 223
    2bac:	d2 40       	sbci	r29, 0x02	; 2
    2bae:	49 e6       	ldi	r20, 0x69	; 105
    2bb0:	50 e0       	ldi	r21, 0x00	; 0
    2bb2:	cf 51       	subi	r28, 0x1F	; 31
    2bb4:	dd 4f       	sbci	r29, 0xFD	; 253
    2bb6:	59 83       	std	Y+1, r21	; 0x01
    2bb8:	48 83       	st	Y, r20
    2bba:	c1 5e       	subi	r28, 0xE1	; 225
    2bbc:	d2 40       	sbci	r29, 0x02	; 2
    2bbe:	48 e6       	ldi	r20, 0x68	; 104
    2bc0:	50 e0       	ldi	r21, 0x00	; 0
    2bc2:	cd 51       	subi	r28, 0x1D	; 29
    2bc4:	dd 4f       	sbci	r29, 0xFD	; 253
    2bc6:	59 83       	std	Y+1, r21	; 0x01
    2bc8:	48 83       	st	Y, r20
    2bca:	c3 5e       	subi	r28, 0xE3	; 227
    2bcc:	d2 40       	sbci	r29, 0x02	; 2
    2bce:	46 e6       	ldi	r20, 0x66	; 102
    2bd0:	50 e0       	ldi	r21, 0x00	; 0
    2bd2:	cb 51       	subi	r28, 0x1B	; 27
    2bd4:	dd 4f       	sbci	r29, 0xFD	; 253
    2bd6:	59 83       	std	Y+1, r21	; 0x01
    2bd8:	48 83       	st	Y, r20
    2bda:	c5 5e       	subi	r28, 0xE5	; 229
    2bdc:	d2 40       	sbci	r29, 0x02	; 2
    2bde:	45 e6       	ldi	r20, 0x65	; 101
    2be0:	50 e0       	ldi	r21, 0x00	; 0
    2be2:	c9 51       	subi	r28, 0x19	; 25
    2be4:	dd 4f       	sbci	r29, 0xFD	; 253
    2be6:	59 83       	std	Y+1, r21	; 0x01
    2be8:	48 83       	st	Y, r20
    2bea:	c7 5e       	subi	r28, 0xE7	; 231
    2bec:	d2 40       	sbci	r29, 0x02	; 2
    2bee:	44 e6       	ldi	r20, 0x64	; 100
    2bf0:	50 e0       	ldi	r21, 0x00	; 0
    2bf2:	c7 51       	subi	r28, 0x17	; 23
    2bf4:	dd 4f       	sbci	r29, 0xFD	; 253
    2bf6:	59 83       	std	Y+1, r21	; 0x01
    2bf8:	48 83       	st	Y, r20
    2bfa:	c9 5e       	subi	r28, 0xE9	; 233
    2bfc:	d2 40       	sbci	r29, 0x02	; 2
    2bfe:	43 e6       	ldi	r20, 0x63	; 99
    2c00:	50 e0       	ldi	r21, 0x00	; 0
    2c02:	c5 51       	subi	r28, 0x15	; 21
    2c04:	dd 4f       	sbci	r29, 0xFD	; 253
    2c06:	59 83       	std	Y+1, r21	; 0x01
    2c08:	48 83       	st	Y, r20
    2c0a:	cb 5e       	subi	r28, 0xEB	; 235
    2c0c:	d2 40       	sbci	r29, 0x02	; 2
    2c0e:	41 e6       	ldi	r20, 0x61	; 97
    2c10:	50 e0       	ldi	r21, 0x00	; 0
    2c12:	c3 51       	subi	r28, 0x13	; 19
    2c14:	dd 4f       	sbci	r29, 0xFD	; 253
    2c16:	59 83       	std	Y+1, r21	; 0x01
    2c18:	48 83       	st	Y, r20
    2c1a:	cd 5e       	subi	r28, 0xED	; 237
    2c1c:	d2 40       	sbci	r29, 0x02	; 2
    2c1e:	40 e6       	ldi	r20, 0x60	; 96
    2c20:	50 e0       	ldi	r21, 0x00	; 0
    2c22:	c1 51       	subi	r28, 0x11	; 17
    2c24:	dd 4f       	sbci	r29, 0xFD	; 253
    2c26:	59 83       	std	Y+1, r21	; 0x01
    2c28:	48 83       	st	Y, r20
    2c2a:	cf 5e       	subi	r28, 0xEF	; 239
    2c2c:	d2 40       	sbci	r29, 0x02	; 2
    2c2e:	6f e5       	ldi	r22, 0x5F	; 95
    2c30:	70 e0       	ldi	r23, 0x00	; 0
    2c32:	cf 50       	subi	r28, 0x0F	; 15
    2c34:	dd 4f       	sbci	r29, 0xFD	; 253
    2c36:	79 83       	std	Y+1, r23	; 0x01
    2c38:	68 83       	st	Y, r22
    2c3a:	c1 5f       	subi	r28, 0xF1	; 241
    2c3c:	d2 40       	sbci	r29, 0x02	; 2
    2c3e:	6e e5       	ldi	r22, 0x5E	; 94
    2c40:	70 e0       	ldi	r23, 0x00	; 0
    2c42:	cd 50       	subi	r28, 0x0D	; 13
    2c44:	dd 4f       	sbci	r29, 0xFD	; 253
    2c46:	79 83       	std	Y+1, r23	; 0x01
    2c48:	68 83       	st	Y, r22
    2c4a:	c3 5f       	subi	r28, 0xF3	; 243
    2c4c:	d2 40       	sbci	r29, 0x02	; 2
    2c4e:	6d e5       	ldi	r22, 0x5D	; 93
    2c50:	70 e0       	ldi	r23, 0x00	; 0
    2c52:	cb 50       	subi	r28, 0x0B	; 11
    2c54:	dd 4f       	sbci	r29, 0xFD	; 253
    2c56:	79 83       	std	Y+1, r23	; 0x01
    2c58:	68 83       	st	Y, r22
    2c5a:	c5 5f       	subi	r28, 0xF5	; 245
    2c5c:	d2 40       	sbci	r29, 0x02	; 2
    2c5e:	6c e5       	ldi	r22, 0x5C	; 92
    2c60:	70 e0       	ldi	r23, 0x00	; 0
    2c62:	c9 50       	subi	r28, 0x09	; 9
    2c64:	dd 4f       	sbci	r29, 0xFD	; 253
    2c66:	79 83       	std	Y+1, r23	; 0x01
    2c68:	68 83       	st	Y, r22
    2c6a:	c7 5f       	subi	r28, 0xF7	; 247
    2c6c:	d2 40       	sbci	r29, 0x02	; 2
    2c6e:	6b e5       	ldi	r22, 0x5B	; 91
    2c70:	70 e0       	ldi	r23, 0x00	; 0
    2c72:	c7 50       	subi	r28, 0x07	; 7
    2c74:	dd 4f       	sbci	r29, 0xFD	; 253
    2c76:	79 83       	std	Y+1, r23	; 0x01
    2c78:	68 83       	st	Y, r22
    2c7a:	c9 5f       	subi	r28, 0xF9	; 249
    2c7c:	d2 40       	sbci	r29, 0x02	; 2
    2c7e:	6a e5       	ldi	r22, 0x5A	; 90
    2c80:	70 e0       	ldi	r23, 0x00	; 0
    2c82:	c5 50       	subi	r28, 0x05	; 5
    2c84:	dd 4f       	sbci	r29, 0xFD	; 253
    2c86:	79 83       	std	Y+1, r23	; 0x01
    2c88:	68 83       	st	Y, r22
    2c8a:	cb 5f       	subi	r28, 0xFB	; 251
    2c8c:	d2 40       	sbci	r29, 0x02	; 2
    2c8e:	69 e5       	ldi	r22, 0x59	; 89
    2c90:	70 e0       	ldi	r23, 0x00	; 0
    2c92:	c3 50       	subi	r28, 0x03	; 3
    2c94:	dd 4f       	sbci	r29, 0xFD	; 253
    2c96:	79 83       	std	Y+1, r23	; 0x01
    2c98:	68 83       	st	Y, r22
    2c9a:	cd 5f       	subi	r28, 0xFD	; 253
    2c9c:	d2 40       	sbci	r29, 0x02	; 2
    2c9e:	e8 e5       	ldi	r30, 0x58	; 88
    2ca0:	f0 e0       	ldi	r31, 0x00	; 0
    2ca2:	c1 50       	subi	r28, 0x01	; 1
    2ca4:	dd 4f       	sbci	r29, 0xFD	; 253
    2ca6:	f9 83       	std	Y+1, r31	; 0x01
    2ca8:	e8 83       	st	Y, r30
    2caa:	cf 5f       	subi	r28, 0xFF	; 255
    2cac:	d2 40       	sbci	r29, 0x02	; 2
    2cae:	e7 e5       	ldi	r30, 0x57	; 87
    2cb0:	f0 e0       	ldi	r31, 0x00	; 0
    2cb2:	cf 5f       	subi	r28, 0xFF	; 255
    2cb4:	dc 4f       	sbci	r29, 0xFC	; 252
    2cb6:	f9 83       	std	Y+1, r31	; 0x01
    2cb8:	e8 83       	st	Y, r30
    2cba:	c1 50       	subi	r28, 0x01	; 1
    2cbc:	d3 40       	sbci	r29, 0x03	; 3
    2cbe:	e6 e5       	ldi	r30, 0x56	; 86
    2cc0:	f0 e0       	ldi	r31, 0x00	; 0
    2cc2:	cd 5f       	subi	r28, 0xFD	; 253
    2cc4:	dc 4f       	sbci	r29, 0xFC	; 252
    2cc6:	f9 83       	std	Y+1, r31	; 0x01
    2cc8:	e8 83       	st	Y, r30
    2cca:	c3 50       	subi	r28, 0x03	; 3
    2ccc:	d3 40       	sbci	r29, 0x03	; 3
    2cce:	e5 e5       	ldi	r30, 0x55	; 85
    2cd0:	f0 e0       	ldi	r31, 0x00	; 0
    2cd2:	cb 5f       	subi	r28, 0xFB	; 251
    2cd4:	dc 4f       	sbci	r29, 0xFC	; 252
    2cd6:	f9 83       	std	Y+1, r31	; 0x01
    2cd8:	e8 83       	st	Y, r30
    2cda:	c5 50       	subi	r28, 0x05	; 5
    2cdc:	d3 40       	sbci	r29, 0x03	; 3
    2cde:	e4 e5       	ldi	r30, 0x54	; 84
    2ce0:	f0 e0       	ldi	r31, 0x00	; 0
    2ce2:	c9 5f       	subi	r28, 0xF9	; 249
    2ce4:	dc 4f       	sbci	r29, 0xFC	; 252
    2ce6:	f9 83       	std	Y+1, r31	; 0x01
    2ce8:	e8 83       	st	Y, r30
    2cea:	c7 50       	subi	r28, 0x07	; 7
    2cec:	d3 40       	sbci	r29, 0x03	; 3
    2cee:	e3 e5       	ldi	r30, 0x53	; 83
    2cf0:	f0 e0       	ldi	r31, 0x00	; 0
    2cf2:	c7 5f       	subi	r28, 0xF7	; 247
    2cf4:	dc 4f       	sbci	r29, 0xFC	; 252
    2cf6:	f9 83       	std	Y+1, r31	; 0x01
    2cf8:	e8 83       	st	Y, r30
    2cfa:	c9 50       	subi	r28, 0x09	; 9
    2cfc:	d3 40       	sbci	r29, 0x03	; 3
    2cfe:	e2 e5       	ldi	r30, 0x52	; 82
    2d00:	f0 e0       	ldi	r31, 0x00	; 0
    2d02:	c5 5f       	subi	r28, 0xF5	; 245
    2d04:	dc 4f       	sbci	r29, 0xFC	; 252
    2d06:	f9 83       	std	Y+1, r31	; 0x01
    2d08:	e8 83       	st	Y, r30
    2d0a:	cb 50       	subi	r28, 0x0B	; 11
    2d0c:	d3 40       	sbci	r29, 0x03	; 3
    2d0e:	a1 e5       	ldi	r26, 0x51	; 81
    2d10:	b0 e0       	ldi	r27, 0x00	; 0
    2d12:	c3 5f       	subi	r28, 0xF3	; 243
    2d14:	dc 4f       	sbci	r29, 0xFC	; 252
    2d16:	b9 83       	std	Y+1, r27	; 0x01
    2d18:	a8 83       	st	Y, r26
    2d1a:	cd 50       	subi	r28, 0x0D	; 13
    2d1c:	d3 40       	sbci	r29, 0x03	; 3
    2d1e:	a0 e5       	ldi	r26, 0x50	; 80
    2d20:	b0 e0       	ldi	r27, 0x00	; 0
    2d22:	c1 5f       	subi	r28, 0xF1	; 241
    2d24:	dc 4f       	sbci	r29, 0xFC	; 252
    2d26:	b9 83       	std	Y+1, r27	; 0x01
    2d28:	a8 83       	st	Y, r26
    2d2a:	cf 50       	subi	r28, 0x0F	; 15
    2d2c:	d3 40       	sbci	r29, 0x03	; 3
    2d2e:	0f 2e       	mov	r0, r31
    2d30:	ff e4       	ldi	r31, 0x4F	; 79
    2d32:	cf 2e       	mov	r12, r31
    2d34:	d1 2c       	mov	r13, r1
    2d36:	f0 2d       	mov	r31, r0
    2d38:	cf 5e       	subi	r28, 0xEF	; 239
    2d3a:	dc 4f       	sbci	r29, 0xFC	; 252
    2d3c:	d9 82       	std	Y+1, r13	; 0x01
    2d3e:	c8 82       	st	Y, r12
    2d40:	c1 51       	subi	r28, 0x11	; 17
    2d42:	d3 40       	sbci	r29, 0x03	; 3
    2d44:	ae e4       	ldi	r26, 0x4E	; 78
    2d46:	b0 e0       	ldi	r27, 0x00	; 0
    2d48:	cd 5e       	subi	r28, 0xED	; 237
    2d4a:	dc 4f       	sbci	r29, 0xFC	; 252
    2d4c:	b9 83       	std	Y+1, r27	; 0x01
    2d4e:	a8 83       	st	Y, r26
    2d50:	c3 51       	subi	r28, 0x13	; 19
    2d52:	d3 40       	sbci	r29, 0x03	; 3
    2d54:	ad e4       	ldi	r26, 0x4D	; 77
    2d56:	b0 e0       	ldi	r27, 0x00	; 0
    2d58:	cb 5e       	subi	r28, 0xEB	; 235
    2d5a:	dc 4f       	sbci	r29, 0xFC	; 252
    2d5c:	b9 83       	std	Y+1, r27	; 0x01
    2d5e:	a8 83       	st	Y, r26
    2d60:	c5 51       	subi	r28, 0x15	; 21
    2d62:	d3 40       	sbci	r29, 0x03	; 3
    2d64:	0c e4       	ldi	r16, 0x4C	; 76
    2d66:	10 e0       	ldi	r17, 0x00	; 0
    2d68:	c9 5e       	subi	r28, 0xE9	; 233
    2d6a:	dc 4f       	sbci	r29, 0xFC	; 252
    2d6c:	19 83       	std	Y+1, r17	; 0x01
    2d6e:	08 83       	st	Y, r16
    2d70:	c7 51       	subi	r28, 0x17	; 23
    2d72:	d3 40       	sbci	r29, 0x03	; 3
    2d74:	a5 e0       	ldi	r26, 0x05	; 5
    2d76:	b0 e0       	ldi	r27, 0x00	; 0
    2d78:	c7 5e       	subi	r28, 0xE7	; 231
    2d7a:	dc 4f       	sbci	r29, 0xFC	; 252
    2d7c:	b9 83       	std	Y+1, r27	; 0x01
    2d7e:	a8 83       	st	Y, r26
    2d80:	c9 51       	subi	r28, 0x19	; 25
    2d82:	d3 40       	sbci	r29, 0x03	; 3
    2d84:	ac e0       	ldi	r26, 0x0C	; 12
    2d86:	b0 e0       	ldi	r27, 0x00	; 0
    2d88:	c5 5e       	subi	r28, 0xE5	; 229
    2d8a:	dc 4f       	sbci	r29, 0xFC	; 252
    2d8c:	b9 83       	std	Y+1, r27	; 0x01
    2d8e:	a8 83       	st	Y, r26
    2d90:	cb 51       	subi	r28, 0x1B	; 27
    2d92:	d3 40       	sbci	r29, 0x03	; 3
    2d94:	a3 e1       	ldi	r26, 0x13	; 19
    2d96:	b0 e0       	ldi	r27, 0x00	; 0
    2d98:	c3 5e       	subi	r28, 0xE3	; 227
    2d9a:	dc 4f       	sbci	r29, 0xFC	; 252
    2d9c:	b9 83       	std	Y+1, r27	; 0x01
    2d9e:	a8 83       	st	Y, r26
    2da0:	cd 51       	subi	r28, 0x1D	; 29
    2da2:	d3 40       	sbci	r29, 0x03	; 3
    2da4:	aa e1       	ldi	r26, 0x1A	; 26
    2da6:	b0 e0       	ldi	r27, 0x00	; 0
    2da8:	c1 5e       	subi	r28, 0xE1	; 225
    2daa:	dc 4f       	sbci	r29, 0xFC	; 252
    2dac:	b9 83       	std	Y+1, r27	; 0x01
    2dae:	a8 83       	st	Y, r26
    2db0:	cf 51       	subi	r28, 0x1F	; 31
    2db2:	d3 40       	sbci	r29, 0x03	; 3
    2db4:	a1 e2       	ldi	r26, 0x21	; 33
    2db6:	b0 e0       	ldi	r27, 0x00	; 0
    2db8:	cf 5d       	subi	r28, 0xDF	; 223
    2dba:	dc 4f       	sbci	r29, 0xFC	; 252
    2dbc:	b9 83       	std	Y+1, r27	; 0x01
    2dbe:	a8 83       	st	Y, r26
    2dc0:	c1 52       	subi	r28, 0x21	; 33
    2dc2:	d3 40       	sbci	r29, 0x03	; 3
    2dc4:	0f 2e       	mov	r0, r31
    2dc6:	f8 e2       	ldi	r31, 0x28	; 40
    2dc8:	cf 2e       	mov	r12, r31
    2dca:	d1 2c       	mov	r13, r1
    2dcc:	f0 2d       	mov	r31, r0
    2dce:	cd 5d       	subi	r28, 0xDD	; 221
    2dd0:	dc 4f       	sbci	r29, 0xFC	; 252
    2dd2:	d9 82       	std	Y+1, r13	; 0x01
    2dd4:	c8 82       	st	Y, r12
    2dd6:	c3 52       	subi	r28, 0x23	; 35
    2dd8:	d3 40       	sbci	r29, 0x03	; 3
    2dda:	af e2       	ldi	r26, 0x2F	; 47
    2ddc:	b0 e0       	ldi	r27, 0x00	; 0
    2dde:	cb 5d       	subi	r28, 0xDB	; 219
    2de0:	dc 4f       	sbci	r29, 0xFC	; 252
    2de2:	b9 83       	std	Y+1, r27	; 0x01
    2de4:	a8 83       	st	Y, r26
    2de6:	c5 52       	subi	r28, 0x25	; 37
    2de8:	d3 40       	sbci	r29, 0x03	; 3
    2dea:	a6 e3       	ldi	r26, 0x36	; 54
    2dec:	b0 e0       	ldi	r27, 0x00	; 0
    2dee:	c9 5d       	subi	r28, 0xD9	; 217
    2df0:	dc 4f       	sbci	r29, 0xFC	; 252
    2df2:	b9 83       	std	Y+1, r27	; 0x01
    2df4:	a8 83       	st	Y, r26
    2df6:	c7 52       	subi	r28, 0x27	; 39
    2df8:	d3 40       	sbci	r29, 0x03	; 3
    2dfa:	0d e3       	ldi	r16, 0x3D	; 61
    2dfc:	10 e0       	ldi	r17, 0x00	; 0
    2dfe:	c7 5d       	subi	r28, 0xD7	; 215
    2e00:	dc 4f       	sbci	r29, 0xFC	; 252
    2e02:	19 83       	std	Y+1, r17	; 0x01
    2e04:	08 83       	st	Y, r16
    2e06:	c9 52       	subi	r28, 0x29	; 41
    2e08:	d3 40       	sbci	r29, 0x03	; 3
    2e0a:	a4 e4       	ldi	r26, 0x44	; 68
    2e0c:	b0 e0       	ldi	r27, 0x00	; 0
    2e0e:	c5 5d       	subi	r28, 0xD5	; 213
    2e10:	dc 4f       	sbci	r29, 0xFC	; 252
    2e12:	b9 83       	std	Y+1, r27	; 0x01
    2e14:	a8 83       	st	Y, r26
    2e16:	cb 52       	subi	r28, 0x2B	; 43
    2e18:	d3 40       	sbci	r29, 0x03	; 3
    2e1a:	ab e4       	ldi	r26, 0x4B	; 75
    2e1c:	b0 e0       	ldi	r27, 0x00	; 0
    2e1e:	c3 5d       	subi	r28, 0xD3	; 211
    2e20:	dc 4f       	sbci	r29, 0xFC	; 252
    2e22:	b9 83       	std	Y+1, r27	; 0x01
    2e24:	a8 83       	st	Y, r26
    2e26:	cd 52       	subi	r28, 0x2D	; 45
    2e28:	d3 40       	sbci	r29, 0x03	; 3
    2e2a:	c1 5d       	subi	r28, 0xD1	; 209
    2e2c:	dc 4f       	sbci	r29, 0xFC	; 252
    2e2e:	f9 83       	std	Y+1, r31	; 0x01
    2e30:	e8 83       	st	Y, r30
    2e32:	cf 52       	subi	r28, 0x2F	; 47
    2e34:	d3 40       	sbci	r29, 0x03	; 3
    2e36:	cf 5c       	subi	r28, 0xCF	; 207
    2e38:	dc 4f       	sbci	r29, 0xFC	; 252
    2e3a:	79 83       	std	Y+1, r23	; 0x01
    2e3c:	68 83       	st	Y, r22
    2e3e:	c1 53       	subi	r28, 0x31	; 49
    2e40:	d3 40       	sbci	r29, 0x03	; 3
    2e42:	cd 5c       	subi	r28, 0xCD	; 205
    2e44:	dc 4f       	sbci	r29, 0xFC	; 252
    2e46:	59 83       	std	Y+1, r21	; 0x01
    2e48:	48 83       	st	Y, r20
    2e4a:	c3 53       	subi	r28, 0x33	; 51
    2e4c:	d3 40       	sbci	r29, 0x03	; 3
    2e4e:	47 e6       	ldi	r20, 0x67	; 103
    2e50:	50 e0       	ldi	r21, 0x00	; 0
    2e52:	cb 5c       	subi	r28, 0xCB	; 203
    2e54:	dc 4f       	sbci	r29, 0xFC	; 252
    2e56:	59 83       	std	Y+1, r21	; 0x01
    2e58:	48 83       	st	Y, r20
    2e5a:	c5 53       	subi	r28, 0x35	; 53
    2e5c:	d3 40       	sbci	r29, 0x03	; 3
    2e5e:	c9 5c       	subi	r28, 0xC9	; 201
    2e60:	dc 4f       	sbci	r29, 0xFC	; 252
    2e62:	39 83       	std	Y+1, r19	; 0x01
    2e64:	28 83       	st	Y, r18
    2e66:	c7 53       	subi	r28, 0x37	; 55
    2e68:	d3 40       	sbci	r29, 0x03	; 3
    2e6a:	25 e7       	ldi	r18, 0x75	; 117
    2e6c:	30 e0       	ldi	r19, 0x00	; 0
    2e6e:	c7 5c       	subi	r28, 0xC7	; 199
    2e70:	dc 4f       	sbci	r29, 0xFC	; 252
    2e72:	39 83       	std	Y+1, r19	; 0x01
    2e74:	28 83       	st	Y, r18
    2e76:	c9 53       	subi	r28, 0x39	; 57
    2e78:	d3 40       	sbci	r29, 0x03	; 3
    2e7a:	2c e7       	ldi	r18, 0x7C	; 124
    2e7c:	30 e0       	ldi	r19, 0x00	; 0
    2e7e:	c5 5c       	subi	r28, 0xC5	; 197
    2e80:	dc 4f       	sbci	r29, 0xFC	; 252
    2e82:	39 83       	std	Y+1, r19	; 0x01
    2e84:	28 83       	st	Y, r18
    2e86:	cb 53       	subi	r28, 0x3B	; 59
    2e88:	d3 40       	sbci	r29, 0x03	; 3
    2e8a:	c3 5c       	subi	r28, 0xC3	; 195
    2e8c:	dc 4f       	sbci	r29, 0xFC	; 252
    2e8e:	99 83       	std	Y+1, r25	; 0x01
    2e90:	88 83       	st	Y, r24
    2e92:	cd 53       	subi	r28, 0x3D	; 61
    2e94:	d3 40       	sbci	r29, 0x03	; 3
    2e96:	8a e8       	ldi	r24, 0x8A	; 138
    2e98:	90 e0       	ldi	r25, 0x00	; 0
    2e9a:	c1 5c       	subi	r28, 0xC1	; 193
    2e9c:	dc 4f       	sbci	r29, 0xFC	; 252
    2e9e:	99 83       	std	Y+1, r25	; 0x01
    2ea0:	88 83       	st	Y, r24
    2ea2:	cf 53       	subi	r28, 0x3F	; 63
    2ea4:	d3 40       	sbci	r29, 0x03	; 3
    2ea6:	81 e9       	ldi	r24, 0x91	; 145
    2ea8:	90 e0       	ldi	r25, 0x00	; 0
    2eaa:	cf 5b       	subi	r28, 0xBF	; 191
    2eac:	dc 4f       	sbci	r29, 0xFC	; 252
    2eae:	99 83       	std	Y+1, r25	; 0x01
    2eb0:	88 83       	st	Y, r24
    2eb2:	c1 54       	subi	r28, 0x41	; 65
    2eb4:	d3 40       	sbci	r29, 0x03	; 3
    2eb6:	88 e9       	ldi	r24, 0x98	; 152
    2eb8:	90 e0       	ldi	r25, 0x00	; 0
    2eba:	cd 5b       	subi	r28, 0xBD	; 189
    2ebc:	dc 4f       	sbci	r29, 0xFC	; 252
    2ebe:	99 83       	std	Y+1, r25	; 0x01
    2ec0:	88 83       	st	Y, r24
    2ec2:	c3 54       	subi	r28, 0x43	; 67
    2ec4:	d3 40       	sbci	r29, 0x03	; 3
    2ec6:	8f e9       	ldi	r24, 0x9F	; 159
    2ec8:	90 e0       	ldi	r25, 0x00	; 0
    2eca:	cb 5b       	subi	r28, 0xBB	; 187
    2ecc:	dc 4f       	sbci	r29, 0xFC	; 252
    2ece:	99 83       	std	Y+1, r25	; 0x01
    2ed0:	88 83       	st	Y, r24
    2ed2:	c5 54       	subi	r28, 0x45	; 69
    2ed4:	d3 40       	sbci	r29, 0x03	; 3
    2ed6:	86 ea       	ldi	r24, 0xA6	; 166
    2ed8:	90 e0       	ldi	r25, 0x00	; 0
    2eda:	c9 5b       	subi	r28, 0xB9	; 185
    2edc:	dc 4f       	sbci	r29, 0xFC	; 252
    2ede:	99 83       	std	Y+1, r25	; 0x01
    2ee0:	88 83       	st	Y, r24
    2ee2:	c7 54       	subi	r28, 0x47	; 71
    2ee4:	d3 40       	sbci	r29, 0x03	; 3
    2ee6:	8d ea       	ldi	r24, 0xAD	; 173
    2ee8:	90 e0       	ldi	r25, 0x00	; 0
    2eea:	c7 5b       	subi	r28, 0xB7	; 183
    2eec:	dc 4f       	sbci	r29, 0xFC	; 252
    2eee:	99 83       	std	Y+1, r25	; 0x01
    2ef0:	88 83       	st	Y, r24
    2ef2:	c9 54       	subi	r28, 0x49	; 73
    2ef4:	d3 40       	sbci	r29, 0x03	; 3
    2ef6:	84 eb       	ldi	r24, 0xB4	; 180
    2ef8:	90 e0       	ldi	r25, 0x00	; 0
    2efa:	c5 5b       	subi	r28, 0xB5	; 181
    2efc:	dc 4f       	sbci	r29, 0xFC	; 252
    2efe:	99 83       	std	Y+1, r25	; 0x01
    2f00:	88 83       	st	Y, r24
    2f02:	cb 54       	subi	r28, 0x4B	; 75
    2f04:	d3 40       	sbci	r29, 0x03	; 3
    2f06:	8b eb       	ldi	r24, 0xBB	; 187
    2f08:	90 e0       	ldi	r25, 0x00	; 0
    2f0a:	c3 5b       	subi	r28, 0xB3	; 179
    2f0c:	dc 4f       	sbci	r29, 0xFC	; 252
    2f0e:	99 83       	std	Y+1, r25	; 0x01
    2f10:	88 83       	st	Y, r24
    2f12:	cd 54       	subi	r28, 0x4D	; 77
    2f14:	d3 40       	sbci	r29, 0x03	; 3
    2f16:	82 ec       	ldi	r24, 0xC2	; 194
    2f18:	90 e0       	ldi	r25, 0x00	; 0
    2f1a:	c1 5b       	subi	r28, 0xB1	; 177
    2f1c:	dc 4f       	sbci	r29, 0xFC	; 252
    2f1e:	99 83       	std	Y+1, r25	; 0x01
    2f20:	88 83       	st	Y, r24
    2f22:	cf 54       	subi	r28, 0x4F	; 79
    2f24:	d3 40       	sbci	r29, 0x03	; 3
    2f26:	89 ec       	ldi	r24, 0xC9	; 201
    2f28:	90 e0       	ldi	r25, 0x00	; 0
    2f2a:	cf 5a       	subi	r28, 0xAF	; 175
    2f2c:	dc 4f       	sbci	r29, 0xFC	; 252
    2f2e:	99 83       	std	Y+1, r25	; 0x01
    2f30:	88 83       	st	Y, r24
    2f32:	c1 55       	subi	r28, 0x51	; 81
    2f34:	d3 40       	sbci	r29, 0x03	; 3
    2f36:	80 ed       	ldi	r24, 0xD0	; 208
    2f38:	90 e0       	ldi	r25, 0x00	; 0
    2f3a:	cd 5a       	subi	r28, 0xAD	; 173
    2f3c:	dc 4f       	sbci	r29, 0xFC	; 252
    2f3e:	99 83       	std	Y+1, r25	; 0x01
    2f40:	88 83       	st	Y, r24
    2f42:	c3 55       	subi	r28, 0x53	; 83
    2f44:	d3 40       	sbci	r29, 0x03	; 3
    2f46:	87 ed       	ldi	r24, 0xD7	; 215
    2f48:	90 e0       	ldi	r25, 0x00	; 0
    2f4a:	cb 5a       	subi	r28, 0xAB	; 171
    2f4c:	dc 4f       	sbci	r29, 0xFC	; 252
    2f4e:	99 83       	std	Y+1, r25	; 0x01
    2f50:	88 83       	st	Y, r24
    2f52:	c5 55       	subi	r28, 0x55	; 85
    2f54:	d3 40       	sbci	r29, 0x03	; 3
    2f56:	8e ed       	ldi	r24, 0xDE	; 222
    2f58:	90 e0       	ldi	r25, 0x00	; 0
    2f5a:	c9 5a       	subi	r28, 0xA9	; 169
    2f5c:	dc 4f       	sbci	r29, 0xFC	; 252
    2f5e:	99 83       	std	Y+1, r25	; 0x01
    2f60:	88 83       	st	Y, r24
    2f62:	c7 55       	subi	r28, 0x57	; 87
    2f64:	d3 40       	sbci	r29, 0x03	; 3
    2f66:	85 ee       	ldi	r24, 0xE5	; 229
    2f68:	90 e0       	ldi	r25, 0x00	; 0
    2f6a:	c7 5a       	subi	r28, 0xA7	; 167
    2f6c:	dc 4f       	sbci	r29, 0xFC	; 252
    2f6e:	99 83       	std	Y+1, r25	; 0x01
    2f70:	88 83       	st	Y, r24
    2f72:	c9 55       	subi	r28, 0x59	; 89
    2f74:	d3 40       	sbci	r29, 0x03	; 3
    2f76:	8c ee       	ldi	r24, 0xEC	; 236
    2f78:	90 e0       	ldi	r25, 0x00	; 0
    2f7a:	c5 5a       	subi	r28, 0xA5	; 165
    2f7c:	dc 4f       	sbci	r29, 0xFC	; 252
    2f7e:	99 83       	std	Y+1, r25	; 0x01
    2f80:	88 83       	st	Y, r24
    2f82:	cb 55       	subi	r28, 0x5B	; 91
    2f84:	d3 40       	sbci	r29, 0x03	; 3
    2f86:	83 ef       	ldi	r24, 0xF3	; 243
    2f88:	90 e0       	ldi	r25, 0x00	; 0
    2f8a:	c3 5a       	subi	r28, 0xA3	; 163
    2f8c:	dc 4f       	sbci	r29, 0xFC	; 252
    2f8e:	99 83       	std	Y+1, r25	; 0x01
    2f90:	88 83       	st	Y, r24
    2f92:	cd 55       	subi	r28, 0x5D	; 93
    2f94:	d3 40       	sbci	r29, 0x03	; 3
    2f96:	8a ef       	ldi	r24, 0xFA	; 250
    2f98:	90 e0       	ldi	r25, 0x00	; 0
    2f9a:	c1 5a       	subi	r28, 0xA1	; 161
    2f9c:	dc 4f       	sbci	r29, 0xFC	; 252
    2f9e:	99 83       	std	Y+1, r25	; 0x01
    2fa0:	88 83       	st	Y, r24
    2fa2:	cf 55       	subi	r28, 0x5F	; 95
    2fa4:	d3 40       	sbci	r29, 0x03	; 3
    2fa6:	81 e0       	ldi	r24, 0x01	; 1
    2fa8:	91 e0       	ldi	r25, 0x01	; 1
    2faa:	cf 59       	subi	r28, 0x9F	; 159
    2fac:	dc 4f       	sbci	r29, 0xFC	; 252
    2fae:	99 83       	std	Y+1, r25	; 0x01
    2fb0:	88 83       	st	Y, r24
    2fb2:	c1 56       	subi	r28, 0x61	; 97
    2fb4:	d3 40       	sbci	r29, 0x03	; 3
    2fb6:	88 e0       	ldi	r24, 0x08	; 8
    2fb8:	91 e0       	ldi	r25, 0x01	; 1
    2fba:	cd 59       	subi	r28, 0x9D	; 157
    2fbc:	dc 4f       	sbci	r29, 0xFC	; 252
    2fbe:	99 83       	std	Y+1, r25	; 0x01
    2fc0:	88 83       	st	Y, r24
    2fc2:	c3 56       	subi	r28, 0x63	; 99
    2fc4:	d3 40       	sbci	r29, 0x03	; 3
    2fc6:	8f e0       	ldi	r24, 0x0F	; 15
    2fc8:	91 e0       	ldi	r25, 0x01	; 1
    2fca:	cb 59       	subi	r28, 0x9B	; 155
    2fcc:	dc 4f       	sbci	r29, 0xFC	; 252
    2fce:	99 83       	std	Y+1, r25	; 0x01
    2fd0:	88 83       	st	Y, r24
    2fd2:	c5 56       	subi	r28, 0x65	; 101
    2fd4:	d3 40       	sbci	r29, 0x03	; 3
    2fd6:	86 e1       	ldi	r24, 0x16	; 22
    2fd8:	91 e0       	ldi	r25, 0x01	; 1
    2fda:	c9 59       	subi	r28, 0x99	; 153
    2fdc:	dc 4f       	sbci	r29, 0xFC	; 252
    2fde:	99 83       	std	Y+1, r25	; 0x01
    2fe0:	88 83       	st	Y, r24
    2fe2:	c7 56       	subi	r28, 0x67	; 103
    2fe4:	d3 40       	sbci	r29, 0x03	; 3
    2fe6:	8d e1       	ldi	r24, 0x1D	; 29
    2fe8:	91 e0       	ldi	r25, 0x01	; 1
    2fea:	c7 59       	subi	r28, 0x97	; 151
    2fec:	dc 4f       	sbci	r29, 0xFC	; 252
    2fee:	99 83       	std	Y+1, r25	; 0x01
    2ff0:	88 83       	st	Y, r24
    2ff2:	c9 56       	subi	r28, 0x69	; 105
    2ff4:	d3 40       	sbci	r29, 0x03	; 3
    2ff6:	84 e2       	ldi	r24, 0x24	; 36
    2ff8:	91 e0       	ldi	r25, 0x01	; 1
    2ffa:	c5 59       	subi	r28, 0x95	; 149
    2ffc:	dc 4f       	sbci	r29, 0xFC	; 252
    2ffe:	99 83       	std	Y+1, r25	; 0x01
    3000:	88 83       	st	Y, r24
    3002:	cb 56       	subi	r28, 0x6B	; 107
    3004:	d3 40       	sbci	r29, 0x03	; 3
    3006:	8b e2       	ldi	r24, 0x2B	; 43
    3008:	91 e0       	ldi	r25, 0x01	; 1
    300a:	c3 59       	subi	r28, 0x93	; 147
    300c:	dc 4f       	sbci	r29, 0xFC	; 252
    300e:	99 83       	std	Y+1, r25	; 0x01
    3010:	88 83       	st	Y, r24
    3012:	cd 56       	subi	r28, 0x6D	; 109
    3014:	d3 40       	sbci	r29, 0x03	; 3
    3016:	82 e3       	ldi	r24, 0x32	; 50
    3018:	91 e0       	ldi	r25, 0x01	; 1
    301a:	c1 59       	subi	r28, 0x91	; 145
    301c:	dc 4f       	sbci	r29, 0xFC	; 252
    301e:	99 83       	std	Y+1, r25	; 0x01
    3020:	88 83       	st	Y, r24
    3022:	cf 56       	subi	r28, 0x6F	; 111
    3024:	d3 40       	sbci	r29, 0x03	; 3
    3026:	89 e3       	ldi	r24, 0x39	; 57
    3028:	91 e0       	ldi	r25, 0x01	; 1
    302a:	cf 58       	subi	r28, 0x8F	; 143
    302c:	dc 4f       	sbci	r29, 0xFC	; 252
    302e:	99 83       	std	Y+1, r25	; 0x01
    3030:	88 83       	st	Y, r24
    3032:	c1 57       	subi	r28, 0x71	; 113
    3034:	d3 40       	sbci	r29, 0x03	; 3
    3036:	80 e4       	ldi	r24, 0x40	; 64
    3038:	91 e0       	ldi	r25, 0x01	; 1
    303a:	cd 58       	subi	r28, 0x8D	; 141
    303c:	dc 4f       	sbci	r29, 0xFC	; 252
    303e:	99 83       	std	Y+1, r25	; 0x01
    3040:	88 83       	st	Y, r24
    3042:	c3 57       	subi	r28, 0x73	; 115
    3044:	d3 40       	sbci	r29, 0x03	; 3
    3046:	87 e4       	ldi	r24, 0x47	; 71
    3048:	91 e0       	ldi	r25, 0x01	; 1
    304a:	cb 58       	subi	r28, 0x8B	; 139
    304c:	dc 4f       	sbci	r29, 0xFC	; 252
    304e:	99 83       	std	Y+1, r25	; 0x01
    3050:	88 83       	st	Y, r24
    3052:	c5 57       	subi	r28, 0x75	; 117
    3054:	d3 40       	sbci	r29, 0x03	; 3
    3056:	8e e4       	ldi	r24, 0x4E	; 78
    3058:	91 e0       	ldi	r25, 0x01	; 1
    305a:	c9 58       	subi	r28, 0x89	; 137
    305c:	dc 4f       	sbci	r29, 0xFC	; 252
    305e:	99 83       	std	Y+1, r25	; 0x01
    3060:	88 83       	st	Y, r24
    3062:	c7 57       	subi	r28, 0x77	; 119
    3064:	d3 40       	sbci	r29, 0x03	; 3
    3066:	85 e5       	ldi	r24, 0x55	; 85
    3068:	91 e0       	ldi	r25, 0x01	; 1
    306a:	c7 58       	subi	r28, 0x87	; 135
    306c:	dc 4f       	sbci	r29, 0xFC	; 252
    306e:	99 83       	std	Y+1, r25	; 0x01
    3070:	88 83       	st	Y, r24
    3072:	c9 57       	subi	r28, 0x79	; 121
    3074:	d3 40       	sbci	r29, 0x03	; 3
    3076:	8c e5       	ldi	r24, 0x5C	; 92
    3078:	91 e0       	ldi	r25, 0x01	; 1
    307a:	c5 58       	subi	r28, 0x85	; 133
    307c:	dc 4f       	sbci	r29, 0xFC	; 252
    307e:	99 83       	std	Y+1, r25	; 0x01
    3080:	88 83       	st	Y, r24
    3082:	cb 57       	subi	r28, 0x7B	; 123
    3084:	d3 40       	sbci	r29, 0x03	; 3
    3086:	83 e6       	ldi	r24, 0x63	; 99
    3088:	91 e0       	ldi	r25, 0x01	; 1
    308a:	c3 58       	subi	r28, 0x83	; 131
    308c:	dc 4f       	sbci	r29, 0xFC	; 252
    308e:	99 83       	std	Y+1, r25	; 0x01
    3090:	88 83       	st	Y, r24
    3092:	cd 57       	subi	r28, 0x7D	; 125
    3094:	d3 40       	sbci	r29, 0x03	; 3
    3096:	8a e6       	ldi	r24, 0x6A	; 106
    3098:	91 e0       	ldi	r25, 0x01	; 1
    309a:	c1 58       	subi	r28, 0x81	; 129
    309c:	dc 4f       	sbci	r29, 0xFC	; 252
    309e:	99 83       	std	Y+1, r25	; 0x01
    30a0:	88 83       	st	Y, r24
    30a2:	cf 57       	subi	r28, 0x7F	; 127
    30a4:	d3 40       	sbci	r29, 0x03	; 3
    30a6:	81 e7       	ldi	r24, 0x71	; 113
    30a8:	91 e0       	ldi	r25, 0x01	; 1
    30aa:	cf 57       	subi	r28, 0x7F	; 127
    30ac:	dc 4f       	sbci	r29, 0xFC	; 252
    30ae:	99 83       	std	Y+1, r25	; 0x01
    30b0:	88 83       	st	Y, r24
    30b2:	c1 58       	subi	r28, 0x81	; 129
    30b4:	d3 40       	sbci	r29, 0x03	; 3
    30b6:	88 e7       	ldi	r24, 0x78	; 120
    30b8:	91 e0       	ldi	r25, 0x01	; 1
    30ba:	cd 57       	subi	r28, 0x7D	; 125
    30bc:	dc 4f       	sbci	r29, 0xFC	; 252
    30be:	99 83       	std	Y+1, r25	; 0x01
    30c0:	88 83       	st	Y, r24
    30c2:	c3 58       	subi	r28, 0x83	; 131
    30c4:	d3 40       	sbci	r29, 0x03	; 3
    30c6:	8f e7       	ldi	r24, 0x7F	; 127
    30c8:	91 e0       	ldi	r25, 0x01	; 1
    30ca:	cb 57       	subi	r28, 0x7B	; 123
    30cc:	dc 4f       	sbci	r29, 0xFC	; 252
    30ce:	99 83       	std	Y+1, r25	; 0x01
    30d0:	88 83       	st	Y, r24
    30d2:	c5 58       	subi	r28, 0x85	; 133
    30d4:	d3 40       	sbci	r29, 0x03	; 3
    30d6:	86 e8       	ldi	r24, 0x86	; 134
    30d8:	91 e0       	ldi	r25, 0x01	; 1
    30da:	c9 57       	subi	r28, 0x79	; 121
    30dc:	dc 4f       	sbci	r29, 0xFC	; 252
    30de:	99 83       	std	Y+1, r25	; 0x01
    30e0:	88 83       	st	Y, r24
    30e2:	c7 58       	subi	r28, 0x87	; 135
    30e4:	d3 40       	sbci	r29, 0x03	; 3
    30e6:	8d e8       	ldi	r24, 0x8D	; 141
    30e8:	91 e0       	ldi	r25, 0x01	; 1
    30ea:	c7 57       	subi	r28, 0x77	; 119
    30ec:	dc 4f       	sbci	r29, 0xFC	; 252
    30ee:	99 83       	std	Y+1, r25	; 0x01
    30f0:	88 83       	st	Y, r24
    30f2:	c9 58       	subi	r28, 0x89	; 137
    30f4:	d3 40       	sbci	r29, 0x03	; 3
    30f6:	84 e9       	ldi	r24, 0x94	; 148
    30f8:	91 e0       	ldi	r25, 0x01	; 1
    30fa:	c5 57       	subi	r28, 0x75	; 117
    30fc:	dc 4f       	sbci	r29, 0xFC	; 252
    30fe:	99 83       	std	Y+1, r25	; 0x01
    3100:	88 83       	st	Y, r24
    3102:	cb 58       	subi	r28, 0x8B	; 139
    3104:	d3 40       	sbci	r29, 0x03	; 3
    3106:	8b e9       	ldi	r24, 0x9B	; 155
    3108:	91 e0       	ldi	r25, 0x01	; 1
    310a:	c3 57       	subi	r28, 0x73	; 115
    310c:	dc 4f       	sbci	r29, 0xFC	; 252
    310e:	99 83       	std	Y+1, r25	; 0x01
    3110:	88 83       	st	Y, r24
    3112:	cd 58       	subi	r28, 0x8D	; 141
    3114:	d3 40       	sbci	r29, 0x03	; 3
    3116:	82 ea       	ldi	r24, 0xA2	; 162
    3118:	91 e0       	ldi	r25, 0x01	; 1
    311a:	c1 57       	subi	r28, 0x71	; 113
    311c:	dc 4f       	sbci	r29, 0xFC	; 252
    311e:	99 83       	std	Y+1, r25	; 0x01
    3120:	88 83       	st	Y, r24
    3122:	cf 58       	subi	r28, 0x8F	; 143
    3124:	d3 40       	sbci	r29, 0x03	; 3
    3126:	89 ea       	ldi	r24, 0xA9	; 169
    3128:	91 e0       	ldi	r25, 0x01	; 1
    312a:	cf 56       	subi	r28, 0x6F	; 111
    312c:	dc 4f       	sbci	r29, 0xFC	; 252
    312e:	99 83       	std	Y+1, r25	; 0x01
    3130:	88 83       	st	Y, r24
    3132:	c1 59       	subi	r28, 0x91	; 145
    3134:	d3 40       	sbci	r29, 0x03	; 3
    3136:	80 eb       	ldi	r24, 0xB0	; 176
    3138:	91 e0       	ldi	r25, 0x01	; 1
    313a:	cd 56       	subi	r28, 0x6D	; 109
    313c:	dc 4f       	sbci	r29, 0xFC	; 252
    313e:	99 83       	std	Y+1, r25	; 0x01
    3140:	88 83       	st	Y, r24
    3142:	c3 59       	subi	r28, 0x93	; 147
    3144:	d3 40       	sbci	r29, 0x03	; 3
    3146:	87 eb       	ldi	r24, 0xB7	; 183
    3148:	91 e0       	ldi	r25, 0x01	; 1
    314a:	cb 56       	subi	r28, 0x6B	; 107
    314c:	dc 4f       	sbci	r29, 0xFC	; 252
    314e:	99 83       	std	Y+1, r25	; 0x01
    3150:	88 83       	st	Y, r24
    3152:	c5 59       	subi	r28, 0x95	; 149
    3154:	d3 40       	sbci	r29, 0x03	; 3
    3156:	8e eb       	ldi	r24, 0xBE	; 190
    3158:	91 e0       	ldi	r25, 0x01	; 1
    315a:	c9 56       	subi	r28, 0x69	; 105
    315c:	dc 4f       	sbci	r29, 0xFC	; 252
    315e:	99 83       	std	Y+1, r25	; 0x01
    3160:	88 83       	st	Y, r24
    3162:	c7 59       	subi	r28, 0x97	; 151
    3164:	d3 40       	sbci	r29, 0x03	; 3
    3166:	85 ec       	ldi	r24, 0xC5	; 197
    3168:	91 e0       	ldi	r25, 0x01	; 1
    316a:	c7 56       	subi	r28, 0x67	; 103
    316c:	dc 4f       	sbci	r29, 0xFC	; 252
    316e:	99 83       	std	Y+1, r25	; 0x01
    3170:	88 83       	st	Y, r24
    3172:	c9 59       	subi	r28, 0x99	; 153
    3174:	d3 40       	sbci	r29, 0x03	; 3
    3176:	8c ec       	ldi	r24, 0xCC	; 204
    3178:	91 e0       	ldi	r25, 0x01	; 1
    317a:	c5 56       	subi	r28, 0x65	; 101
    317c:	dc 4f       	sbci	r29, 0xFC	; 252
    317e:	99 83       	std	Y+1, r25	; 0x01
    3180:	88 83       	st	Y, r24
    3182:	cb 59       	subi	r28, 0x9B	; 155
    3184:	d3 40       	sbci	r29, 0x03	; 3
    3186:	83 ed       	ldi	r24, 0xD3	; 211
    3188:	91 e0       	ldi	r25, 0x01	; 1
    318a:	c3 56       	subi	r28, 0x63	; 99
    318c:	dc 4f       	sbci	r29, 0xFC	; 252
    318e:	99 83       	std	Y+1, r25	; 0x01
    3190:	88 83       	st	Y, r24
    3192:	cd 59       	subi	r28, 0x9D	; 157
    3194:	d3 40       	sbci	r29, 0x03	; 3
    3196:	8a ed       	ldi	r24, 0xDA	; 218
    3198:	91 e0       	ldi	r25, 0x01	; 1
    319a:	c1 56       	subi	r28, 0x61	; 97
    319c:	dc 4f       	sbci	r29, 0xFC	; 252
    319e:	99 83       	std	Y+1, r25	; 0x01
    31a0:	88 83       	st	Y, r24
    31a2:	cf 59       	subi	r28, 0x9F	; 159
    31a4:	d3 40       	sbci	r29, 0x03	; 3
    31a6:	81 ee       	ldi	r24, 0xE1	; 225
    31a8:	91 e0       	ldi	r25, 0x01	; 1
    31aa:	cf 55       	subi	r28, 0x5F	; 95
    31ac:	dc 4f       	sbci	r29, 0xFC	; 252
    31ae:	99 83       	std	Y+1, r25	; 0x01
    31b0:	88 83       	st	Y, r24
    31b2:	c1 5a       	subi	r28, 0xA1	; 161
    31b4:	d3 40       	sbci	r29, 0x03	; 3
    31b6:	88 ee       	ldi	r24, 0xE8	; 232
    31b8:	91 e0       	ldi	r25, 0x01	; 1
    31ba:	cd 55       	subi	r28, 0x5D	; 93
    31bc:	dc 4f       	sbci	r29, 0xFC	; 252
    31be:	99 83       	std	Y+1, r25	; 0x01
    31c0:	88 83       	st	Y, r24
    31c2:	c3 5a       	subi	r28, 0xA3	; 163
    31c4:	d3 40       	sbci	r29, 0x03	; 3
    31c6:	8f ee       	ldi	r24, 0xEF	; 239
    31c8:	91 e0       	ldi	r25, 0x01	; 1
    31ca:	cb 55       	subi	r28, 0x5B	; 91
    31cc:	dc 4f       	sbci	r29, 0xFC	; 252
    31ce:	99 83       	std	Y+1, r25	; 0x01
    31d0:	88 83       	st	Y, r24
    31d2:	c5 5a       	subi	r28, 0xA5	; 165
    31d4:	d3 40       	sbci	r29, 0x03	; 3
    31d6:	2b ef       	ldi	r18, 0xFB	; 251
    31d8:	31 e0       	ldi	r19, 0x01	; 1
    31da:	c9 55       	subi	r28, 0x59	; 89
    31dc:	dc 4f       	sbci	r29, 0xFC	; 252
    31de:	39 83       	std	Y+1, r19	; 0x01
    31e0:	28 83       	st	Y, r18
    31e2:	c7 5a       	subi	r28, 0xA7	; 167
    31e4:	d3 40       	sbci	r29, 0x03	; 3
    31e6:	82 e0       	ldi	r24, 0x02	; 2
    31e8:	92 e0       	ldi	r25, 0x02	; 2
    31ea:	c7 55       	subi	r28, 0x57	; 87
    31ec:	dc 4f       	sbci	r29, 0xFC	; 252
    31ee:	99 83       	std	Y+1, r25	; 0x01
    31f0:	88 83       	st	Y, r24
    31f2:	c9 5a       	subi	r28, 0xA9	; 169
    31f4:	d3 40       	sbci	r29, 0x03	; 3
    31f6:	49 e0       	ldi	r20, 0x09	; 9
    31f8:	52 e0       	ldi	r21, 0x02	; 2
    31fa:	c5 55       	subi	r28, 0x55	; 85
    31fc:	dc 4f       	sbci	r29, 0xFC	; 252
    31fe:	59 83       	std	Y+1, r21	; 0x01
    3200:	48 83       	st	Y, r20
    3202:	cb 5a       	subi	r28, 0xAB	; 171
    3204:	d3 40       	sbci	r29, 0x03	; 3
    3206:	80 e1       	ldi	r24, 0x10	; 16
    3208:	92 e0       	ldi	r25, 0x02	; 2
    320a:	c3 55       	subi	r28, 0x53	; 83
    320c:	dc 4f       	sbci	r29, 0xFC	; 252
    320e:	99 83       	std	Y+1, r25	; 0x01
    3210:	88 83       	st	Y, r24
    3212:	cd 5a       	subi	r28, 0xAD	; 173
    3214:	d3 40       	sbci	r29, 0x03	; 3
    3216:	67 e1       	ldi	r22, 0x17	; 23
    3218:	72 e0       	ldi	r23, 0x02	; 2
    321a:	c1 55       	subi	r28, 0x51	; 81
    321c:	dc 4f       	sbci	r29, 0xFC	; 252
    321e:	79 83       	std	Y+1, r23	; 0x01
    3220:	68 83       	st	Y, r22
    3222:	cf 5a       	subi	r28, 0xAF	; 175
    3224:	d3 40       	sbci	r29, 0x03	; 3
    3226:	8e e1       	ldi	r24, 0x1E	; 30
    3228:	92 e0       	ldi	r25, 0x02	; 2
    322a:	cf 54       	subi	r28, 0x4F	; 79
    322c:	dc 4f       	sbci	r29, 0xFC	; 252
    322e:	99 83       	std	Y+1, r25	; 0x01
    3230:	88 83       	st	Y, r24
    3232:	c1 5b       	subi	r28, 0xB1	; 177
    3234:	d3 40       	sbci	r29, 0x03	; 3
    3236:	0f 2e       	mov	r0, r31
    3238:	f5 e2       	ldi	r31, 0x25	; 37
    323a:	2f 2e       	mov	r2, r31
    323c:	f2 e0       	ldi	r31, 0x02	; 2
    323e:	3f 2e       	mov	r3, r31
    3240:	f0 2d       	mov	r31, r0
    3242:	cd 54       	subi	r28, 0x4D	; 77
    3244:	dc 4f       	sbci	r29, 0xFC	; 252
    3246:	39 82       	std	Y+1, r3	; 0x01
    3248:	28 82       	st	Y, r2
    324a:	c3 5b       	subi	r28, 0xB3	; 179
    324c:	d3 40       	sbci	r29, 0x03	; 3
    324e:	8c e2       	ldi	r24, 0x2C	; 44
    3250:	92 e0       	ldi	r25, 0x02	; 2
    3252:	cb 54       	subi	r28, 0x4B	; 75
    3254:	dc 4f       	sbci	r29, 0xFC	; 252
    3256:	99 83       	std	Y+1, r25	; 0x01
    3258:	88 83       	st	Y, r24
    325a:	c5 5b       	subi	r28, 0xB5	; 181
    325c:	d3 40       	sbci	r29, 0x03	; 3
    325e:	0f 2e       	mov	r0, r31
    3260:	f3 e3       	ldi	r31, 0x33	; 51
    3262:	4f 2e       	mov	r4, r31
    3264:	f2 e0       	ldi	r31, 0x02	; 2
    3266:	5f 2e       	mov	r5, r31
    3268:	f0 2d       	mov	r31, r0
    326a:	c9 54       	subi	r28, 0x49	; 73
    326c:	dc 4f       	sbci	r29, 0xFC	; 252
    326e:	59 82       	std	Y+1, r5	; 0x01
    3270:	48 82       	st	Y, r4
    3272:	c7 5b       	subi	r28, 0xB7	; 183
    3274:	d3 40       	sbci	r29, 0x03	; 3
    3276:	8a e3       	ldi	r24, 0x3A	; 58
    3278:	92 e0       	ldi	r25, 0x02	; 2
    327a:	c7 54       	subi	r28, 0x47	; 71
    327c:	dc 4f       	sbci	r29, 0xFC	; 252
    327e:	99 83       	std	Y+1, r25	; 0x01
    3280:	88 83       	st	Y, r24
    3282:	c9 5b       	subi	r28, 0xB9	; 185
    3284:	d3 40       	sbci	r29, 0x03	; 3
    3286:	81 e4       	ldi	r24, 0x41	; 65
    3288:	92 e0       	ldi	r25, 0x02	; 2
    328a:	c5 54       	subi	r28, 0x45	; 69
    328c:	dc 4f       	sbci	r29, 0xFC	; 252
    328e:	99 83       	std	Y+1, r25	; 0x01
    3290:	88 83       	st	Y, r24
    3292:	cb 5b       	subi	r28, 0xBB	; 187
    3294:	d3 40       	sbci	r29, 0x03	; 3
    3296:	88 e4       	ldi	r24, 0x48	; 72
    3298:	92 e0       	ldi	r25, 0x02	; 2
    329a:	c3 54       	subi	r28, 0x43	; 67
    329c:	dc 4f       	sbci	r29, 0xFC	; 252
    329e:	99 83       	std	Y+1, r25	; 0x01
    32a0:	88 83       	st	Y, r24
    32a2:	cd 5b       	subi	r28, 0xBD	; 189
    32a4:	d3 40       	sbci	r29, 0x03	; 3
    32a6:	8f e4       	ldi	r24, 0x4F	; 79
    32a8:	92 e0       	ldi	r25, 0x02	; 2
    32aa:	c1 54       	subi	r28, 0x41	; 65
    32ac:	dc 4f       	sbci	r29, 0xFC	; 252
    32ae:	99 83       	std	Y+1, r25	; 0x01
    32b0:	88 83       	st	Y, r24
    32b2:	cf 5b       	subi	r28, 0xBF	; 191
    32b4:	d3 40       	sbci	r29, 0x03	; 3
    32b6:	86 e5       	ldi	r24, 0x56	; 86
    32b8:	92 e0       	ldi	r25, 0x02	; 2
    32ba:	cf 53       	subi	r28, 0x3F	; 63
    32bc:	dc 4f       	sbci	r29, 0xFC	; 252
    32be:	99 83       	std	Y+1, r25	; 0x01
    32c0:	88 83       	st	Y, r24
    32c2:	c1 5c       	subi	r28, 0xC1	; 193
    32c4:	d3 40       	sbci	r29, 0x03	; 3
    32c6:	8d e5       	ldi	r24, 0x5D	; 93
    32c8:	92 e0       	ldi	r25, 0x02	; 2
    32ca:	cd 53       	subi	r28, 0x3D	; 61
    32cc:	dc 4f       	sbci	r29, 0xFC	; 252
    32ce:	99 83       	std	Y+1, r25	; 0x01
    32d0:	88 83       	st	Y, r24
    32d2:	c3 5c       	subi	r28, 0xC3	; 195
    32d4:	d3 40       	sbci	r29, 0x03	; 3
    32d6:	84 e6       	ldi	r24, 0x64	; 100
    32d8:	92 e0       	ldi	r25, 0x02	; 2
    32da:	cb 53       	subi	r28, 0x3B	; 59
    32dc:	dc 4f       	sbci	r29, 0xFC	; 252
    32de:	99 83       	std	Y+1, r25	; 0x01
    32e0:	88 83       	st	Y, r24
    32e2:	c5 5c       	subi	r28, 0xC5	; 197
    32e4:	d3 40       	sbci	r29, 0x03	; 3
    32e6:	8b e6       	ldi	r24, 0x6B	; 107
    32e8:	92 e0       	ldi	r25, 0x02	; 2
    32ea:	c9 53       	subi	r28, 0x39	; 57
    32ec:	dc 4f       	sbci	r29, 0xFC	; 252
    32ee:	99 83       	std	Y+1, r25	; 0x01
    32f0:	88 83       	st	Y, r24
    32f2:	c7 5c       	subi	r28, 0xC7	; 199
    32f4:	d3 40       	sbci	r29, 0x03	; 3
    32f6:	0f 2e       	mov	r0, r31
    32f8:	f2 e7       	ldi	r31, 0x72	; 114
    32fa:	6f 2e       	mov	r6, r31
    32fc:	f2 e0       	ldi	r31, 0x02	; 2
    32fe:	7f 2e       	mov	r7, r31
    3300:	f0 2d       	mov	r31, r0
    3302:	c7 53       	subi	r28, 0x37	; 55
    3304:	dc 4f       	sbci	r29, 0xFC	; 252
    3306:	79 82       	std	Y+1, r7	; 0x01
    3308:	68 82       	st	Y, r6
    330a:	c9 5c       	subi	r28, 0xC9	; 201
    330c:	d3 40       	sbci	r29, 0x03	; 3
    330e:	0f 2e       	mov	r0, r31
    3310:	f9 e7       	ldi	r31, 0x79	; 121
    3312:	8f 2e       	mov	r8, r31
    3314:	f2 e0       	ldi	r31, 0x02	; 2
    3316:	9f 2e       	mov	r9, r31
    3318:	f0 2d       	mov	r31, r0
    331a:	c5 53       	subi	r28, 0x35	; 53
    331c:	dc 4f       	sbci	r29, 0xFC	; 252
    331e:	99 82       	std	Y+1, r9	; 0x01
    3320:	88 82       	st	Y, r8
    3322:	cb 5c       	subi	r28, 0xCB	; 203
    3324:	d3 40       	sbci	r29, 0x03	; 3
    3326:	80 e8       	ldi	r24, 0x80	; 128
    3328:	92 e0       	ldi	r25, 0x02	; 2
    332a:	c3 53       	subi	r28, 0x33	; 51
    332c:	dc 4f       	sbci	r29, 0xFC	; 252
    332e:	99 83       	std	Y+1, r25	; 0x01
    3330:	88 83       	st	Y, r24
    3332:	cd 5c       	subi	r28, 0xCD	; 205
    3334:	d3 40       	sbci	r29, 0x03	; 3
    3336:	87 e8       	ldi	r24, 0x87	; 135
    3338:	92 e0       	ldi	r25, 0x02	; 2
    333a:	c1 53       	subi	r28, 0x31	; 49
    333c:	dc 4f       	sbci	r29, 0xFC	; 252
    333e:	99 83       	std	Y+1, r25	; 0x01
    3340:	88 83       	st	Y, r24
    3342:	cf 5c       	subi	r28, 0xCF	; 207
    3344:	d3 40       	sbci	r29, 0x03	; 3
    3346:	8e e8       	ldi	r24, 0x8E	; 142
    3348:	92 e0       	ldi	r25, 0x02	; 2
    334a:	cf 52       	subi	r28, 0x2F	; 47
    334c:	dc 4f       	sbci	r29, 0xFC	; 252
    334e:	99 83       	std	Y+1, r25	; 0x01
    3350:	88 83       	st	Y, r24
    3352:	c1 5d       	subi	r28, 0xD1	; 209
    3354:	d3 40       	sbci	r29, 0x03	; 3
    3356:	0f 2e       	mov	r0, r31
    3358:	f5 e9       	ldi	r31, 0x95	; 149
    335a:	af 2e       	mov	r10, r31
    335c:	f2 e0       	ldi	r31, 0x02	; 2
    335e:	bf 2e       	mov	r11, r31
    3360:	f0 2d       	mov	r31, r0
    3362:	cd 52       	subi	r28, 0x2D	; 45
    3364:	dc 4f       	sbci	r29, 0xFC	; 252
    3366:	b9 82       	std	Y+1, r11	; 0x01
    3368:	a8 82       	st	Y, r10
    336a:	c3 5d       	subi	r28, 0xD3	; 211
    336c:	d3 40       	sbci	r29, 0x03	; 3
    336e:	8c e9       	ldi	r24, 0x9C	; 156
    3370:	92 e0       	ldi	r25, 0x02	; 2
    3372:	cb 52       	subi	r28, 0x2B	; 43
    3374:	dc 4f       	sbci	r29, 0xFC	; 252
    3376:	99 83       	std	Y+1, r25	; 0x01
    3378:	88 83       	st	Y, r24
    337a:	c5 5d       	subi	r28, 0xD5	; 213
    337c:	d3 40       	sbci	r29, 0x03	; 3
    337e:	83 ea       	ldi	r24, 0xA3	; 163
    3380:	92 e0       	ldi	r25, 0x02	; 2
    3382:	c9 52       	subi	r28, 0x29	; 41
    3384:	dc 4f       	sbci	r29, 0xFC	; 252
    3386:	99 83       	std	Y+1, r25	; 0x01
    3388:	88 83       	st	Y, r24
    338a:	c7 5d       	subi	r28, 0xD7	; 215
    338c:	d3 40       	sbci	r29, 0x03	; 3
    338e:	8a ea       	ldi	r24, 0xAA	; 170
    3390:	92 e0       	ldi	r25, 0x02	; 2
    3392:	c7 52       	subi	r28, 0x27	; 39
    3394:	dc 4f       	sbci	r29, 0xFC	; 252
    3396:	99 83       	std	Y+1, r25	; 0x01
    3398:	88 83       	st	Y, r24
    339a:	c9 5d       	subi	r28, 0xD9	; 217
    339c:	d3 40       	sbci	r29, 0x03	; 3
    339e:	21 eb       	ldi	r18, 0xB1	; 177
    33a0:	32 e0       	ldi	r19, 0x02	; 2
    33a2:	c5 52       	subi	r28, 0x25	; 37
    33a4:	dc 4f       	sbci	r29, 0xFC	; 252
    33a6:	39 83       	std	Y+1, r19	; 0x01
    33a8:	28 83       	st	Y, r18
    33aa:	cb 5d       	subi	r28, 0xDB	; 219
    33ac:	d3 40       	sbci	r29, 0x03	; 3
    33ae:	28 eb       	ldi	r18, 0xB8	; 184
    33b0:	32 e0       	ldi	r19, 0x02	; 2
    33b2:	c3 52       	subi	r28, 0x23	; 35
    33b4:	dc 4f       	sbci	r29, 0xFC	; 252
    33b6:	39 83       	std	Y+1, r19	; 0x01
    33b8:	28 83       	st	Y, r18
    33ba:	cd 5d       	subi	r28, 0xDD	; 221
    33bc:	d3 40       	sbci	r29, 0x03	; 3
    33be:	4f eb       	ldi	r20, 0xBF	; 191
    33c0:	52 e0       	ldi	r21, 0x02	; 2
    33c2:	c1 52       	subi	r28, 0x21	; 33
    33c4:	dc 4f       	sbci	r29, 0xFC	; 252
    33c6:	59 83       	std	Y+1, r21	; 0x01
    33c8:	48 83       	st	Y, r20
    33ca:	cf 5d       	subi	r28, 0xDF	; 223
    33cc:	d3 40       	sbci	r29, 0x03	; 3
    33ce:	46 ec       	ldi	r20, 0xC6	; 198
    33d0:	52 e0       	ldi	r21, 0x02	; 2
    33d2:	cf 51       	subi	r28, 0x1F	; 31
    33d4:	dc 4f       	sbci	r29, 0xFC	; 252
    33d6:	59 83       	std	Y+1, r21	; 0x01
    33d8:	48 83       	st	Y, r20
    33da:	c1 5e       	subi	r28, 0xE1	; 225
    33dc:	d3 40       	sbci	r29, 0x03	; 3
    33de:	4d ec       	ldi	r20, 0xCD	; 205
    33e0:	52 e0       	ldi	r21, 0x02	; 2
    33e2:	cd 51       	subi	r28, 0x1D	; 29
    33e4:	dc 4f       	sbci	r29, 0xFC	; 252
    33e6:	59 83       	std	Y+1, r21	; 0x01
    33e8:	48 83       	st	Y, r20
    33ea:	c3 5e       	subi	r28, 0xE3	; 227
    33ec:	d3 40       	sbci	r29, 0x03	; 3
    33ee:	44 ed       	ldi	r20, 0xD4	; 212
    33f0:	52 e0       	ldi	r21, 0x02	; 2
    33f2:	cb 51       	subi	r28, 0x1B	; 27
    33f4:	dc 4f       	sbci	r29, 0xFC	; 252
    33f6:	59 83       	std	Y+1, r21	; 0x01
    33f8:	48 83       	st	Y, r20
    33fa:	c5 5e       	subi	r28, 0xE5	; 229
    33fc:	d3 40       	sbci	r29, 0x03	; 3
    33fe:	4b ed       	ldi	r20, 0xDB	; 219
    3400:	52 e0       	ldi	r21, 0x02	; 2
    3402:	c9 51       	subi	r28, 0x19	; 25
    3404:	dc 4f       	sbci	r29, 0xFC	; 252
    3406:	59 83       	std	Y+1, r21	; 0x01
    3408:	48 83       	st	Y, r20
    340a:	c7 5e       	subi	r28, 0xE7	; 231
    340c:	d3 40       	sbci	r29, 0x03	; 3
    340e:	42 ee       	ldi	r20, 0xE2	; 226
    3410:	52 e0       	ldi	r21, 0x02	; 2
    3412:	c7 51       	subi	r28, 0x17	; 23
    3414:	dc 4f       	sbci	r29, 0xFC	; 252
    3416:	59 83       	std	Y+1, r21	; 0x01
    3418:	48 83       	st	Y, r20
    341a:	c9 5e       	subi	r28, 0xE9	; 233
    341c:	d3 40       	sbci	r29, 0x03	; 3
    341e:	49 ee       	ldi	r20, 0xE9	; 233
    3420:	52 e0       	ldi	r21, 0x02	; 2
    3422:	c5 51       	subi	r28, 0x15	; 21
    3424:	dc 4f       	sbci	r29, 0xFC	; 252
    3426:	59 83       	std	Y+1, r21	; 0x01
    3428:	48 83       	st	Y, r20
    342a:	cb 5e       	subi	r28, 0xEB	; 235
    342c:	d3 40       	sbci	r29, 0x03	; 3
    342e:	60 ef       	ldi	r22, 0xF0	; 240
    3430:	72 e0       	ldi	r23, 0x02	; 2
    3432:	c3 51       	subi	r28, 0x13	; 19
    3434:	dc 4f       	sbci	r29, 0xFC	; 252
    3436:	79 83       	std	Y+1, r23	; 0x01
    3438:	68 83       	st	Y, r22
    343a:	cd 5e       	subi	r28, 0xED	; 237
    343c:	d3 40       	sbci	r29, 0x03	; 3
    343e:	e7 ef       	ldi	r30, 0xF7	; 247
    3440:	f2 e0       	ldi	r31, 0x02	; 2
    3442:	c1 51       	subi	r28, 0x11	; 17
    3444:	dc 4f       	sbci	r29, 0xFC	; 252
    3446:	f9 83       	std	Y+1, r31	; 0x01
    3448:	e8 83       	st	Y, r30
    344a:	cf 5e       	subi	r28, 0xEF	; 239
    344c:	d3 40       	sbci	r29, 0x03	; 3
    344e:	ee ef       	ldi	r30, 0xFE	; 254
    3450:	f2 e0       	ldi	r31, 0x02	; 2
    3452:	cf 50       	subi	r28, 0x0F	; 15
    3454:	dc 4f       	sbci	r29, 0xFC	; 252
    3456:	f9 83       	std	Y+1, r31	; 0x01
    3458:	e8 83       	st	Y, r30
    345a:	c1 5f       	subi	r28, 0xF1	; 241
    345c:	d3 40       	sbci	r29, 0x03	; 3
    345e:	e5 e0       	ldi	r30, 0x05	; 5
    3460:	f3 e0       	ldi	r31, 0x03	; 3
    3462:	cd 50       	subi	r28, 0x0D	; 13
    3464:	dc 4f       	sbci	r29, 0xFC	; 252
    3466:	f9 83       	std	Y+1, r31	; 0x01
    3468:	e8 83       	st	Y, r30
    346a:	c3 5f       	subi	r28, 0xF3	; 243
    346c:	d3 40       	sbci	r29, 0x03	; 3
    346e:	ec e0       	ldi	r30, 0x0C	; 12
    3470:	f3 e0       	ldi	r31, 0x03	; 3
    3472:	cb 50       	subi	r28, 0x0B	; 11
    3474:	dc 4f       	sbci	r29, 0xFC	; 252
    3476:	f9 83       	std	Y+1, r31	; 0x01
    3478:	e8 83       	st	Y, r30
    347a:	c5 5f       	subi	r28, 0xF5	; 245
    347c:	d3 40       	sbci	r29, 0x03	; 3
    347e:	a3 e1       	ldi	r26, 0x13	; 19
    3480:	b3 e0       	ldi	r27, 0x03	; 3
    3482:	c9 50       	subi	r28, 0x09	; 9
    3484:	dc 4f       	sbci	r29, 0xFC	; 252
    3486:	b9 83       	std	Y+1, r27	; 0x01
    3488:	a8 83       	st	Y, r26
    348a:	c7 5f       	subi	r28, 0xF7	; 247
    348c:	d3 40       	sbci	r29, 0x03	; 3
    348e:	0a e1       	ldi	r16, 0x1A	; 26
    3490:	13 e0       	ldi	r17, 0x03	; 3
    3492:	c7 50       	subi	r28, 0x07	; 7
    3494:	dc 4f       	sbci	r29, 0xFC	; 252
    3496:	19 83       	std	Y+1, r17	; 0x01
    3498:	08 83       	st	Y, r16
    349a:	c9 5f       	subi	r28, 0xF9	; 249
    349c:	d3 40       	sbci	r29, 0x03	; 3
    349e:	01 e2       	ldi	r16, 0x21	; 33
    34a0:	13 e0       	ldi	r17, 0x03	; 3
    34a2:	c5 50       	subi	r28, 0x05	; 5
    34a4:	dc 4f       	sbci	r29, 0xFC	; 252
    34a6:	19 83       	std	Y+1, r17	; 0x01
    34a8:	08 83       	st	Y, r16
    34aa:	cb 5f       	subi	r28, 0xFB	; 251
    34ac:	d3 40       	sbci	r29, 0x03	; 3
    34ae:	08 e2       	ldi	r16, 0x28	; 40
    34b0:	13 e0       	ldi	r17, 0x03	; 3
    34b2:	c3 50       	subi	r28, 0x03	; 3
    34b4:	dc 4f       	sbci	r29, 0xFC	; 252
    34b6:	19 83       	std	Y+1, r17	; 0x01
    34b8:	08 83       	st	Y, r16
    34ba:	cd 5f       	subi	r28, 0xFD	; 253
    34bc:	d3 40       	sbci	r29, 0x03	; 3
    34be:	0f e2       	ldi	r16, 0x2F	; 47
    34c0:	13 e0       	ldi	r17, 0x03	; 3
    34c2:	c1 50       	subi	r28, 0x01	; 1
    34c4:	dc 4f       	sbci	r29, 0xFC	; 252
    34c6:	19 83       	std	Y+1, r17	; 0x01
    34c8:	08 83       	st	Y, r16
    34ca:	cf 5f       	subi	r28, 0xFF	; 255
    34cc:	d3 40       	sbci	r29, 0x03	; 3
    34ce:	06 e3       	ldi	r16, 0x36	; 54
    34d0:	13 e0       	ldi	r17, 0x03	; 3
    34d2:	cf 5f       	subi	r28, 0xFF	; 255
    34d4:	db 4f       	sbci	r29, 0xFB	; 251
    34d6:	19 83       	std	Y+1, r17	; 0x01
    34d8:	08 83       	st	Y, r16
    34da:	c1 50       	subi	r28, 0x01	; 1
    34dc:	d4 40       	sbci	r29, 0x04	; 4
    34de:	0d e3       	ldi	r16, 0x3D	; 61
    34e0:	13 e0       	ldi	r17, 0x03	; 3
    34e2:	cd 5f       	subi	r28, 0xFD	; 253
    34e4:	db 4f       	sbci	r29, 0xFB	; 251
    34e6:	19 83       	std	Y+1, r17	; 0x01
    34e8:	08 83       	st	Y, r16
    34ea:	c3 50       	subi	r28, 0x03	; 3
    34ec:	d4 40       	sbci	r29, 0x04	; 4
    34ee:	0f 2e       	mov	r0, r31
    34f0:	f4 e4       	ldi	r31, 0x44	; 68
    34f2:	ef 2e       	mov	r14, r31
    34f4:	f3 e0       	ldi	r31, 0x03	; 3
    34f6:	ff 2e       	mov	r15, r31
    34f8:	f0 2d       	mov	r31, r0
    34fa:	cb 5f       	subi	r28, 0xFB	; 251
    34fc:	db 4f       	sbci	r29, 0xFB	; 251
    34fe:	f9 82       	std	Y+1, r15	; 0x01
    3500:	e8 82       	st	Y, r14
    3502:	c5 50       	subi	r28, 0x05	; 5
    3504:	d4 40       	sbci	r29, 0x04	; 4
    3506:	0f 2e       	mov	r0, r31
    3508:	fb e4       	ldi	r31, 0x4B	; 75
    350a:	ef 2e       	mov	r14, r31
    350c:	f3 e0       	ldi	r31, 0x03	; 3
    350e:	ff 2e       	mov	r15, r31
    3510:	f0 2d       	mov	r31, r0
    3512:	c9 5f       	subi	r28, 0xF9	; 249
    3514:	db 4f       	sbci	r29, 0xFB	; 251
    3516:	f9 82       	std	Y+1, r15	; 0x01
    3518:	e8 82       	st	Y, r14
    351a:	c7 50       	subi	r28, 0x07	; 7
    351c:	d4 40       	sbci	r29, 0x04	; 4
    351e:	0f 2e       	mov	r0, r31
    3520:	f2 e5       	ldi	r31, 0x52	; 82
    3522:	ef 2e       	mov	r14, r31
    3524:	f3 e0       	ldi	r31, 0x03	; 3
    3526:	ff 2e       	mov	r15, r31
    3528:	f0 2d       	mov	r31, r0
    352a:	c7 5f       	subi	r28, 0xF7	; 247
    352c:	db 4f       	sbci	r29, 0xFB	; 251
    352e:	f9 82       	std	Y+1, r15	; 0x01
    3530:	e8 82       	st	Y, r14
    3532:	c9 50       	subi	r28, 0x09	; 9
    3534:	d4 40       	sbci	r29, 0x04	; 4
    3536:	0f 2e       	mov	r0, r31
    3538:	f9 e5       	ldi	r31, 0x59	; 89
    353a:	cf 2e       	mov	r12, r31
    353c:	f3 e0       	ldi	r31, 0x03	; 3
    353e:	df 2e       	mov	r13, r31
    3540:	f0 2d       	mov	r31, r0
    3542:	c5 5f       	subi	r28, 0xF5	; 245
    3544:	db 4f       	sbci	r29, 0xFB	; 251
    3546:	d9 82       	std	Y+1, r13	; 0x01
    3548:	c8 82       	st	Y, r12
    354a:	cb 50       	subi	r28, 0x0B	; 11
    354c:	d4 40       	sbci	r29, 0x04	; 4
    354e:	0f 2e       	mov	r0, r31
    3550:	f1 e6       	ldi	r31, 0x61	; 97
    3552:	cf 2e       	mov	r12, r31
    3554:	f3 e0       	ldi	r31, 0x03	; 3
    3556:	df 2e       	mov	r13, r31
    3558:	f0 2d       	mov	r31, r0
    355a:	c3 5f       	subi	r28, 0xF3	; 243
    355c:	db 4f       	sbci	r29, 0xFB	; 251
    355e:	d9 82       	std	Y+1, r13	; 0x01
    3560:	c8 82       	st	Y, r12
    3562:	cd 50       	subi	r28, 0x0D	; 13
    3564:	d4 40       	sbci	r29, 0x04	; 4
    3566:	0f 2e       	mov	r0, r31
    3568:	ff e6       	ldi	r31, 0x6F	; 111
    356a:	cf 2e       	mov	r12, r31
    356c:	f3 e0       	ldi	r31, 0x03	; 3
    356e:	df 2e       	mov	r13, r31
    3570:	f0 2d       	mov	r31, r0
    3572:	c1 5f       	subi	r28, 0xF1	; 241
    3574:	db 4f       	sbci	r29, 0xFB	; 251
    3576:	d9 82       	std	Y+1, r13	; 0x01
    3578:	c8 82       	st	Y, r12
    357a:	cf 50       	subi	r28, 0x0F	; 15
    357c:	d4 40       	sbci	r29, 0x04	; 4
    357e:	0f 2e       	mov	r0, r31
    3580:	f6 e7       	ldi	r31, 0x76	; 118
    3582:	cf 2e       	mov	r12, r31
    3584:	f3 e0       	ldi	r31, 0x03	; 3
    3586:	df 2e       	mov	r13, r31
    3588:	f0 2d       	mov	r31, r0
    358a:	cf 5e       	subi	r28, 0xEF	; 239
    358c:	db 4f       	sbci	r29, 0xFB	; 251
    358e:	d9 82       	std	Y+1, r13	; 0x01
    3590:	c8 82       	st	Y, r12
    3592:	c1 51       	subi	r28, 0x11	; 17
    3594:	d4 40       	sbci	r29, 0x04	; 4
    3596:	0f 2e       	mov	r0, r31
    3598:	fd e7       	ldi	r31, 0x7D	; 125
    359a:	cf 2e       	mov	r12, r31
    359c:	f3 e0       	ldi	r31, 0x03	; 3
    359e:	df 2e       	mov	r13, r31
    35a0:	f0 2d       	mov	r31, r0
    35a2:	cd 5e       	subi	r28, 0xED	; 237
    35a4:	db 4f       	sbci	r29, 0xFB	; 251
    35a6:	d9 82       	std	Y+1, r13	; 0x01
    35a8:	c8 82       	st	Y, r12
    35aa:	c3 51       	subi	r28, 0x13	; 19
    35ac:	d4 40       	sbci	r29, 0x04	; 4
    35ae:	0f 2e       	mov	r0, r31
    35b0:	f4 e8       	ldi	r31, 0x84	; 132
    35b2:	cf 2e       	mov	r12, r31
    35b4:	f3 e0       	ldi	r31, 0x03	; 3
    35b6:	df 2e       	mov	r13, r31
    35b8:	f0 2d       	mov	r31, r0
    35ba:	cb 5e       	subi	r28, 0xEB	; 235
    35bc:	db 4f       	sbci	r29, 0xFB	; 251
    35be:	d9 82       	std	Y+1, r13	; 0x01
    35c0:	c8 82       	st	Y, r12
    35c2:	c5 51       	subi	r28, 0x15	; 21
    35c4:	d4 40       	sbci	r29, 0x04	; 4
    35c6:	0f 2e       	mov	r0, r31
    35c8:	fe e8       	ldi	r31, 0x8E	; 142
    35ca:	cf 2e       	mov	r12, r31
    35cc:	f3 e0       	ldi	r31, 0x03	; 3
    35ce:	df 2e       	mov	r13, r31
    35d0:	f0 2d       	mov	r31, r0
    35d2:	c9 5e       	subi	r28, 0xE9	; 233
    35d4:	db 4f       	sbci	r29, 0xFB	; 251
    35d6:	d9 82       	std	Y+1, r13	; 0x01
    35d8:	c8 82       	st	Y, r12
    35da:	c7 51       	subi	r28, 0x17	; 23
    35dc:	d4 40       	sbci	r29, 0x04	; 4
    35de:	0f 2e       	mov	r0, r31
    35e0:	f6 e2       	ldi	r31, 0x26	; 38
    35e2:	cf 2e       	mov	r12, r31
    35e4:	fb e0       	ldi	r31, 0x0B	; 11
    35e6:	df 2e       	mov	r13, r31
    35e8:	f0 2d       	mov	r31, r0
    35ea:	c7 5e       	subi	r28, 0xE7	; 231
    35ec:	db 4f       	sbci	r29, 0xFB	; 251
    35ee:	d9 82       	std	Y+1, r13	; 0x01
    35f0:	c8 82       	st	Y, r12
    35f2:	c9 51       	subi	r28, 0x19	; 25
    35f4:	d4 40       	sbci	r29, 0x04	; 4
    35f6:	0f 2e       	mov	r0, r31
    35f8:	fa e8       	ldi	r31, 0x8A	; 138
    35fa:	cf 2e       	mov	r12, r31
    35fc:	f7 e0       	ldi	r31, 0x07	; 7
    35fe:	df 2e       	mov	r13, r31
    3600:	f0 2d       	mov	r31, r0
    3602:	c5 5e       	subi	r28, 0xE5	; 229
    3604:	db 4f       	sbci	r29, 0xFB	; 251
    3606:	d9 82       	std	Y+1, r13	; 0x01
    3608:	c8 82       	st	Y, r12
    360a:	cb 51       	subi	r28, 0x1B	; 27
    360c:	d4 40       	sbci	r29, 0x04	; 4
    360e:	0f 2e       	mov	r0, r31
    3610:	f0 e7       	ldi	r31, 0x70	; 112
    3612:	cf 2e       	mov	r12, r31
    3614:	f6 e0       	ldi	r31, 0x06	; 6
    3616:	df 2e       	mov	r13, r31
    3618:	f0 2d       	mov	r31, r0
    361a:	c3 5e       	subi	r28, 0xE3	; 227
    361c:	db 4f       	sbci	r29, 0xFB	; 251
    361e:	d9 82       	std	Y+1, r13	; 0x01
    3620:	c8 82       	st	Y, r12
    3622:	cd 51       	subi	r28, 0x1D	; 29
    3624:	d4 40       	sbci	r29, 0x04	; 4
    3626:	0f 2e       	mov	r0, r31
    3628:	f2 ed       	ldi	r31, 0xD2	; 210
    362a:	cf 2e       	mov	r12, r31
    362c:	f5 e0       	ldi	r31, 0x05	; 5
    362e:	df 2e       	mov	r13, r31
    3630:	f0 2d       	mov	r31, r0
    3632:	c1 5e       	subi	r28, 0xE1	; 225
    3634:	db 4f       	sbci	r29, 0xFB	; 251
    3636:	d9 82       	std	Y+1, r13	; 0x01
    3638:	c8 82       	st	Y, r12
    363a:	cf 51       	subi	r28, 0x1F	; 31
    363c:	d4 40       	sbci	r29, 0x04	; 4
    363e:	0f 2e       	mov	r0, r31
    3640:	f8 e6       	ldi	r31, 0x68	; 104
    3642:	cf 2e       	mov	r12, r31
    3644:	f5 e0       	ldi	r31, 0x05	; 5
    3646:	df 2e       	mov	r13, r31
    3648:	f0 2d       	mov	r31, r0
    364a:	cf 5d       	subi	r28, 0xDF	; 223
    364c:	db 4f       	sbci	r29, 0xFB	; 251
    364e:	d9 82       	std	Y+1, r13	; 0x01
    3650:	c8 82       	st	Y, r12
    3652:	c1 52       	subi	r28, 0x21	; 33
    3654:	d4 40       	sbci	r29, 0x04	; 4
    3656:	0f 2e       	mov	r0, r31
    3658:	f9 e1       	ldi	r31, 0x19	; 25
    365a:	cf 2e       	mov	r12, r31
    365c:	f5 e0       	ldi	r31, 0x05	; 5
    365e:	df 2e       	mov	r13, r31
    3660:	f0 2d       	mov	r31, r0
    3662:	cd 5d       	subi	r28, 0xDD	; 221
    3664:	db 4f       	sbci	r29, 0xFB	; 251
    3666:	d9 82       	std	Y+1, r13	; 0x01
    3668:	c8 82       	st	Y, r12
    366a:	c3 52       	subi	r28, 0x23	; 35
    366c:	d4 40       	sbci	r29, 0x04	; 4
    366e:	0f 2e       	mov	r0, r31
    3670:	fc ed       	ldi	r31, 0xDC	; 220
    3672:	cf 2e       	mov	r12, r31
    3674:	f4 e0       	ldi	r31, 0x04	; 4
    3676:	df 2e       	mov	r13, r31
    3678:	f0 2d       	mov	r31, r0
    367a:	cb 5d       	subi	r28, 0xDB	; 219
    367c:	db 4f       	sbci	r29, 0xFB	; 251
    367e:	d9 82       	std	Y+1, r13	; 0x01
    3680:	c8 82       	st	Y, r12
    3682:	c5 52       	subi	r28, 0x25	; 37
    3684:	d4 40       	sbci	r29, 0x04	; 4
    3686:	0f 2e       	mov	r0, r31
    3688:	f9 ea       	ldi	r31, 0xA9	; 169
    368a:	cf 2e       	mov	r12, r31
    368c:	f4 e0       	ldi	r31, 0x04	; 4
    368e:	df 2e       	mov	r13, r31
    3690:	f0 2d       	mov	r31, r0
    3692:	c9 5d       	subi	r28, 0xD9	; 217
    3694:	db 4f       	sbci	r29, 0xFB	; 251
    3696:	d9 82       	std	Y+1, r13	; 0x01
    3698:	c8 82       	st	Y, r12
    369a:	c7 52       	subi	r28, 0x27	; 39
    369c:	d4 40       	sbci	r29, 0x04	; 4
    369e:	0f 2e       	mov	r0, r31
    36a0:	ff e7       	ldi	r31, 0x7F	; 127
    36a2:	cf 2e       	mov	r12, r31
    36a4:	f4 e0       	ldi	r31, 0x04	; 4
    36a6:	df 2e       	mov	r13, r31
    36a8:	f0 2d       	mov	r31, r0
    36aa:	c7 5d       	subi	r28, 0xD7	; 215
    36ac:	db 4f       	sbci	r29, 0xFB	; 251
    36ae:	d9 82       	std	Y+1, r13	; 0x01
    36b0:	c8 82       	st	Y, r12
    36b2:	c9 52       	subi	r28, 0x29	; 41
    36b4:	d4 40       	sbci	r29, 0x04	; 4
    36b6:	0f 2e       	mov	r0, r31
    36b8:	fb e5       	ldi	r31, 0x5B	; 91
    36ba:	cf 2e       	mov	r12, r31
    36bc:	f4 e0       	ldi	r31, 0x04	; 4
    36be:	df 2e       	mov	r13, r31
    36c0:	f0 2d       	mov	r31, r0
    36c2:	c5 5d       	subi	r28, 0xD5	; 213
    36c4:	db 4f       	sbci	r29, 0xFB	; 251
    36c6:	d9 82       	std	Y+1, r13	; 0x01
    36c8:	c8 82       	st	Y, r12
    36ca:	cb 52       	subi	r28, 0x2B	; 43
    36cc:	d4 40       	sbci	r29, 0x04	; 4
    36ce:	0f 2e       	mov	r0, r31
    36d0:	fb e3       	ldi	r31, 0x3B	; 59
    36d2:	cf 2e       	mov	r12, r31
    36d4:	f4 e0       	ldi	r31, 0x04	; 4
    36d6:	df 2e       	mov	r13, r31
    36d8:	f0 2d       	mov	r31, r0
    36da:	c3 5d       	subi	r28, 0xD3	; 211
    36dc:	db 4f       	sbci	r29, 0xFB	; 251
    36de:	d9 82       	std	Y+1, r13	; 0x01
    36e0:	c8 82       	st	Y, r12
    36e2:	cd 52       	subi	r28, 0x2D	; 45
    36e4:	d4 40       	sbci	r29, 0x04	; 4
    36e6:	0f 2e       	mov	r0, r31
    36e8:	ff e1       	ldi	r31, 0x1F	; 31
    36ea:	cf 2e       	mov	r12, r31
    36ec:	f4 e0       	ldi	r31, 0x04	; 4
    36ee:	df 2e       	mov	r13, r31
    36f0:	f0 2d       	mov	r31, r0
    36f2:	c1 5d       	subi	r28, 0xD1	; 209
    36f4:	db 4f       	sbci	r29, 0xFB	; 251
    36f6:	d9 82       	std	Y+1, r13	; 0x01
    36f8:	c8 82       	st	Y, r12
    36fa:	cf 52       	subi	r28, 0x2F	; 47
    36fc:	d4 40       	sbci	r29, 0x04	; 4
    36fe:	0f 2e       	mov	r0, r31
    3700:	f6 e0       	ldi	r31, 0x06	; 6
    3702:	cf 2e       	mov	r12, r31
    3704:	f4 e0       	ldi	r31, 0x04	; 4
    3706:	df 2e       	mov	r13, r31
    3708:	f0 2d       	mov	r31, r0
    370a:	cf 5c       	subi	r28, 0xCF	; 207
    370c:	db 4f       	sbci	r29, 0xFB	; 251
    370e:	d9 82       	std	Y+1, r13	; 0x01
    3710:	c8 82       	st	Y, r12
    3712:	c1 53       	subi	r28, 0x31	; 49
    3714:	d4 40       	sbci	r29, 0x04	; 4
    3716:	0f 2e       	mov	r0, r31
    3718:	f0 ef       	ldi	r31, 0xF0	; 240
    371a:	cf 2e       	mov	r12, r31
    371c:	f3 e0       	ldi	r31, 0x03	; 3
    371e:	df 2e       	mov	r13, r31
    3720:	f0 2d       	mov	r31, r0
    3722:	cd 5c       	subi	r28, 0xCD	; 205
    3724:	db 4f       	sbci	r29, 0xFB	; 251
    3726:	d9 82       	std	Y+1, r13	; 0x01
    3728:	c8 82       	st	Y, r12
    372a:	c3 53       	subi	r28, 0x33	; 51
    372c:	d4 40       	sbci	r29, 0x04	; 4
    372e:	0f 2e       	mov	r0, r31
    3730:	f8 ee       	ldi	r31, 0xE8	; 232
    3732:	cf 2e       	mov	r12, r31
    3734:	f3 e0       	ldi	r31, 0x03	; 3
    3736:	df 2e       	mov	r13, r31
    3738:	f0 2d       	mov	r31, r0
    373a:	cb 5c       	subi	r28, 0xCB	; 203
    373c:	db 4f       	sbci	r29, 0xFB	; 251
    373e:	d9 82       	std	Y+1, r13	; 0x01
    3740:	c8 82       	st	Y, r12
    3742:	c5 53       	subi	r28, 0x35	; 53
    3744:	d4 40       	sbci	r29, 0x04	; 4
    3746:	0f 2e       	mov	r0, r31
    3748:	f3 ed       	ldi	r31, 0xD3	; 211
    374a:	cf 2e       	mov	r12, r31
    374c:	f3 e0       	ldi	r31, 0x03	; 3
    374e:	df 2e       	mov	r13, r31
    3750:	f0 2d       	mov	r31, r0
    3752:	c9 5c       	subi	r28, 0xC9	; 201
    3754:	db 4f       	sbci	r29, 0xFB	; 251
    3756:	d9 82       	std	Y+1, r13	; 0x01
    3758:	c8 82       	st	Y, r12
    375a:	c7 53       	subi	r28, 0x37	; 55
    375c:	d4 40       	sbci	r29, 0x04	; 4
    375e:	0f 2e       	mov	r0, r31
    3760:	f0 ec       	ldi	r31, 0xC0	; 192
    3762:	cf 2e       	mov	r12, r31
    3764:	f3 e0       	ldi	r31, 0x03	; 3
    3766:	df 2e       	mov	r13, r31
    3768:	f0 2d       	mov	r31, r0
    376a:	c7 5c       	subi	r28, 0xC7	; 199
    376c:	db 4f       	sbci	r29, 0xFB	; 251
    376e:	d9 82       	std	Y+1, r13	; 0x01
    3770:	c8 82       	st	Y, r12
    3772:	c9 53       	subi	r28, 0x39	; 57
    3774:	d4 40       	sbci	r29, 0x04	; 4
    3776:	0f 2e       	mov	r0, r31
    3778:	ff ea       	ldi	r31, 0xAF	; 175
    377a:	cf 2e       	mov	r12, r31
    377c:	f3 e0       	ldi	r31, 0x03	; 3
    377e:	df 2e       	mov	r13, r31
    3780:	f0 2d       	mov	r31, r0
    3782:	c5 5c       	subi	r28, 0xC5	; 197
    3784:	db 4f       	sbci	r29, 0xFB	; 251
    3786:	d9 82       	std	Y+1, r13	; 0x01
    3788:	c8 82       	st	Y, r12
    378a:	cb 53       	subi	r28, 0x3B	; 59
    378c:	d4 40       	sbci	r29, 0x04	; 4
    378e:	0f 2e       	mov	r0, r31
    3790:	ff e9       	ldi	r31, 0x9F	; 159
    3792:	cf 2e       	mov	r12, r31
    3794:	f3 e0       	ldi	r31, 0x03	; 3
    3796:	df 2e       	mov	r13, r31
    3798:	f0 2d       	mov	r31, r0
    379a:	c3 5c       	subi	r28, 0xC3	; 195
    379c:	db 4f       	sbci	r29, 0xFB	; 251
    379e:	d9 82       	std	Y+1, r13	; 0x01
    37a0:	c8 82       	st	Y, r12
    37a2:	cd 53       	subi	r28, 0x3D	; 61
    37a4:	d4 40       	sbci	r29, 0x04	; 4
    37a6:	0f 2e       	mov	r0, r31
    37a8:	f0 e9       	ldi	r31, 0x90	; 144
    37aa:	cf 2e       	mov	r12, r31
    37ac:	f3 e0       	ldi	r31, 0x03	; 3
    37ae:	df 2e       	mov	r13, r31
    37b0:	f0 2d       	mov	r31, r0
    37b2:	c1 5c       	subi	r28, 0xC1	; 193
    37b4:	db 4f       	sbci	r29, 0xFB	; 251
    37b6:	d9 82       	std	Y+1, r13	; 0x01
    37b8:	c8 82       	st	Y, r12
    37ba:	cf 53       	subi	r28, 0x3F	; 63
    37bc:	d4 40       	sbci	r29, 0x04	; 4
    37be:	0f 2e       	mov	r0, r31
    37c0:	f2 e8       	ldi	r31, 0x82	; 130
    37c2:	cf 2e       	mov	r12, r31
    37c4:	f3 e0       	ldi	r31, 0x03	; 3
    37c6:	df 2e       	mov	r13, r31
    37c8:	f0 2d       	mov	r31, r0
    37ca:	cf 5b       	subi	r28, 0xBF	; 191
    37cc:	db 4f       	sbci	r29, 0xFB	; 251
    37ce:	d9 82       	std	Y+1, r13	; 0x01
    37d0:	c8 82       	st	Y, r12
    37d2:	c1 54       	subi	r28, 0x41	; 65
    37d4:	d4 40       	sbci	r29, 0x04	; 4
    37d6:	0f 2e       	mov	r0, r31
    37d8:	f5 e7       	ldi	r31, 0x75	; 117
    37da:	cf 2e       	mov	r12, r31
    37dc:	f3 e0       	ldi	r31, 0x03	; 3
    37de:	df 2e       	mov	r13, r31
    37e0:	f0 2d       	mov	r31, r0
    37e2:	cd 5b       	subi	r28, 0xBD	; 189
    37e4:	db 4f       	sbci	r29, 0xFB	; 251
    37e6:	d9 82       	std	Y+1, r13	; 0x01
    37e8:	c8 82       	st	Y, r12
    37ea:	c3 54       	subi	r28, 0x43	; 67
    37ec:	d4 40       	sbci	r29, 0x04	; 4
    37ee:	0f 2e       	mov	r0, r31
    37f0:	f8 e6       	ldi	r31, 0x68	; 104
    37f2:	cf 2e       	mov	r12, r31
    37f4:	f3 e0       	ldi	r31, 0x03	; 3
    37f6:	df 2e       	mov	r13, r31
    37f8:	f0 2d       	mov	r31, r0
    37fa:	cb 5b       	subi	r28, 0xBB	; 187
    37fc:	db 4f       	sbci	r29, 0xFB	; 251
    37fe:	d9 82       	std	Y+1, r13	; 0x01
    3800:	c8 82       	st	Y, r12
    3802:	c5 54       	subi	r28, 0x45	; 69
    3804:	d4 40       	sbci	r29, 0x04	; 4
    3806:	0f 2e       	mov	r0, r31
    3808:	fd e5       	ldi	r31, 0x5D	; 93
    380a:	cf 2e       	mov	r12, r31
    380c:	f3 e0       	ldi	r31, 0x03	; 3
    380e:	df 2e       	mov	r13, r31
    3810:	f0 2d       	mov	r31, r0
    3812:	c9 5b       	subi	r28, 0xB9	; 185
    3814:	db 4f       	sbci	r29, 0xFB	; 251
    3816:	d9 82       	std	Y+1, r13	; 0x01
    3818:	c8 82       	st	Y, r12
    381a:	c7 54       	subi	r28, 0x47	; 71
    381c:	d4 40       	sbci	r29, 0x04	; 4
    381e:	c7 5b       	subi	r28, 0xB7	; 183
    3820:	db 4f       	sbci	r29, 0xFB	; 251
    3822:	f9 82       	std	Y+1, r15	; 0x01
    3824:	e8 82       	st	Y, r14
    3826:	c9 54       	subi	r28, 0x49	; 73
    3828:	d4 40       	sbci	r29, 0x04	; 4
    382a:	0f 2e       	mov	r0, r31
    382c:	f7 e4       	ldi	r31, 0x47	; 71
    382e:	ef 2e       	mov	r14, r31
    3830:	f3 e0       	ldi	r31, 0x03	; 3
    3832:	ff 2e       	mov	r15, r31
    3834:	f0 2d       	mov	r31, r0
    3836:	c5 5b       	subi	r28, 0xB5	; 181
    3838:	db 4f       	sbci	r29, 0xFB	; 251
    383a:	f9 82       	std	Y+1, r15	; 0x01
    383c:	e8 82       	st	Y, r14
    383e:	cb 54       	subi	r28, 0x4B	; 75
    3840:	d4 40       	sbci	r29, 0x04	; 4
    3842:	c3 5b       	subi	r28, 0xB3	; 179
    3844:	db 4f       	sbci	r29, 0xFB	; 251
    3846:	19 83       	std	Y+1, r17	; 0x01
    3848:	08 83       	st	Y, r16
    384a:	cd 54       	subi	r28, 0x4D	; 77
    384c:	d4 40       	sbci	r29, 0x04	; 4
    384e:	04 e3       	ldi	r16, 0x34	; 52
    3850:	13 e0       	ldi	r17, 0x03	; 3
    3852:	c1 5b       	subi	r28, 0xB1	; 177
    3854:	db 4f       	sbci	r29, 0xFB	; 251
    3856:	19 83       	std	Y+1, r17	; 0x01
    3858:	08 83       	st	Y, r16
    385a:	cf 54       	subi	r28, 0x4F	; 79
    385c:	d4 40       	sbci	r29, 0x04	; 4
    385e:	0b e2       	ldi	r16, 0x2B	; 43
    3860:	13 e0       	ldi	r17, 0x03	; 3
    3862:	cf 5a       	subi	r28, 0xAF	; 175
    3864:	db 4f       	sbci	r29, 0xFB	; 251
    3866:	19 83       	std	Y+1, r17	; 0x01
    3868:	08 83       	st	Y, r16
    386a:	c1 55       	subi	r28, 0x51	; 81
    386c:	d4 40       	sbci	r29, 0x04	; 4
    386e:	02 e1       	ldi	r16, 0x12	; 18
    3870:	13 e0       	ldi	r17, 0x03	; 3
    3872:	cd 5a       	subi	r28, 0xAD	; 173
    3874:	db 4f       	sbci	r29, 0xFB	; 251
    3876:	19 83       	std	Y+1, r17	; 0x01
    3878:	08 83       	st	Y, r16
    387a:	c3 55       	subi	r28, 0x53	; 83
    387c:	d4 40       	sbci	r29, 0x04	; 4
    387e:	0b e1       	ldi	r16, 0x1B	; 27
    3880:	13 e0       	ldi	r17, 0x03	; 3
    3882:	cb 5a       	subi	r28, 0xAB	; 171
    3884:	db 4f       	sbci	r29, 0xFB	; 251
    3886:	19 83       	std	Y+1, r17	; 0x01
    3888:	08 83       	st	Y, r16
    388a:	c5 55       	subi	r28, 0x55	; 85
    388c:	d4 40       	sbci	r29, 0x04	; 4
    388e:	c9 5a       	subi	r28, 0xA9	; 169
    3890:	db 4f       	sbci	r29, 0xFB	; 251
    3892:	b9 83       	std	Y+1, r27	; 0x01
    3894:	a8 83       	st	Y, r26
    3896:	c7 55       	subi	r28, 0x57	; 87
    3898:	d4 40       	sbci	r29, 0x04	; 4
    389a:	c7 5a       	subi	r28, 0xA7	; 167
    389c:	db 4f       	sbci	r29, 0xFB	; 251
    389e:	f9 83       	std	Y+1, r31	; 0x01
    38a0:	e8 83       	st	Y, r30
    38a2:	c9 55       	subi	r28, 0x59	; 89
    38a4:	d4 40       	sbci	r29, 0x04	; 4
    38a6:	e4 e0       	ldi	r30, 0x04	; 4
    38a8:	f3 e0       	ldi	r31, 0x03	; 3
    38aa:	c5 5a       	subi	r28, 0xA5	; 165
    38ac:	db 4f       	sbci	r29, 0xFB	; 251
    38ae:	f9 83       	std	Y+1, r31	; 0x01
    38b0:	e8 83       	st	Y, r30
    38b2:	cb 55       	subi	r28, 0x5B	; 91
    38b4:	d4 40       	sbci	r29, 0x04	; 4
    38b6:	ed ef       	ldi	r30, 0xFD	; 253
    38b8:	f2 e0       	ldi	r31, 0x02	; 2
    38ba:	c3 5a       	subi	r28, 0xA3	; 163
    38bc:	db 4f       	sbci	r29, 0xFB	; 251
    38be:	f9 83       	std	Y+1, r31	; 0x01
    38c0:	e8 83       	st	Y, r30
    38c2:	cd 55       	subi	r28, 0x5D	; 93
    38c4:	d4 40       	sbci	r29, 0x04	; 4
    38c6:	e6 ef       	ldi	r30, 0xF6	; 246
    38c8:	f2 e0       	ldi	r31, 0x02	; 2
    38ca:	c1 5a       	subi	r28, 0xA1	; 161
    38cc:	db 4f       	sbci	r29, 0xFB	; 251
    38ce:	f9 83       	std	Y+1, r31	; 0x01
    38d0:	e8 83       	st	Y, r30
    38d2:	cf 55       	subi	r28, 0x5F	; 95
    38d4:	d4 40       	sbci	r29, 0x04	; 4
    38d6:	cf 59       	subi	r28, 0x9F	; 159
    38d8:	db 4f       	sbci	r29, 0xFB	; 251
    38da:	79 83       	std	Y+1, r23	; 0x01
    38dc:	68 83       	st	Y, r22
    38de:	c1 56       	subi	r28, 0x61	; 97
    38e0:	d4 40       	sbci	r29, 0x04	; 4
    38e2:	cd 59       	subi	r28, 0x9D	; 157
    38e4:	db 4f       	sbci	r29, 0xFB	; 251
    38e6:	59 83       	std	Y+1, r21	; 0x01
    38e8:	48 83       	st	Y, r20
    38ea:	c3 56       	subi	r28, 0x63	; 99
    38ec:	d4 40       	sbci	r29, 0x04	; 4
    38ee:	43 ee       	ldi	r20, 0xE3	; 227
    38f0:	52 e0       	ldi	r21, 0x02	; 2
    38f2:	cb 59       	subi	r28, 0x9B	; 155
    38f4:	db 4f       	sbci	r29, 0xFB	; 251
    38f6:	59 83       	std	Y+1, r21	; 0x01
    38f8:	48 83       	st	Y, r20
    38fa:	c5 56       	subi	r28, 0x65	; 101
    38fc:	d4 40       	sbci	r29, 0x04	; 4
    38fe:	4d ed       	ldi	r20, 0xDD	; 221
    3900:	52 e0       	ldi	r21, 0x02	; 2
    3902:	c9 59       	subi	r28, 0x99	; 153
    3904:	db 4f       	sbci	r29, 0xFB	; 251
    3906:	59 83       	std	Y+1, r21	; 0x01
    3908:	48 83       	st	Y, r20
    390a:	c7 56       	subi	r28, 0x67	; 103
    390c:	d4 40       	sbci	r29, 0x04	; 4
    390e:	47 ed       	ldi	r20, 0xD7	; 215
    3910:	52 e0       	ldi	r21, 0x02	; 2
    3912:	c7 59       	subi	r28, 0x97	; 151
    3914:	db 4f       	sbci	r29, 0xFB	; 251
    3916:	59 83       	std	Y+1, r21	; 0x01
    3918:	48 83       	st	Y, r20
    391a:	c9 56       	subi	r28, 0x69	; 105
    391c:	d4 40       	sbci	r29, 0x04	; 4
    391e:	41 ed       	ldi	r20, 0xD1	; 209
    3920:	52 e0       	ldi	r21, 0x02	; 2
    3922:	c5 59       	subi	r28, 0x95	; 149
    3924:	db 4f       	sbci	r29, 0xFB	; 251
    3926:	59 83       	std	Y+1, r21	; 0x01
    3928:	48 83       	st	Y, r20
    392a:	cb 56       	subi	r28, 0x6B	; 107
    392c:	d4 40       	sbci	r29, 0x04	; 4
    392e:	4c ec       	ldi	r20, 0xCC	; 204
    3930:	52 e0       	ldi	r21, 0x02	; 2
    3932:	c3 59       	subi	r28, 0x93	; 147
    3934:	db 4f       	sbci	r29, 0xFB	; 251
    3936:	59 83       	std	Y+1, r21	; 0x01
    3938:	48 83       	st	Y, r20
    393a:	cd 56       	subi	r28, 0x6D	; 109
    393c:	d4 40       	sbci	r29, 0x04	; 4
    393e:	47 ec       	ldi	r20, 0xC7	; 199
    3940:	52 e0       	ldi	r21, 0x02	; 2
    3942:	c1 59       	subi	r28, 0x91	; 145
    3944:	db 4f       	sbci	r29, 0xFB	; 251
    3946:	59 83       	std	Y+1, r21	; 0x01
    3948:	48 83       	st	Y, r20
    394a:	cf 56       	subi	r28, 0x6F	; 111
    394c:	d4 40       	sbci	r29, 0x04	; 4
    394e:	42 ec       	ldi	r20, 0xC2	; 194
    3950:	52 e0       	ldi	r21, 0x02	; 2
    3952:	cf 58       	subi	r28, 0x8F	; 143
    3954:	db 4f       	sbci	r29, 0xFB	; 251
    3956:	59 83       	std	Y+1, r21	; 0x01
    3958:	48 83       	st	Y, r20
    395a:	c1 57       	subi	r28, 0x71	; 113
    395c:	d4 40       	sbci	r29, 0x04	; 4
    395e:	4d eb       	ldi	r20, 0xBD	; 189
    3960:	52 e0       	ldi	r21, 0x02	; 2
    3962:	cd 58       	subi	r28, 0x8D	; 141
    3964:	db 4f       	sbci	r29, 0xFB	; 251
    3966:	59 83       	std	Y+1, r21	; 0x01
    3968:	48 83       	st	Y, r20
    396a:	c3 57       	subi	r28, 0x73	; 115
    396c:	d4 40       	sbci	r29, 0x04	; 4
    396e:	cb 58       	subi	r28, 0x8B	; 139
    3970:	db 4f       	sbci	r29, 0xFB	; 251
    3972:	39 83       	std	Y+1, r19	; 0x01
    3974:	28 83       	st	Y, r18
    3976:	c5 57       	subi	r28, 0x75	; 117
    3978:	d4 40       	sbci	r29, 0x04	; 4
    397a:	23 eb       	ldi	r18, 0xB3	; 179
    397c:	32 e0       	ldi	r19, 0x02	; 2
    397e:	c9 58       	subi	r28, 0x89	; 137
    3980:	db 4f       	sbci	r29, 0xFB	; 251
    3982:	39 83       	std	Y+1, r19	; 0x01
    3984:	28 83       	st	Y, r18
    3986:	c7 57       	subi	r28, 0x77	; 119
    3988:	d4 40       	sbci	r29, 0x04	; 4
    398a:	2e ea       	ldi	r18, 0xAE	; 174
    398c:	32 e0       	ldi	r19, 0x02	; 2
    398e:	c7 58       	subi	r28, 0x87	; 135
    3990:	db 4f       	sbci	r29, 0xFB	; 251
    3992:	39 83       	std	Y+1, r19	; 0x01
    3994:	28 83       	st	Y, r18
    3996:	c9 57       	subi	r28, 0x79	; 121
    3998:	d4 40       	sbci	r29, 0x04	; 4
    399a:	c5 58       	subi	r28, 0x85	; 133
    399c:	db 4f       	sbci	r29, 0xFB	; 251
    399e:	99 83       	std	Y+1, r25	; 0x01
    39a0:	88 83       	st	Y, r24
    39a2:	cb 57       	subi	r28, 0x7B	; 123
    39a4:	d4 40       	sbci	r29, 0x04	; 4
    39a6:	86 ea       	ldi	r24, 0xA6	; 166
    39a8:	92 e0       	ldi	r25, 0x02	; 2
    39aa:	c3 58       	subi	r28, 0x83	; 131
    39ac:	db 4f       	sbci	r29, 0xFB	; 251
    39ae:	99 83       	std	Y+1, r25	; 0x01
    39b0:	88 83       	st	Y, r24
    39b2:	cd 57       	subi	r28, 0x7D	; 125
    39b4:	d4 40       	sbci	r29, 0x04	; 4
    39b6:	81 ea       	ldi	r24, 0xA1	; 161
    39b8:	92 e0       	ldi	r25, 0x02	; 2
    39ba:	c1 58       	subi	r28, 0x81	; 129
    39bc:	db 4f       	sbci	r29, 0xFB	; 251
    39be:	99 83       	std	Y+1, r25	; 0x01
    39c0:	88 83       	st	Y, r24
    39c2:	cf 57       	subi	r28, 0x7F	; 127
    39c4:	d4 40       	sbci	r29, 0x04	; 4
    39c6:	8d e9       	ldi	r24, 0x9D	; 157
    39c8:	92 e0       	ldi	r25, 0x02	; 2
    39ca:	cf 57       	subi	r28, 0x7F	; 127
    39cc:	db 4f       	sbci	r29, 0xFB	; 251
    39ce:	99 83       	std	Y+1, r25	; 0x01
    39d0:	88 83       	st	Y, r24
    39d2:	c1 58       	subi	r28, 0x81	; 129
    39d4:	d4 40       	sbci	r29, 0x04	; 4
    39d6:	89 e9       	ldi	r24, 0x99	; 153
    39d8:	92 e0       	ldi	r25, 0x02	; 2
    39da:	cd 57       	subi	r28, 0x7D	; 125
    39dc:	db 4f       	sbci	r29, 0xFB	; 251
    39de:	99 83       	std	Y+1, r25	; 0x01
    39e0:	88 83       	st	Y, r24
    39e2:	c3 58       	subi	r28, 0x83	; 131
    39e4:	d4 40       	sbci	r29, 0x04	; 4
    39e6:	cb 57       	subi	r28, 0x7B	; 123
    39e8:	db 4f       	sbci	r29, 0xFB	; 251
    39ea:	b9 82       	std	Y+1, r11	; 0x01
    39ec:	a8 82       	st	Y, r10
    39ee:	c5 58       	subi	r28, 0x85	; 133
    39f0:	d4 40       	sbci	r29, 0x04	; 4
    39f2:	81 e9       	ldi	r24, 0x91	; 145
    39f4:	92 e0       	ldi	r25, 0x02	; 2
    39f6:	c9 57       	subi	r28, 0x79	; 121
    39f8:	db 4f       	sbci	r29, 0xFB	; 251
    39fa:	99 83       	std	Y+1, r25	; 0x01
    39fc:	88 83       	st	Y, r24
    39fe:	c7 58       	subi	r28, 0x87	; 135
    3a00:	d4 40       	sbci	r29, 0x04	; 4
    3a02:	8d e8       	ldi	r24, 0x8D	; 141
    3a04:	92 e0       	ldi	r25, 0x02	; 2
    3a06:	c7 57       	subi	r28, 0x77	; 119
    3a08:	db 4f       	sbci	r29, 0xFB	; 251
    3a0a:	99 83       	std	Y+1, r25	; 0x01
    3a0c:	88 83       	st	Y, r24
    3a0e:	c9 58       	subi	r28, 0x89	; 137
    3a10:	d4 40       	sbci	r29, 0x04	; 4
    3a12:	8a e8       	ldi	r24, 0x8A	; 138
    3a14:	92 e0       	ldi	r25, 0x02	; 2
    3a16:	c5 57       	subi	r28, 0x75	; 117
    3a18:	db 4f       	sbci	r29, 0xFB	; 251
    3a1a:	99 83       	std	Y+1, r25	; 0x01
    3a1c:	88 83       	st	Y, r24
    3a1e:	cb 58       	subi	r28, 0x8B	; 139
    3a20:	d4 40       	sbci	r29, 0x04	; 4
    3a22:	86 e8       	ldi	r24, 0x86	; 134
    3a24:	92 e0       	ldi	r25, 0x02	; 2
    3a26:	c3 57       	subi	r28, 0x73	; 115
    3a28:	db 4f       	sbci	r29, 0xFB	; 251
    3a2a:	99 83       	std	Y+1, r25	; 0x01
    3a2c:	88 83       	st	Y, r24
    3a2e:	cd 58       	subi	r28, 0x8D	; 141
    3a30:	d4 40       	sbci	r29, 0x04	; 4
    3a32:	83 e8       	ldi	r24, 0x83	; 131
    3a34:	92 e0       	ldi	r25, 0x02	; 2
    3a36:	c1 57       	subi	r28, 0x71	; 113
    3a38:	db 4f       	sbci	r29, 0xFB	; 251
    3a3a:	99 83       	std	Y+1, r25	; 0x01
    3a3c:	88 83       	st	Y, r24
    3a3e:	cf 58       	subi	r28, 0x8F	; 143
    3a40:	d4 40       	sbci	r29, 0x04	; 4
    3a42:	8f e7       	ldi	r24, 0x7F	; 127
    3a44:	92 e0       	ldi	r25, 0x02	; 2
    3a46:	cf 56       	subi	r28, 0x6F	; 111
    3a48:	db 4f       	sbci	r29, 0xFB	; 251
    3a4a:	99 83       	std	Y+1, r25	; 0x01
    3a4c:	88 83       	st	Y, r24
    3a4e:	c1 59       	subi	r28, 0x91	; 145
    3a50:	d4 40       	sbci	r29, 0x04	; 4
    3a52:	8c e7       	ldi	r24, 0x7C	; 124
    3a54:	92 e0       	ldi	r25, 0x02	; 2
    3a56:	cd 56       	subi	r28, 0x6D	; 109
    3a58:	db 4f       	sbci	r29, 0xFB	; 251
    3a5a:	99 83       	std	Y+1, r25	; 0x01
    3a5c:	88 83       	st	Y, r24
    3a5e:	c3 59       	subi	r28, 0x93	; 147
    3a60:	d4 40       	sbci	r29, 0x04	; 4
    3a62:	cb 56       	subi	r28, 0x6B	; 107
    3a64:	db 4f       	sbci	r29, 0xFB	; 251
    3a66:	99 82       	std	Y+1, r9	; 0x01
    3a68:	88 82       	st	Y, r8
    3a6a:	c5 59       	subi	r28, 0x95	; 149
    3a6c:	d4 40       	sbci	r29, 0x04	; 4
    3a6e:	85 e7       	ldi	r24, 0x75	; 117
    3a70:	92 e0       	ldi	r25, 0x02	; 2
    3a72:	c9 56       	subi	r28, 0x69	; 105
    3a74:	db 4f       	sbci	r29, 0xFB	; 251
    3a76:	99 83       	std	Y+1, r25	; 0x01
    3a78:	88 83       	st	Y, r24
    3a7a:	c7 59       	subi	r28, 0x97	; 151
    3a7c:	d4 40       	sbci	r29, 0x04	; 4
    3a7e:	c7 56       	subi	r28, 0x67	; 103
    3a80:	db 4f       	sbci	r29, 0xFB	; 251
    3a82:	79 82       	std	Y+1, r7	; 0x01
    3a84:	68 82       	st	Y, r6
    3a86:	c9 59       	subi	r28, 0x99	; 153
    3a88:	d4 40       	sbci	r29, 0x04	; 4
    3a8a:	8f e6       	ldi	r24, 0x6F	; 111
    3a8c:	92 e0       	ldi	r25, 0x02	; 2
    3a8e:	c5 56       	subi	r28, 0x65	; 101
    3a90:	db 4f       	sbci	r29, 0xFB	; 251
    3a92:	99 83       	std	Y+1, r25	; 0x01
    3a94:	88 83       	st	Y, r24
    3a96:	cb 59       	subi	r28, 0x9B	; 155
    3a98:	d4 40       	sbci	r29, 0x04	; 4
    3a9a:	8c e6       	ldi	r24, 0x6C	; 108
    3a9c:	92 e0       	ldi	r25, 0x02	; 2
    3a9e:	c3 56       	subi	r28, 0x63	; 99
    3aa0:	db 4f       	sbci	r29, 0xFB	; 251
    3aa2:	99 83       	std	Y+1, r25	; 0x01
    3aa4:	88 83       	st	Y, r24
    3aa6:	cd 59       	subi	r28, 0x9D	; 157
    3aa8:	d4 40       	sbci	r29, 0x04	; 4
    3aaa:	89 e6       	ldi	r24, 0x69	; 105
    3aac:	92 e0       	ldi	r25, 0x02	; 2
    3aae:	c1 56       	subi	r28, 0x61	; 97
    3ab0:	db 4f       	sbci	r29, 0xFB	; 251
    3ab2:	99 83       	std	Y+1, r25	; 0x01
    3ab4:	88 83       	st	Y, r24
    3ab6:	cf 59       	subi	r28, 0x9F	; 159
    3ab8:	d4 40       	sbci	r29, 0x04	; 4
    3aba:	86 e6       	ldi	r24, 0x66	; 102
    3abc:	92 e0       	ldi	r25, 0x02	; 2
    3abe:	cf 55       	subi	r28, 0x5F	; 95
    3ac0:	db 4f       	sbci	r29, 0xFB	; 251
    3ac2:	99 83       	std	Y+1, r25	; 0x01
    3ac4:	88 83       	st	Y, r24
    3ac6:	c1 5a       	subi	r28, 0xA1	; 161
    3ac8:	d4 40       	sbci	r29, 0x04	; 4
    3aca:	83 e6       	ldi	r24, 0x63	; 99
    3acc:	92 e0       	ldi	r25, 0x02	; 2
    3ace:	cd 55       	subi	r28, 0x5D	; 93
    3ad0:	db 4f       	sbci	r29, 0xFB	; 251
    3ad2:	99 83       	std	Y+1, r25	; 0x01
    3ad4:	88 83       	st	Y, r24
    3ad6:	c3 5a       	subi	r28, 0xA3	; 163
    3ad8:	d4 40       	sbci	r29, 0x04	; 4
    3ada:	80 e6       	ldi	r24, 0x60	; 96
    3adc:	92 e0       	ldi	r25, 0x02	; 2
    3ade:	cb 55       	subi	r28, 0x5B	; 91
    3ae0:	db 4f       	sbci	r29, 0xFB	; 251
    3ae2:	99 83       	std	Y+1, r25	; 0x01
    3ae4:	88 83       	st	Y, r24
    3ae6:	c5 5a       	subi	r28, 0xA5	; 165
    3ae8:	d4 40       	sbci	r29, 0x04	; 4
    3aea:	8e e5       	ldi	r24, 0x5E	; 94
    3aec:	92 e0       	ldi	r25, 0x02	; 2
    3aee:	c9 55       	subi	r28, 0x59	; 89
    3af0:	db 4f       	sbci	r29, 0xFB	; 251
    3af2:	99 83       	std	Y+1, r25	; 0x01
    3af4:	88 83       	st	Y, r24
    3af6:	c7 5a       	subi	r28, 0xA7	; 167
    3af8:	d4 40       	sbci	r29, 0x04	; 4
    3afa:	8b e5       	ldi	r24, 0x5B	; 91
    3afc:	92 e0       	ldi	r25, 0x02	; 2
    3afe:	c7 55       	subi	r28, 0x57	; 87
    3b00:	db 4f       	sbci	r29, 0xFB	; 251
    3b02:	99 83       	std	Y+1, r25	; 0x01
    3b04:	88 83       	st	Y, r24
    3b06:	c9 5a       	subi	r28, 0xA9	; 169
    3b08:	d4 40       	sbci	r29, 0x04	; 4
    3b0a:	88 e5       	ldi	r24, 0x58	; 88
    3b0c:	92 e0       	ldi	r25, 0x02	; 2
    3b0e:	c5 55       	subi	r28, 0x55	; 85
    3b10:	db 4f       	sbci	r29, 0xFB	; 251
    3b12:	99 83       	std	Y+1, r25	; 0x01
    3b14:	88 83       	st	Y, r24
    3b16:	cb 5a       	subi	r28, 0xAB	; 171
    3b18:	d4 40       	sbci	r29, 0x04	; 4
    3b1a:	85 e5       	ldi	r24, 0x55	; 85
    3b1c:	92 e0       	ldi	r25, 0x02	; 2
    3b1e:	c3 55       	subi	r28, 0x53	; 83
    3b20:	db 4f       	sbci	r29, 0xFB	; 251
    3b22:	99 83       	std	Y+1, r25	; 0x01
    3b24:	88 83       	st	Y, r24
    3b26:	cd 5a       	subi	r28, 0xAD	; 173
    3b28:	d4 40       	sbci	r29, 0x04	; 4
    3b2a:	83 e5       	ldi	r24, 0x53	; 83
    3b2c:	92 e0       	ldi	r25, 0x02	; 2
    3b2e:	c1 55       	subi	r28, 0x51	; 81
    3b30:	db 4f       	sbci	r29, 0xFB	; 251
    3b32:	99 83       	std	Y+1, r25	; 0x01
    3b34:	88 83       	st	Y, r24
    3b36:	cf 5a       	subi	r28, 0xAF	; 175
    3b38:	d4 40       	sbci	r29, 0x04	; 4
    3b3a:	80 e5       	ldi	r24, 0x50	; 80
    3b3c:	92 e0       	ldi	r25, 0x02	; 2
    3b3e:	cf 54       	subi	r28, 0x4F	; 79
    3b40:	db 4f       	sbci	r29, 0xFB	; 251
    3b42:	99 83       	std	Y+1, r25	; 0x01
    3b44:	88 83       	st	Y, r24
    3b46:	c1 5b       	subi	r28, 0xB1	; 177
    3b48:	d4 40       	sbci	r29, 0x04	; 4
    3b4a:	8e e4       	ldi	r24, 0x4E	; 78
    3b4c:	92 e0       	ldi	r25, 0x02	; 2
    3b4e:	cd 54       	subi	r28, 0x4D	; 77
    3b50:	db 4f       	sbci	r29, 0xFB	; 251
    3b52:	99 83       	std	Y+1, r25	; 0x01
    3b54:	88 83       	st	Y, r24
    3b56:	c3 5b       	subi	r28, 0xB3	; 179
    3b58:	d4 40       	sbci	r29, 0x04	; 4
    3b5a:	8b e4       	ldi	r24, 0x4B	; 75
    3b5c:	92 e0       	ldi	r25, 0x02	; 2
    3b5e:	cb 54       	subi	r28, 0x4B	; 75
    3b60:	db 4f       	sbci	r29, 0xFB	; 251
    3b62:	99 83       	std	Y+1, r25	; 0x01
    3b64:	88 83       	st	Y, r24
    3b66:	c5 5b       	subi	r28, 0xB5	; 181
    3b68:	d4 40       	sbci	r29, 0x04	; 4
    3b6a:	89 e4       	ldi	r24, 0x49	; 73
    3b6c:	92 e0       	ldi	r25, 0x02	; 2
    3b6e:	c9 54       	subi	r28, 0x49	; 73
    3b70:	db 4f       	sbci	r29, 0xFB	; 251
    3b72:	99 83       	std	Y+1, r25	; 0x01
    3b74:	88 83       	st	Y, r24
    3b76:	c7 5b       	subi	r28, 0xB7	; 183
    3b78:	d4 40       	sbci	r29, 0x04	; 4
    3b7a:	87 e4       	ldi	r24, 0x47	; 71
    3b7c:	92 e0       	ldi	r25, 0x02	; 2
    3b7e:	c7 54       	subi	r28, 0x47	; 71
    3b80:	db 4f       	sbci	r29, 0xFB	; 251
    3b82:	99 83       	std	Y+1, r25	; 0x01
    3b84:	88 83       	st	Y, r24
    3b86:	c9 5b       	subi	r28, 0xB9	; 185
    3b88:	d4 40       	sbci	r29, 0x04	; 4
    3b8a:	84 e4       	ldi	r24, 0x44	; 68
    3b8c:	92 e0       	ldi	r25, 0x02	; 2
    3b8e:	c5 54       	subi	r28, 0x45	; 69
    3b90:	db 4f       	sbci	r29, 0xFB	; 251
    3b92:	99 83       	std	Y+1, r25	; 0x01
    3b94:	88 83       	st	Y, r24
    3b96:	cb 5b       	subi	r28, 0xBB	; 187
    3b98:	d4 40       	sbci	r29, 0x04	; 4
    3b9a:	82 e4       	ldi	r24, 0x42	; 66
    3b9c:	92 e0       	ldi	r25, 0x02	; 2
    3b9e:	c3 54       	subi	r28, 0x43	; 67
    3ba0:	db 4f       	sbci	r29, 0xFB	; 251
    3ba2:	99 83       	std	Y+1, r25	; 0x01
    3ba4:	88 83       	st	Y, r24
    3ba6:	cd 5b       	subi	r28, 0xBD	; 189
    3ba8:	d4 40       	sbci	r29, 0x04	; 4
    3baa:	80 e4       	ldi	r24, 0x40	; 64
    3bac:	92 e0       	ldi	r25, 0x02	; 2
    3bae:	c1 54       	subi	r28, 0x41	; 65
    3bb0:	db 4f       	sbci	r29, 0xFB	; 251
    3bb2:	99 83       	std	Y+1, r25	; 0x01
    3bb4:	88 83       	st	Y, r24
    3bb6:	cf 5b       	subi	r28, 0xBF	; 191
    3bb8:	d4 40       	sbci	r29, 0x04	; 4
    3bba:	8d e3       	ldi	r24, 0x3D	; 61
    3bbc:	92 e0       	ldi	r25, 0x02	; 2
    3bbe:	cf 53       	subi	r28, 0x3F	; 63
    3bc0:	db 4f       	sbci	r29, 0xFB	; 251
    3bc2:	99 83       	std	Y+1, r25	; 0x01
    3bc4:	88 83       	st	Y, r24
    3bc6:	c1 5c       	subi	r28, 0xC1	; 193
    3bc8:	d4 40       	sbci	r29, 0x04	; 4
    3bca:	8b e3       	ldi	r24, 0x3B	; 59
    3bcc:	92 e0       	ldi	r25, 0x02	; 2
    3bce:	cd 53       	subi	r28, 0x3D	; 61
    3bd0:	db 4f       	sbci	r29, 0xFB	; 251
    3bd2:	99 83       	std	Y+1, r25	; 0x01
    3bd4:	88 83       	st	Y, r24
    3bd6:	c3 5c       	subi	r28, 0xC3	; 195
    3bd8:	d4 40       	sbci	r29, 0x04	; 4
    3bda:	89 e3       	ldi	r24, 0x39	; 57
    3bdc:	92 e0       	ldi	r25, 0x02	; 2
    3bde:	cb 53       	subi	r28, 0x3B	; 59
    3be0:	db 4f       	sbci	r29, 0xFB	; 251
    3be2:	99 83       	std	Y+1, r25	; 0x01
    3be4:	88 83       	st	Y, r24
    3be6:	c5 5c       	subi	r28, 0xC5	; 197
    3be8:	d4 40       	sbci	r29, 0x04	; 4
    3bea:	87 e3       	ldi	r24, 0x37	; 55
    3bec:	92 e0       	ldi	r25, 0x02	; 2
    3bee:	c9 53       	subi	r28, 0x39	; 57
    3bf0:	db 4f       	sbci	r29, 0xFB	; 251
    3bf2:	99 83       	std	Y+1, r25	; 0x01
    3bf4:	88 83       	st	Y, r24
    3bf6:	c7 5c       	subi	r28, 0xC7	; 199
    3bf8:	d4 40       	sbci	r29, 0x04	; 4
    3bfa:	85 e3       	ldi	r24, 0x35	; 53
    3bfc:	92 e0       	ldi	r25, 0x02	; 2
    3bfe:	c7 53       	subi	r28, 0x37	; 55
    3c00:	db 4f       	sbci	r29, 0xFB	; 251
    3c02:	99 83       	std	Y+1, r25	; 0x01
    3c04:	88 83       	st	Y, r24
    3c06:	c9 5c       	subi	r28, 0xC9	; 201
    3c08:	d4 40       	sbci	r29, 0x04	; 4
    3c0a:	c5 53       	subi	r28, 0x35	; 53
    3c0c:	db 4f       	sbci	r29, 0xFB	; 251
    3c0e:	59 82       	std	Y+1, r5	; 0x01
    3c10:	48 82       	st	Y, r4
    3c12:	cb 5c       	subi	r28, 0xCB	; 203
    3c14:	d4 40       	sbci	r29, 0x04	; 4
    3c16:	81 e3       	ldi	r24, 0x31	; 49
    3c18:	92 e0       	ldi	r25, 0x02	; 2
    3c1a:	c3 53       	subi	r28, 0x33	; 51
    3c1c:	db 4f       	sbci	r29, 0xFB	; 251
    3c1e:	99 83       	std	Y+1, r25	; 0x01
    3c20:	88 83       	st	Y, r24
    3c22:	cd 5c       	subi	r28, 0xCD	; 205
    3c24:	d4 40       	sbci	r29, 0x04	; 4
    3c26:	8f e2       	ldi	r24, 0x2F	; 47
    3c28:	92 e0       	ldi	r25, 0x02	; 2
    3c2a:	c1 53       	subi	r28, 0x31	; 49
    3c2c:	db 4f       	sbci	r29, 0xFB	; 251
    3c2e:	99 83       	std	Y+1, r25	; 0x01
    3c30:	88 83       	st	Y, r24
    3c32:	cf 5c       	subi	r28, 0xCF	; 207
    3c34:	d4 40       	sbci	r29, 0x04	; 4
    3c36:	8d e2       	ldi	r24, 0x2D	; 45
    3c38:	92 e0       	ldi	r25, 0x02	; 2
    3c3a:	cf 52       	subi	r28, 0x2F	; 47
    3c3c:	db 4f       	sbci	r29, 0xFB	; 251
    3c3e:	99 83       	std	Y+1, r25	; 0x01
    3c40:	88 83       	st	Y, r24
    3c42:	c1 5d       	subi	r28, 0xD1	; 209
    3c44:	d4 40       	sbci	r29, 0x04	; 4
    3c46:	8b e2       	ldi	r24, 0x2B	; 43
    3c48:	92 e0       	ldi	r25, 0x02	; 2
    3c4a:	cd 52       	subi	r28, 0x2D	; 45
    3c4c:	db 4f       	sbci	r29, 0xFB	; 251
    3c4e:	99 83       	std	Y+1, r25	; 0x01
    3c50:	88 83       	st	Y, r24
    3c52:	c3 5d       	subi	r28, 0xD3	; 211
    3c54:	d4 40       	sbci	r29, 0x04	; 4
    3c56:	89 e2       	ldi	r24, 0x29	; 41
    3c58:	92 e0       	ldi	r25, 0x02	; 2
    3c5a:	cb 52       	subi	r28, 0x2B	; 43
    3c5c:	db 4f       	sbci	r29, 0xFB	; 251
    3c5e:	99 83       	std	Y+1, r25	; 0x01
    3c60:	88 83       	st	Y, r24
    3c62:	c5 5d       	subi	r28, 0xD5	; 213
    3c64:	d4 40       	sbci	r29, 0x04	; 4
    3c66:	87 e2       	ldi	r24, 0x27	; 39
    3c68:	92 e0       	ldi	r25, 0x02	; 2
    3c6a:	c9 52       	subi	r28, 0x29	; 41
    3c6c:	db 4f       	sbci	r29, 0xFB	; 251
    3c6e:	99 83       	std	Y+1, r25	; 0x01
    3c70:	88 83       	st	Y, r24
    3c72:	c7 5d       	subi	r28, 0xD7	; 215
    3c74:	d4 40       	sbci	r29, 0x04	; 4
    3c76:	c7 52       	subi	r28, 0x27	; 39
    3c78:	db 4f       	sbci	r29, 0xFB	; 251
    3c7a:	39 82       	std	Y+1, r3	; 0x01
    3c7c:	28 82       	st	Y, r2
    3c7e:	c9 5d       	subi	r28, 0xD9	; 217
    3c80:	d4 40       	sbci	r29, 0x04	; 4
    3c82:	83 e2       	ldi	r24, 0x23	; 35
    3c84:	92 e0       	ldi	r25, 0x02	; 2
    3c86:	c5 52       	subi	r28, 0x25	; 37
    3c88:	db 4f       	sbci	r29, 0xFB	; 251
    3c8a:	99 83       	std	Y+1, r25	; 0x01
    3c8c:	88 83       	st	Y, r24
    3c8e:	cb 5d       	subi	r28, 0xDB	; 219
    3c90:	d4 40       	sbci	r29, 0x04	; 4
    3c92:	81 e2       	ldi	r24, 0x21	; 33
    3c94:	92 e0       	ldi	r25, 0x02	; 2
    3c96:	c3 52       	subi	r28, 0x23	; 35
    3c98:	db 4f       	sbci	r29, 0xFB	; 251
    3c9a:	99 83       	std	Y+1, r25	; 0x01
    3c9c:	88 83       	st	Y, r24
    3c9e:	cd 5d       	subi	r28, 0xDD	; 221
    3ca0:	d4 40       	sbci	r29, 0x04	; 4
    3ca2:	80 e2       	ldi	r24, 0x20	; 32
    3ca4:	92 e0       	ldi	r25, 0x02	; 2
    3ca6:	c1 52       	subi	r28, 0x21	; 33
    3ca8:	db 4f       	sbci	r29, 0xFB	; 251
    3caa:	99 83       	std	Y+1, r25	; 0x01
    3cac:	88 83       	st	Y, r24
    3cae:	cf 5d       	subi	r28, 0xDF	; 223
    3cb0:	d4 40       	sbci	r29, 0x04	; 4
    3cb2:	ae e1       	ldi	r26, 0x1E	; 30
    3cb4:	b2 e0       	ldi	r27, 0x02	; 2
    3cb6:	cf 51       	subi	r28, 0x1F	; 31
    3cb8:	db 4f       	sbci	r29, 0xFB	; 251
    3cba:	b9 83       	std	Y+1, r27	; 0x01
    3cbc:	a8 83       	st	Y, r26
    3cbe:	c1 5e       	subi	r28, 0xE1	; 225
    3cc0:	d4 40       	sbci	r29, 0x04	; 4
    3cc2:	8c e1       	ldi	r24, 0x1C	; 28
    3cc4:	92 e0       	ldi	r25, 0x02	; 2
    3cc6:	cd 51       	subi	r28, 0x1D	; 29
    3cc8:	db 4f       	sbci	r29, 0xFB	; 251
    3cca:	99 83       	std	Y+1, r25	; 0x01
    3ccc:	88 83       	st	Y, r24
    3cce:	c3 5e       	subi	r28, 0xE3	; 227
    3cd0:	d4 40       	sbci	r29, 0x04	; 4
    3cd2:	8a e1       	ldi	r24, 0x1A	; 26
    3cd4:	92 e0       	ldi	r25, 0x02	; 2
    3cd6:	cb 51       	subi	r28, 0x1B	; 27
    3cd8:	db 4f       	sbci	r29, 0xFB	; 251
    3cda:	99 83       	std	Y+1, r25	; 0x01
    3cdc:	88 83       	st	Y, r24
    3cde:	c5 5e       	subi	r28, 0xE5	; 229
    3ce0:	d4 40       	sbci	r29, 0x04	; 4
    3ce2:	89 e1       	ldi	r24, 0x19	; 25
    3ce4:	92 e0       	ldi	r25, 0x02	; 2
    3ce6:	c9 51       	subi	r28, 0x19	; 25
    3ce8:	db 4f       	sbci	r29, 0xFB	; 251
    3cea:	99 83       	std	Y+1, r25	; 0x01
    3cec:	88 83       	st	Y, r24
    3cee:	c7 5e       	subi	r28, 0xE7	; 231
    3cf0:	d4 40       	sbci	r29, 0x04	; 4
    3cf2:	e7 e1       	ldi	r30, 0x17	; 23
    3cf4:	f2 e0       	ldi	r31, 0x02	; 2
    3cf6:	c7 51       	subi	r28, 0x17	; 23
    3cf8:	db 4f       	sbci	r29, 0xFB	; 251
    3cfa:	f9 83       	std	Y+1, r31	; 0x01
    3cfc:	e8 83       	st	Y, r30
    3cfe:	c9 5e       	subi	r28, 0xE9	; 233
    3d00:	d4 40       	sbci	r29, 0x04	; 4
    3d02:	85 e1       	ldi	r24, 0x15	; 21
    3d04:	92 e0       	ldi	r25, 0x02	; 2
    3d06:	c5 51       	subi	r28, 0x15	; 21
    3d08:	db 4f       	sbci	r29, 0xFB	; 251
    3d0a:	99 83       	std	Y+1, r25	; 0x01
    3d0c:	88 83       	st	Y, r24
    3d0e:	cb 5e       	subi	r28, 0xEB	; 235
    3d10:	d4 40       	sbci	r29, 0x04	; 4
    3d12:	84 e1       	ldi	r24, 0x14	; 20
    3d14:	92 e0       	ldi	r25, 0x02	; 2
    3d16:	c3 51       	subi	r28, 0x13	; 19
    3d18:	db 4f       	sbci	r29, 0xFB	; 251
    3d1a:	99 83       	std	Y+1, r25	; 0x01
    3d1c:	88 83       	st	Y, r24
    3d1e:	cd 5e       	subi	r28, 0xED	; 237
    3d20:	d4 40       	sbci	r29, 0x04	; 4
    3d22:	82 e1       	ldi	r24, 0x12	; 18
    3d24:	92 e0       	ldi	r25, 0x02	; 2
    3d26:	c1 51       	subi	r28, 0x11	; 17
    3d28:	db 4f       	sbci	r29, 0xFB	; 251
    3d2a:	99 83       	std	Y+1, r25	; 0x01
    3d2c:	88 83       	st	Y, r24
    3d2e:	cf 5e       	subi	r28, 0xEF	; 239
    3d30:	d4 40       	sbci	r29, 0x04	; 4
    3d32:	81 e1       	ldi	r24, 0x11	; 17
    3d34:	92 e0       	ldi	r25, 0x02	; 2
    3d36:	cf 50       	subi	r28, 0x0F	; 15
    3d38:	db 4f       	sbci	r29, 0xFB	; 251
    3d3a:	99 83       	std	Y+1, r25	; 0x01
    3d3c:	88 83       	st	Y, r24
    3d3e:	c1 5f       	subi	r28, 0xF1	; 241
    3d40:	d4 40       	sbci	r29, 0x04	; 4
    3d42:	8f e0       	ldi	r24, 0x0F	; 15
    3d44:	92 e0       	ldi	r25, 0x02	; 2
    3d46:	cd 50       	subi	r28, 0x0D	; 13
    3d48:	db 4f       	sbci	r29, 0xFB	; 251
    3d4a:	99 83       	std	Y+1, r25	; 0x01
    3d4c:	88 83       	st	Y, r24
    3d4e:	c3 5f       	subi	r28, 0xF3	; 243
    3d50:	d4 40       	sbci	r29, 0x04	; 4
    3d52:	8d e0       	ldi	r24, 0x0D	; 13
    3d54:	92 e0       	ldi	r25, 0x02	; 2
    3d56:	cb 50       	subi	r28, 0x0B	; 11
    3d58:	db 4f       	sbci	r29, 0xFB	; 251
    3d5a:	99 83       	std	Y+1, r25	; 0x01
    3d5c:	88 83       	st	Y, r24
    3d5e:	c5 5f       	subi	r28, 0xF5	; 245
    3d60:	d4 40       	sbci	r29, 0x04	; 4
    3d62:	8c e0       	ldi	r24, 0x0C	; 12
    3d64:	92 e0       	ldi	r25, 0x02	; 2
    3d66:	c9 50       	subi	r28, 0x09	; 9
    3d68:	db 4f       	sbci	r29, 0xFB	; 251
    3d6a:	99 83       	std	Y+1, r25	; 0x01
    3d6c:	88 83       	st	Y, r24
    3d6e:	c7 5f       	subi	r28, 0xF7	; 247
    3d70:	d4 40       	sbci	r29, 0x04	; 4
    3d72:	8a e0       	ldi	r24, 0x0A	; 10
    3d74:	92 e0       	ldi	r25, 0x02	; 2
    3d76:	c7 50       	subi	r28, 0x07	; 7
    3d78:	db 4f       	sbci	r29, 0xFB	; 251
    3d7a:	99 83       	std	Y+1, r25	; 0x01
    3d7c:	88 83       	st	Y, r24
    3d7e:	c9 5f       	subi	r28, 0xF9	; 249
    3d80:	d4 40       	sbci	r29, 0x04	; 4
    3d82:	0f 2e       	mov	r0, r31
    3d84:	f9 e0       	ldi	r31, 0x09	; 9
    3d86:	cf 2e       	mov	r12, r31
    3d88:	f2 e0       	ldi	r31, 0x02	; 2
    3d8a:	df 2e       	mov	r13, r31
    3d8c:	f0 2d       	mov	r31, r0
    3d8e:	c5 50       	subi	r28, 0x05	; 5
    3d90:	db 4f       	sbci	r29, 0xFB	; 251
    3d92:	d9 82       	std	Y+1, r13	; 0x01
    3d94:	c8 82       	st	Y, r12
    3d96:	cb 5f       	subi	r28, 0xFB	; 251
    3d98:	d4 40       	sbci	r29, 0x04	; 4
    3d9a:	87 e0       	ldi	r24, 0x07	; 7
    3d9c:	92 e0       	ldi	r25, 0x02	; 2
    3d9e:	c3 50       	subi	r28, 0x03	; 3
    3da0:	db 4f       	sbci	r29, 0xFB	; 251
    3da2:	99 83       	std	Y+1, r25	; 0x01
    3da4:	88 83       	st	Y, r24
    3da6:	cd 5f       	subi	r28, 0xFD	; 253
    3da8:	d4 40       	sbci	r29, 0x04	; 4
    3daa:	86 e0       	ldi	r24, 0x06	; 6
    3dac:	92 e0       	ldi	r25, 0x02	; 2
    3dae:	c1 50       	subi	r28, 0x01	; 1
    3db0:	db 4f       	sbci	r29, 0xFB	; 251
    3db2:	99 83       	std	Y+1, r25	; 0x01
    3db4:	88 83       	st	Y, r24
    3db6:	cf 5f       	subi	r28, 0xFF	; 255
    3db8:	d4 40       	sbci	r29, 0x04	; 4
    3dba:	84 e0       	ldi	r24, 0x04	; 4
    3dbc:	92 e0       	ldi	r25, 0x02	; 2
    3dbe:	cf 5f       	subi	r28, 0xFF	; 255
    3dc0:	da 4f       	sbci	r29, 0xFA	; 250
    3dc2:	99 83       	std	Y+1, r25	; 0x01
    3dc4:	88 83       	st	Y, r24
    3dc6:	c1 50       	subi	r28, 0x01	; 1
    3dc8:	d5 40       	sbci	r29, 0x05	; 5
    3dca:	83 e0       	ldi	r24, 0x03	; 3
    3dcc:	92 e0       	ldi	r25, 0x02	; 2
    3dce:	cd 5f       	subi	r28, 0xFD	; 253
    3dd0:	da 4f       	sbci	r29, 0xFA	; 250
    3dd2:	99 83       	std	Y+1, r25	; 0x01
    3dd4:	88 83       	st	Y, r24
    3dd6:	c3 50       	subi	r28, 0x03	; 3
    3dd8:	d5 40       	sbci	r29, 0x05	; 5
    3dda:	81 e0       	ldi	r24, 0x01	; 1
    3ddc:	92 e0       	ldi	r25, 0x02	; 2
    3dde:	cb 5f       	subi	r28, 0xFB	; 251
    3de0:	da 4f       	sbci	r29, 0xFA	; 250
    3de2:	99 83       	std	Y+1, r25	; 0x01
    3de4:	88 83       	st	Y, r24
    3de6:	c5 50       	subi	r28, 0x05	; 5
    3de8:	d5 40       	sbci	r29, 0x05	; 5
    3dea:	80 e0       	ldi	r24, 0x00	; 0
    3dec:	92 e0       	ldi	r25, 0x02	; 2
    3dee:	c9 5f       	subi	r28, 0xF9	; 249
    3df0:	da 4f       	sbci	r29, 0xFA	; 250
    3df2:	99 83       	std	Y+1, r25	; 0x01
    3df4:	88 83       	st	Y, r24
    3df6:	c7 50       	subi	r28, 0x07	; 7
    3df8:	d5 40       	sbci	r29, 0x05	; 5
    3dfa:	8f ef       	ldi	r24, 0xFF	; 255
    3dfc:	91 e0       	ldi	r25, 0x01	; 1
    3dfe:	c7 5f       	subi	r28, 0xF7	; 247
    3e00:	da 4f       	sbci	r29, 0xFA	; 250
    3e02:	99 83       	std	Y+1, r25	; 0x01
    3e04:	88 83       	st	Y, r24
    3e06:	c9 50       	subi	r28, 0x09	; 9
    3e08:	d5 40       	sbci	r29, 0x05	; 5
    3e0a:	8d ef       	ldi	r24, 0xFD	; 253
    3e0c:	91 e0       	ldi	r25, 0x01	; 1
    3e0e:	c5 5f       	subi	r28, 0xF5	; 245
    3e10:	da 4f       	sbci	r29, 0xFA	; 250
    3e12:	99 83       	std	Y+1, r25	; 0x01
    3e14:	88 83       	st	Y, r24
    3e16:	cb 50       	subi	r28, 0x0B	; 11
    3e18:	d5 40       	sbci	r29, 0x05	; 5
    3e1a:	8c ef       	ldi	r24, 0xFC	; 252
    3e1c:	91 e0       	ldi	r25, 0x01	; 1
    3e1e:	c3 5f       	subi	r28, 0xF3	; 243
    3e20:	da 4f       	sbci	r29, 0xFA	; 250
    3e22:	99 83       	std	Y+1, r25	; 0x01
    3e24:	88 83       	st	Y, r24
    3e26:	cd 50       	subi	r28, 0x0D	; 13
    3e28:	d5 40       	sbci	r29, 0x05	; 5
    3e2a:	0b ef       	ldi	r16, 0xFB	; 251
    3e2c:	11 e0       	ldi	r17, 0x01	; 1
    3e2e:	c1 5f       	subi	r28, 0xF1	; 241
    3e30:	da 4f       	sbci	r29, 0xFA	; 250
    3e32:	19 83       	std	Y+1, r17	; 0x01
    3e34:	08 83       	st	Y, r16
    3e36:	cf 50       	subi	r28, 0x0F	; 15
    3e38:	d5 40       	sbci	r29, 0x05	; 5
    3e3a:	89 ef       	ldi	r24, 0xF9	; 249
    3e3c:	91 e0       	ldi	r25, 0x01	; 1
    3e3e:	cf 5e       	subi	r28, 0xEF	; 239
    3e40:	da 4f       	sbci	r29, 0xFA	; 250
    3e42:	99 83       	std	Y+1, r25	; 0x01
    3e44:	88 83       	st	Y, r24
    3e46:	c1 51       	subi	r28, 0x11	; 17
    3e48:	d5 40       	sbci	r29, 0x05	; 5
    3e4a:	88 ef       	ldi	r24, 0xF8	; 248
    3e4c:	91 e0       	ldi	r25, 0x01	; 1
    3e4e:	cd 5e       	subi	r28, 0xED	; 237
    3e50:	da 4f       	sbci	r29, 0xFA	; 250
    3e52:	99 83       	std	Y+1, r25	; 0x01
    3e54:	88 83       	st	Y, r24
    3e56:	c3 51       	subi	r28, 0x13	; 19
    3e58:	d5 40       	sbci	r29, 0x05	; 5
    3e5a:	87 ef       	ldi	r24, 0xF7	; 247
    3e5c:	91 e0       	ldi	r25, 0x01	; 1
    3e5e:	cb 5e       	subi	r28, 0xEB	; 235
    3e60:	da 4f       	sbci	r29, 0xFA	; 250
    3e62:	99 83       	std	Y+1, r25	; 0x01
    3e64:	88 83       	st	Y, r24
    3e66:	c5 51       	subi	r28, 0x15	; 21
    3e68:	d5 40       	sbci	r29, 0x05	; 5
    3e6a:	85 ef       	ldi	r24, 0xF5	; 245
    3e6c:	91 e0       	ldi	r25, 0x01	; 1
    3e6e:	c9 5e       	subi	r28, 0xE9	; 233
    3e70:	da 4f       	sbci	r29, 0xFA	; 250
    3e72:	99 83       	std	Y+1, r25	; 0x01
    3e74:	88 83       	st	Y, r24
    3e76:	c7 51       	subi	r28, 0x17	; 23
    3e78:	d5 40       	sbci	r29, 0x05	; 5
    3e7a:	81 e0       	ldi	r24, 0x01	; 1
    3e7c:	90 e0       	ldi	r25, 0x00	; 0
    3e7e:	c7 5e       	subi	r28, 0xE7	; 231
    3e80:	da 4f       	sbci	r29, 0xFA	; 250
    3e82:	99 83       	std	Y+1, r25	; 0x01
    3e84:	88 83       	st	Y, r24
    3e86:	c9 51       	subi	r28, 0x19	; 25
    3e88:	d5 40       	sbci	r29, 0x05	; 5
    3e8a:	84 e0       	ldi	r24, 0x04	; 4
    3e8c:	90 e0       	ldi	r25, 0x00	; 0
    3e8e:	c5 5e       	subi	r28, 0xE5	; 229
    3e90:	da 4f       	sbci	r29, 0xFA	; 250
    3e92:	99 83       	std	Y+1, r25	; 0x01
    3e94:	88 83       	st	Y, r24
    3e96:	cb 51       	subi	r28, 0x1B	; 27
    3e98:	d5 40       	sbci	r29, 0x05	; 5
    3e9a:	87 e0       	ldi	r24, 0x07	; 7
    3e9c:	90 e0       	ldi	r25, 0x00	; 0
    3e9e:	c3 5e       	subi	r28, 0xE3	; 227
    3ea0:	da 4f       	sbci	r29, 0xFA	; 250
    3ea2:	99 83       	std	Y+1, r25	; 0x01
    3ea4:	88 83       	st	Y, r24
    3ea6:	cd 51       	subi	r28, 0x1D	; 29
    3ea8:	d5 40       	sbci	r29, 0x05	; 5
    3eaa:	8a e0       	ldi	r24, 0x0A	; 10
    3eac:	90 e0       	ldi	r25, 0x00	; 0
    3eae:	c1 5e       	subi	r28, 0xE1	; 225
    3eb0:	da 4f       	sbci	r29, 0xFA	; 250
    3eb2:	99 83       	std	Y+1, r25	; 0x01
    3eb4:	88 83       	st	Y, r24
    3eb6:	cf 51       	subi	r28, 0x1F	; 31
    3eb8:	d5 40       	sbci	r29, 0x05	; 5
    3eba:	8d e0       	ldi	r24, 0x0D	; 13
    3ebc:	90 e0       	ldi	r25, 0x00	; 0
    3ebe:	cf 5d       	subi	r28, 0xDF	; 223
    3ec0:	da 4f       	sbci	r29, 0xFA	; 250
    3ec2:	99 83       	std	Y+1, r25	; 0x01
    3ec4:	88 83       	st	Y, r24
    3ec6:	c1 52       	subi	r28, 0x21	; 33
    3ec8:	d5 40       	sbci	r29, 0x05	; 5
    3eca:	80 e1       	ldi	r24, 0x10	; 16
    3ecc:	90 e0       	ldi	r25, 0x00	; 0
    3ece:	cd 5d       	subi	r28, 0xDD	; 221
    3ed0:	da 4f       	sbci	r29, 0xFA	; 250
    3ed2:	99 83       	std	Y+1, r25	; 0x01
    3ed4:	88 83       	st	Y, r24
    3ed6:	c3 52       	subi	r28, 0x23	; 35
    3ed8:	d5 40       	sbci	r29, 0x05	; 5
    3eda:	23 e1       	ldi	r18, 0x13	; 19
    3edc:	30 e0       	ldi	r19, 0x00	; 0
    3ede:	cb 5d       	subi	r28, 0xDB	; 219
    3ee0:	da 4f       	sbci	r29, 0xFA	; 250
    3ee2:	39 83       	std	Y+1, r19	; 0x01
    3ee4:	28 83       	st	Y, r18
    3ee6:	c5 52       	subi	r28, 0x25	; 37
    3ee8:	d5 40       	sbci	r29, 0x05	; 5
    3eea:	86 e1       	ldi	r24, 0x16	; 22
    3eec:	90 e0       	ldi	r25, 0x00	; 0
    3eee:	c9 5d       	subi	r28, 0xD9	; 217
    3ef0:	da 4f       	sbci	r29, 0xFA	; 250
    3ef2:	99 83       	std	Y+1, r25	; 0x01
    3ef4:	88 83       	st	Y, r24
    3ef6:	c7 52       	subi	r28, 0x27	; 39
    3ef8:	d5 40       	sbci	r29, 0x05	; 5
    3efa:	89 e1       	ldi	r24, 0x19	; 25
    3efc:	90 e0       	ldi	r25, 0x00	; 0
    3efe:	c7 5d       	subi	r28, 0xD7	; 215
    3f00:	da 4f       	sbci	r29, 0xFA	; 250
    3f02:	99 83       	std	Y+1, r25	; 0x01
    3f04:	88 83       	st	Y, r24
    3f06:	c9 52       	subi	r28, 0x29	; 41
    3f08:	d5 40       	sbci	r29, 0x05	; 5
    3f0a:	8c e1       	ldi	r24, 0x1C	; 28
    3f0c:	90 e0       	ldi	r25, 0x00	; 0
    3f0e:	c5 5d       	subi	r28, 0xD5	; 213
    3f10:	da 4f       	sbci	r29, 0xFA	; 250
    3f12:	99 83       	std	Y+1, r25	; 0x01
    3f14:	88 83       	st	Y, r24
    3f16:	cb 52       	subi	r28, 0x2B	; 43
    3f18:	d5 40       	sbci	r29, 0x05	; 5
    3f1a:	8f e1       	ldi	r24, 0x1F	; 31
    3f1c:	90 e0       	ldi	r25, 0x00	; 0
    3f1e:	c3 5d       	subi	r28, 0xD3	; 211
    3f20:	da 4f       	sbci	r29, 0xFA	; 250
    3f22:	99 83       	std	Y+1, r25	; 0x01
    3f24:	88 83       	st	Y, r24
    3f26:	cd 52       	subi	r28, 0x2D	; 45
    3f28:	d5 40       	sbci	r29, 0x05	; 5
    3f2a:	82 e2       	ldi	r24, 0x22	; 34
    3f2c:	90 e0       	ldi	r25, 0x00	; 0
    3f2e:	c1 5d       	subi	r28, 0xD1	; 209
    3f30:	da 4f       	sbci	r29, 0xFA	; 250
    3f32:	99 83       	std	Y+1, r25	; 0x01
    3f34:	88 83       	st	Y, r24
    3f36:	cf 52       	subi	r28, 0x2F	; 47
    3f38:	d5 40       	sbci	r29, 0x05	; 5
    3f3a:	85 e2       	ldi	r24, 0x25	; 37
    3f3c:	90 e0       	ldi	r25, 0x00	; 0
    3f3e:	cf 5c       	subi	r28, 0xCF	; 207
    3f40:	da 4f       	sbci	r29, 0xFA	; 250
    3f42:	99 83       	std	Y+1, r25	; 0x01
    3f44:	88 83       	st	Y, r24
    3f46:	c1 53       	subi	r28, 0x31	; 49
    3f48:	d5 40       	sbci	r29, 0x05	; 5
    3f4a:	48 e2       	ldi	r20, 0x28	; 40
    3f4c:	50 e0       	ldi	r21, 0x00	; 0
    3f4e:	cd 5c       	subi	r28, 0xCD	; 205
    3f50:	da 4f       	sbci	r29, 0xFA	; 250
    3f52:	59 83       	std	Y+1, r21	; 0x01
    3f54:	48 83       	st	Y, r20
    3f56:	c3 53       	subi	r28, 0x33	; 51
    3f58:	d5 40       	sbci	r29, 0x05	; 5
    3f5a:	8b e2       	ldi	r24, 0x2B	; 43
    3f5c:	90 e0       	ldi	r25, 0x00	; 0
    3f5e:	cb 5c       	subi	r28, 0xCB	; 203
    3f60:	da 4f       	sbci	r29, 0xFA	; 250
    3f62:	99 83       	std	Y+1, r25	; 0x01
    3f64:	88 83       	st	Y, r24
    3f66:	c5 53       	subi	r28, 0x35	; 53
    3f68:	d5 40       	sbci	r29, 0x05	; 5
    3f6a:	8e e2       	ldi	r24, 0x2E	; 46
    3f6c:	90 e0       	ldi	r25, 0x00	; 0
    3f6e:	c9 5c       	subi	r28, 0xC9	; 201
    3f70:	da 4f       	sbci	r29, 0xFA	; 250
    3f72:	99 83       	std	Y+1, r25	; 0x01
    3f74:	88 83       	st	Y, r24
    3f76:	c7 53       	subi	r28, 0x37	; 55
    3f78:	d5 40       	sbci	r29, 0x05	; 5
    3f7a:	81 e3       	ldi	r24, 0x31	; 49
    3f7c:	90 e0       	ldi	r25, 0x00	; 0
    3f7e:	c7 5c       	subi	r28, 0xC7	; 199
    3f80:	da 4f       	sbci	r29, 0xFA	; 250
    3f82:	99 83       	std	Y+1, r25	; 0x01
    3f84:	88 83       	st	Y, r24
    3f86:	c9 53       	subi	r28, 0x39	; 57
    3f88:	d5 40       	sbci	r29, 0x05	; 5
    3f8a:	84 e3       	ldi	r24, 0x34	; 52
    3f8c:	90 e0       	ldi	r25, 0x00	; 0
    3f8e:	c5 5c       	subi	r28, 0xC5	; 197
    3f90:	da 4f       	sbci	r29, 0xFA	; 250
    3f92:	99 83       	std	Y+1, r25	; 0x01
    3f94:	88 83       	st	Y, r24
    3f96:	cb 53       	subi	r28, 0x3B	; 59
    3f98:	d5 40       	sbci	r29, 0x05	; 5
    3f9a:	87 e3       	ldi	r24, 0x37	; 55
    3f9c:	90 e0       	ldi	r25, 0x00	; 0
    3f9e:	c3 5c       	subi	r28, 0xC3	; 195
    3fa0:	da 4f       	sbci	r29, 0xFA	; 250
    3fa2:	99 83       	std	Y+1, r25	; 0x01
    3fa4:	88 83       	st	Y, r24
    3fa6:	cd 53       	subi	r28, 0x3D	; 61
    3fa8:	d5 40       	sbci	r29, 0x05	; 5
    3faa:	8a e3       	ldi	r24, 0x3A	; 58
    3fac:	90 e0       	ldi	r25, 0x00	; 0
    3fae:	c1 5c       	subi	r28, 0xC1	; 193
    3fb0:	da 4f       	sbci	r29, 0xFA	; 250
    3fb2:	99 83       	std	Y+1, r25	; 0x01
    3fb4:	88 83       	st	Y, r24
    3fb6:	cf 53       	subi	r28, 0x3F	; 63
    3fb8:	d5 40       	sbci	r29, 0x05	; 5
    3fba:	6d e3       	ldi	r22, 0x3D	; 61
    3fbc:	70 e0       	ldi	r23, 0x00	; 0
    3fbe:	cf 5b       	subi	r28, 0xBF	; 191
    3fc0:	da 4f       	sbci	r29, 0xFA	; 250
    3fc2:	79 83       	std	Y+1, r23	; 0x01
    3fc4:	68 83       	st	Y, r22
    3fc6:	c1 54       	subi	r28, 0x41	; 65
    3fc8:	d5 40       	sbci	r29, 0x05	; 5
    3fca:	80 e4       	ldi	r24, 0x40	; 64
    3fcc:	90 e0       	ldi	r25, 0x00	; 0
    3fce:	cd 5b       	subi	r28, 0xBD	; 189
    3fd0:	da 4f       	sbci	r29, 0xFA	; 250
    3fd2:	99 83       	std	Y+1, r25	; 0x01
    3fd4:	88 83       	st	Y, r24
    3fd6:	c3 54       	subi	r28, 0x43	; 67
    3fd8:	d5 40       	sbci	r29, 0x05	; 5
    3fda:	83 e4       	ldi	r24, 0x43	; 67
    3fdc:	90 e0       	ldi	r25, 0x00	; 0
    3fde:	cb 5b       	subi	r28, 0xBB	; 187
    3fe0:	da 4f       	sbci	r29, 0xFA	; 250
    3fe2:	99 83       	std	Y+1, r25	; 0x01
    3fe4:	88 83       	st	Y, r24
    3fe6:	c5 54       	subi	r28, 0x45	; 69
    3fe8:	d5 40       	sbci	r29, 0x05	; 5
    3fea:	86 e4       	ldi	r24, 0x46	; 70
    3fec:	90 e0       	ldi	r25, 0x00	; 0
    3fee:	c9 5b       	subi	r28, 0xB9	; 185
    3ff0:	da 4f       	sbci	r29, 0xFA	; 250
    3ff2:	99 83       	std	Y+1, r25	; 0x01
    3ff4:	88 83       	st	Y, r24
    3ff6:	c7 54       	subi	r28, 0x47	; 71
    3ff8:	d5 40       	sbci	r29, 0x05	; 5
    3ffa:	89 e4       	ldi	r24, 0x49	; 73
    3ffc:	90 e0       	ldi	r25, 0x00	; 0
    3ffe:	c7 5b       	subi	r28, 0xB7	; 183
    4000:	da 4f       	sbci	r29, 0xFA	; 250
    4002:	99 83       	std	Y+1, r25	; 0x01
    4004:	88 83       	st	Y, r24
    4006:	c9 54       	subi	r28, 0x49	; 73
    4008:	d5 40       	sbci	r29, 0x05	; 5
    400a:	8c e4       	ldi	r24, 0x4C	; 76
    400c:	90 e0       	ldi	r25, 0x00	; 0
    400e:	c5 5b       	subi	r28, 0xB5	; 181
    4010:	da 4f       	sbci	r29, 0xFA	; 250
    4012:	99 83       	std	Y+1, r25	; 0x01
    4014:	88 83       	st	Y, r24
    4016:	cb 54       	subi	r28, 0x4B	; 75
    4018:	d5 40       	sbci	r29, 0x05	; 5
    401a:	af e4       	ldi	r26, 0x4F	; 79
    401c:	b0 e0       	ldi	r27, 0x00	; 0
    401e:	c3 5b       	subi	r28, 0xB3	; 179
    4020:	da 4f       	sbci	r29, 0xFA	; 250
    4022:	b9 83       	std	Y+1, r27	; 0x01
    4024:	a8 83       	st	Y, r26
    4026:	cd 54       	subi	r28, 0x4D	; 77
    4028:	d5 40       	sbci	r29, 0x05	; 5
    402a:	82 e5       	ldi	r24, 0x52	; 82
    402c:	90 e0       	ldi	r25, 0x00	; 0
    402e:	c1 5b       	subi	r28, 0xB1	; 177
    4030:	da 4f       	sbci	r29, 0xFA	; 250
    4032:	99 83       	std	Y+1, r25	; 0x01
    4034:	88 83       	st	Y, r24
    4036:	cf 54       	subi	r28, 0x4F	; 79
    4038:	d5 40       	sbci	r29, 0x05	; 5
    403a:	0f 2e       	mov	r0, r31
    403c:	f5 e5       	ldi	r31, 0x55	; 85
    403e:	ef 2e       	mov	r14, r31
    4040:	f1 2c       	mov	r15, r1
    4042:	f0 2d       	mov	r31, r0
    4044:	cf 5a       	subi	r28, 0xAF	; 175
    4046:	da 4f       	sbci	r29, 0xFA	; 250
    4048:	f9 82       	std	Y+1, r15	; 0x01
    404a:	e8 82       	st	Y, r14
    404c:	c1 55       	subi	r28, 0x51	; 81
    404e:	d5 40       	sbci	r29, 0x05	; 5
    4050:	8e e5       	ldi	r24, 0x5E	; 94
    4052:	90 e0       	ldi	r25, 0x00	; 0
    4054:	cd 5a       	subi	r28, 0xAD	; 173
    4056:	da 4f       	sbci	r29, 0xFA	; 250
    4058:	99 83       	std	Y+1, r25	; 0x01
    405a:	88 83       	st	Y, r24
    405c:	c3 55       	subi	r28, 0x53	; 83
    405e:	d5 40       	sbci	r29, 0x05	; 5
    4060:	01 e6       	ldi	r16, 0x61	; 97
    4062:	10 e0       	ldi	r17, 0x00	; 0
    4064:	cb 5a       	subi	r28, 0xAB	; 171
    4066:	da 4f       	sbci	r29, 0xFA	; 250
    4068:	19 83       	std	Y+1, r17	; 0x01
    406a:	08 83       	st	Y, r16
    406c:	c5 55       	subi	r28, 0x55	; 85
    406e:	d5 40       	sbci	r29, 0x05	; 5
    4070:	84 e6       	ldi	r24, 0x64	; 100
    4072:	90 e0       	ldi	r25, 0x00	; 0
    4074:	c9 5a       	subi	r28, 0xA9	; 169
    4076:	da 4f       	sbci	r29, 0xFA	; 250
    4078:	99 83       	std	Y+1, r25	; 0x01
    407a:	88 83       	st	Y, r24
    407c:	c7 55       	subi	r28, 0x57	; 87
    407e:	d5 40       	sbci	r29, 0x05	; 5
    4080:	a7 e6       	ldi	r26, 0x67	; 103
    4082:	b0 e0       	ldi	r27, 0x00	; 0
    4084:	c7 5a       	subi	r28, 0xA7	; 167
    4086:	da 4f       	sbci	r29, 0xFA	; 250
    4088:	b9 83       	std	Y+1, r27	; 0x01
    408a:	a8 83       	st	Y, r26
    408c:	c9 55       	subi	r28, 0x59	; 89
    408e:	d5 40       	sbci	r29, 0x05	; 5
    4090:	8a e6       	ldi	r24, 0x6A	; 106
    4092:	90 e0       	ldi	r25, 0x00	; 0
    4094:	c5 5a       	subi	r28, 0xA5	; 165
    4096:	da 4f       	sbci	r29, 0xFA	; 250
    4098:	99 83       	std	Y+1, r25	; 0x01
    409a:	88 83       	st	Y, r24
    409c:	cb 55       	subi	r28, 0x5B	; 91
    409e:	d5 40       	sbci	r29, 0x05	; 5
    40a0:	ed e6       	ldi	r30, 0x6D	; 109
    40a2:	f0 e0       	ldi	r31, 0x00	; 0
    40a4:	c3 5a       	subi	r28, 0xA3	; 163
    40a6:	da 4f       	sbci	r29, 0xFA	; 250
    40a8:	f9 83       	std	Y+1, r31	; 0x01
    40aa:	e8 83       	st	Y, r30
    40ac:	cd 55       	subi	r28, 0x5D	; 93
    40ae:	d5 40       	sbci	r29, 0x05	; 5
    40b0:	80 e7       	ldi	r24, 0x70	; 112
    40b2:	90 e0       	ldi	r25, 0x00	; 0
    40b4:	c1 5a       	subi	r28, 0xA1	; 161
    40b6:	da 4f       	sbci	r29, 0xFA	; 250
    40b8:	99 83       	std	Y+1, r25	; 0x01
    40ba:	88 83       	st	Y, r24
    40bc:	cf 55       	subi	r28, 0x5F	; 95
    40be:	d5 40       	sbci	r29, 0x05	; 5
    40c0:	63 e7       	ldi	r22, 0x73	; 115
    40c2:	70 e0       	ldi	r23, 0x00	; 0
    40c4:	cf 59       	subi	r28, 0x9F	; 159
    40c6:	da 4f       	sbci	r29, 0xFA	; 250
    40c8:	79 83       	std	Y+1, r23	; 0x01
    40ca:	68 83       	st	Y, r22
    40cc:	c1 56       	subi	r28, 0x61	; 97
    40ce:	d5 40       	sbci	r29, 0x05	; 5
    40d0:	86 e7       	ldi	r24, 0x76	; 118
    40d2:	90 e0       	ldi	r25, 0x00	; 0
    40d4:	cd 59       	subi	r28, 0x9D	; 157
    40d6:	da 4f       	sbci	r29, 0xFA	; 250
    40d8:	99 83       	std	Y+1, r25	; 0x01
    40da:	88 83       	st	Y, r24
    40dc:	c3 56       	subi	r28, 0x63	; 99
    40de:	d5 40       	sbci	r29, 0x05	; 5
    40e0:	49 e7       	ldi	r20, 0x79	; 121
    40e2:	50 e0       	ldi	r21, 0x00	; 0
    40e4:	cb 59       	subi	r28, 0x9B	; 155
    40e6:	da 4f       	sbci	r29, 0xFA	; 250
    40e8:	59 83       	std	Y+1, r21	; 0x01
    40ea:	48 83       	st	Y, r20
    40ec:	c5 56       	subi	r28, 0x65	; 101
    40ee:	d5 40       	sbci	r29, 0x05	; 5
    40f0:	8c e7       	ldi	r24, 0x7C	; 124
    40f2:	90 e0       	ldi	r25, 0x00	; 0
    40f4:	c9 59       	subi	r28, 0x99	; 153
    40f6:	da 4f       	sbci	r29, 0xFA	; 250
    40f8:	99 83       	std	Y+1, r25	; 0x01
    40fa:	88 83       	st	Y, r24
    40fc:	c7 56       	subi	r28, 0x67	; 103
    40fe:	d5 40       	sbci	r29, 0x05	; 5
    4100:	2f e7       	ldi	r18, 0x7F	; 127
    4102:	30 e0       	ldi	r19, 0x00	; 0
    4104:	c7 59       	subi	r28, 0x97	; 151
    4106:	da 4f       	sbci	r29, 0xFA	; 250
    4108:	39 83       	std	Y+1, r19	; 0x01
    410a:	28 83       	st	Y, r18
    410c:	c9 56       	subi	r28, 0x69	; 105
    410e:	d5 40       	sbci	r29, 0x05	; 5
    4110:	82 e8       	ldi	r24, 0x82	; 130
    4112:	90 e0       	ldi	r25, 0x00	; 0
    4114:	c5 59       	subi	r28, 0x95	; 149
    4116:	da 4f       	sbci	r29, 0xFA	; 250
    4118:	99 83       	std	Y+1, r25	; 0x01
    411a:	88 83       	st	Y, r24
    411c:	cb 56       	subi	r28, 0x6B	; 107
    411e:	d5 40       	sbci	r29, 0x05	; 5
    4120:	0f 2e       	mov	r0, r31
    4122:	f5 e8       	ldi	r31, 0x85	; 133
    4124:	af 2e       	mov	r10, r31
    4126:	b1 2c       	mov	r11, r1
    4128:	f0 2d       	mov	r31, r0
    412a:	c3 59       	subi	r28, 0x93	; 147
    412c:	da 4f       	sbci	r29, 0xFA	; 250
    412e:	b9 82       	std	Y+1, r11	; 0x01
    4130:	a8 82       	st	Y, r10
    4132:	cd 56       	subi	r28, 0x6D	; 109
    4134:	d5 40       	sbci	r29, 0x05	; 5
    4136:	88 e8       	ldi	r24, 0x88	; 136
    4138:	90 e0       	ldi	r25, 0x00	; 0
    413a:	c1 59       	subi	r28, 0x91	; 145
    413c:	da 4f       	sbci	r29, 0xFA	; 250
    413e:	99 83       	std	Y+1, r25	; 0x01
    4140:	88 83       	st	Y, r24
    4142:	cf 56       	subi	r28, 0x6F	; 111
    4144:	d5 40       	sbci	r29, 0x05	; 5
    4146:	0f 2e       	mov	r0, r31
    4148:	fb e8       	ldi	r31, 0x8B	; 139
    414a:	8f 2e       	mov	r8, r31
    414c:	91 2c       	mov	r9, r1
    414e:	f0 2d       	mov	r31, r0
    4150:	cf 58       	subi	r28, 0x8F	; 143
    4152:	da 4f       	sbci	r29, 0xFA	; 250
    4154:	99 82       	std	Y+1, r9	; 0x01
    4156:	88 82       	st	Y, r8
    4158:	c1 57       	subi	r28, 0x71	; 113
    415a:	d5 40       	sbci	r29, 0x05	; 5
    415c:	8e e8       	ldi	r24, 0x8E	; 142
    415e:	90 e0       	ldi	r25, 0x00	; 0
    4160:	cd 58       	subi	r28, 0x8D	; 141
    4162:	da 4f       	sbci	r29, 0xFA	; 250
    4164:	99 83       	std	Y+1, r25	; 0x01
    4166:	88 83       	st	Y, r24
    4168:	c3 57       	subi	r28, 0x73	; 115
    416a:	d5 40       	sbci	r29, 0x05	; 5
    416c:	0f 2e       	mov	r0, r31
    416e:	f1 e9       	ldi	r31, 0x91	; 145
    4170:	6f 2e       	mov	r6, r31
    4172:	71 2c       	mov	r7, r1
    4174:	f0 2d       	mov	r31, r0
    4176:	cb 58       	subi	r28, 0x8B	; 139
    4178:	da 4f       	sbci	r29, 0xFA	; 250
    417a:	79 82       	std	Y+1, r7	; 0x01
    417c:	68 82       	st	Y, r6
    417e:	c5 57       	subi	r28, 0x75	; 117
    4180:	d5 40       	sbci	r29, 0x05	; 5
    4182:	84 e9       	ldi	r24, 0x94	; 148
    4184:	90 e0       	ldi	r25, 0x00	; 0
    4186:	c9 58       	subi	r28, 0x89	; 137
    4188:	da 4f       	sbci	r29, 0xFA	; 250
    418a:	99 83       	std	Y+1, r25	; 0x01
    418c:	88 83       	st	Y, r24
    418e:	c7 57       	subi	r28, 0x77	; 119
    4190:	d5 40       	sbci	r29, 0x05	; 5
    4192:	0f 2e       	mov	r0, r31
    4194:	f7 e9       	ldi	r31, 0x97	; 151
    4196:	4f 2e       	mov	r4, r31
    4198:	51 2c       	mov	r5, r1
    419a:	f0 2d       	mov	r31, r0
    419c:	c7 58       	subi	r28, 0x87	; 135
    419e:	da 4f       	sbci	r29, 0xFA	; 250
    41a0:	59 82       	std	Y+1, r5	; 0x01
    41a2:	48 82       	st	Y, r4
    41a4:	c9 57       	subi	r28, 0x79	; 121
    41a6:	d5 40       	sbci	r29, 0x05	; 5
    41a8:	8a e9       	ldi	r24, 0x9A	; 154
    41aa:	90 e0       	ldi	r25, 0x00	; 0
    41ac:	c5 58       	subi	r28, 0x85	; 133
    41ae:	da 4f       	sbci	r29, 0xFA	; 250
    41b0:	99 83       	std	Y+1, r25	; 0x01
    41b2:	88 83       	st	Y, r24
    41b4:	cb 57       	subi	r28, 0x7B	; 123
    41b6:	d5 40       	sbci	r29, 0x05	; 5
    41b8:	0f 2e       	mov	r0, r31
    41ba:	fd e9       	ldi	r31, 0x9D	; 157
    41bc:	2f 2e       	mov	r2, r31
    41be:	31 2c       	mov	r3, r1
    41c0:	f0 2d       	mov	r31, r0
    41c2:	c3 58       	subi	r28, 0x83	; 131
    41c4:	da 4f       	sbci	r29, 0xFA	; 250
    41c6:	39 82       	std	Y+1, r3	; 0x01
    41c8:	28 82       	st	Y, r2
    41ca:	cd 57       	subi	r28, 0x7D	; 125
    41cc:	d5 40       	sbci	r29, 0x05	; 5
    41ce:	80 ea       	ldi	r24, 0xA0	; 160
    41d0:	90 e0       	ldi	r25, 0x00	; 0
    41d2:	c1 58       	subi	r28, 0x81	; 129
    41d4:	da 4f       	sbci	r29, 0xFA	; 250
    41d6:	99 83       	std	Y+1, r25	; 0x01
    41d8:	88 83       	st	Y, r24
    41da:	cf 57       	subi	r28, 0x7F	; 127
    41dc:	d5 40       	sbci	r29, 0x05	; 5
    41de:	0f 2e       	mov	r0, r31
    41e0:	f3 ea       	ldi	r31, 0xA3	; 163
    41e2:	cf 2e       	mov	r12, r31
    41e4:	d1 2c       	mov	r13, r1
    41e6:	f0 2d       	mov	r31, r0
    41e8:	cf 57       	subi	r28, 0x7F	; 127
    41ea:	da 4f       	sbci	r29, 0xFA	; 250
    41ec:	d9 82       	std	Y+1, r13	; 0x01
    41ee:	c8 82       	st	Y, r12
    41f0:	c1 58       	subi	r28, 0x81	; 129
    41f2:	d5 40       	sbci	r29, 0x05	; 5
    41f4:	86 ea       	ldi	r24, 0xA6	; 166
    41f6:	90 e0       	ldi	r25, 0x00	; 0
    41f8:	cd 57       	subi	r28, 0x7D	; 125
    41fa:	da 4f       	sbci	r29, 0xFA	; 250
    41fc:	99 83       	std	Y+1, r25	; 0x01
    41fe:	88 83       	st	Y, r24
    4200:	c3 58       	subi	r28, 0x83	; 131
    4202:	d5 40       	sbci	r29, 0x05	; 5
    4204:	89 ea       	ldi	r24, 0xA9	; 169
    4206:	90 e0       	ldi	r25, 0x00	; 0
    4208:	cb 57       	subi	r28, 0x7B	; 123
    420a:	da 4f       	sbci	r29, 0xFA	; 250
    420c:	99 83       	std	Y+1, r25	; 0x01
    420e:	88 83       	st	Y, r24
    4210:	c5 58       	subi	r28, 0x85	; 133
    4212:	d5 40       	sbci	r29, 0x05	; 5
    4214:	8c ea       	ldi	r24, 0xAC	; 172
    4216:	90 e0       	ldi	r25, 0x00	; 0
    4218:	c9 57       	subi	r28, 0x79	; 121
    421a:	da 4f       	sbci	r29, 0xFA	; 250
    421c:	99 83       	std	Y+1, r25	; 0x01
    421e:	88 83       	st	Y, r24
    4220:	c7 58       	subi	r28, 0x87	; 135
    4222:	d5 40       	sbci	r29, 0x05	; 5
    4224:	0f 2e       	mov	r0, r31
    4226:	ff ea       	ldi	r31, 0xAF	; 175
    4228:	cf 2e       	mov	r12, r31
    422a:	d1 2c       	mov	r13, r1
    422c:	f0 2d       	mov	r31, r0
    422e:	c7 57       	subi	r28, 0x77	; 119
    4230:	da 4f       	sbci	r29, 0xFA	; 250
    4232:	d9 82       	std	Y+1, r13	; 0x01
    4234:	c8 82       	st	Y, r12
    4236:	c9 58       	subi	r28, 0x89	; 137
    4238:	d5 40       	sbci	r29, 0x05	; 5
    423a:	82 eb       	ldi	r24, 0xB2	; 178
    423c:	90 e0       	ldi	r25, 0x00	; 0
    423e:	c5 57       	subi	r28, 0x75	; 117
    4240:	da 4f       	sbci	r29, 0xFA	; 250
    4242:	99 83       	std	Y+1, r25	; 0x01
    4244:	88 83       	st	Y, r24
    4246:	cb 58       	subi	r28, 0x8B	; 139
    4248:	d5 40       	sbci	r29, 0x05	; 5
    424a:	85 eb       	ldi	r24, 0xB5	; 181
    424c:	90 e0       	ldi	r25, 0x00	; 0
    424e:	c3 57       	subi	r28, 0x73	; 115
    4250:	da 4f       	sbci	r29, 0xFA	; 250
    4252:	99 83       	std	Y+1, r25	; 0x01
    4254:	88 83       	st	Y, r24
    4256:	cd 58       	subi	r28, 0x8D	; 141
    4258:	d5 40       	sbci	r29, 0x05	; 5
    425a:	88 eb       	ldi	r24, 0xB8	; 184
    425c:	90 e0       	ldi	r25, 0x00	; 0
    425e:	c1 57       	subi	r28, 0x71	; 113
    4260:	da 4f       	sbci	r29, 0xFA	; 250
    4262:	99 83       	std	Y+1, r25	; 0x01
    4264:	88 83       	st	Y, r24
    4266:	cf 58       	subi	r28, 0x8F	; 143
    4268:	d5 40       	sbci	r29, 0x05	; 5
    426a:	0f 2e       	mov	r0, r31
    426c:	fb eb       	ldi	r31, 0xBB	; 187
    426e:	cf 2e       	mov	r12, r31
    4270:	d1 2c       	mov	r13, r1
    4272:	f0 2d       	mov	r31, r0
    4274:	cf 56       	subi	r28, 0x6F	; 111
    4276:	da 4f       	sbci	r29, 0xFA	; 250
    4278:	d9 82       	std	Y+1, r13	; 0x01
    427a:	c8 82       	st	Y, r12
    427c:	c1 59       	subi	r28, 0x91	; 145
    427e:	d5 40       	sbci	r29, 0x05	; 5
    4280:	8e eb       	ldi	r24, 0xBE	; 190
    4282:	90 e0       	ldi	r25, 0x00	; 0
    4284:	cd 56       	subi	r28, 0x6D	; 109
    4286:	da 4f       	sbci	r29, 0xFA	; 250
    4288:	99 83       	std	Y+1, r25	; 0x01
    428a:	88 83       	st	Y, r24
    428c:	c3 59       	subi	r28, 0x93	; 147
    428e:	d5 40       	sbci	r29, 0x05	; 5
    4290:	81 ec       	ldi	r24, 0xC1	; 193
    4292:	90 e0       	ldi	r25, 0x00	; 0
    4294:	cb 56       	subi	r28, 0x6B	; 107
    4296:	da 4f       	sbci	r29, 0xFA	; 250
    4298:	99 83       	std	Y+1, r25	; 0x01
    429a:	88 83       	st	Y, r24
    429c:	c5 59       	subi	r28, 0x95	; 149
    429e:	d5 40       	sbci	r29, 0x05	; 5
    42a0:	84 ec       	ldi	r24, 0xC4	; 196
    42a2:	90 e0       	ldi	r25, 0x00	; 0
    42a4:	c9 56       	subi	r28, 0x69	; 105
    42a6:	da 4f       	sbci	r29, 0xFA	; 250
    42a8:	99 83       	std	Y+1, r25	; 0x01
    42aa:	88 83       	st	Y, r24
    42ac:	c7 59       	subi	r28, 0x97	; 151
    42ae:	d5 40       	sbci	r29, 0x05	; 5
    42b0:	0f 2e       	mov	r0, r31
    42b2:	f7 ec       	ldi	r31, 0xC7	; 199
    42b4:	cf 2e       	mov	r12, r31
    42b6:	d1 2c       	mov	r13, r1
    42b8:	f0 2d       	mov	r31, r0
    42ba:	c7 56       	subi	r28, 0x67	; 103
    42bc:	da 4f       	sbci	r29, 0xFA	; 250
    42be:	d9 82       	std	Y+1, r13	; 0x01
    42c0:	c8 82       	st	Y, r12
    42c2:	c9 59       	subi	r28, 0x99	; 153
    42c4:	d5 40       	sbci	r29, 0x05	; 5
    42c6:	8a ec       	ldi	r24, 0xCA	; 202
    42c8:	90 e0       	ldi	r25, 0x00	; 0
    42ca:	c5 56       	subi	r28, 0x65	; 101
    42cc:	da 4f       	sbci	r29, 0xFA	; 250
    42ce:	99 83       	std	Y+1, r25	; 0x01
    42d0:	88 83       	st	Y, r24
    42d2:	cb 59       	subi	r28, 0x9B	; 155
    42d4:	d5 40       	sbci	r29, 0x05	; 5
    42d6:	8d ec       	ldi	r24, 0xCD	; 205
    42d8:	90 e0       	ldi	r25, 0x00	; 0
    42da:	c3 56       	subi	r28, 0x63	; 99
    42dc:	da 4f       	sbci	r29, 0xFA	; 250
    42de:	99 83       	std	Y+1, r25	; 0x01
    42e0:	88 83       	st	Y, r24
    42e2:	cd 59       	subi	r28, 0x9D	; 157
    42e4:	d5 40       	sbci	r29, 0x05	; 5
    42e6:	0f 2e       	mov	r0, r31
    42e8:	f0 ed       	ldi	r31, 0xD0	; 208
    42ea:	cf 2e       	mov	r12, r31
    42ec:	d1 2c       	mov	r13, r1
    42ee:	f0 2d       	mov	r31, r0
    42f0:	c1 56       	subi	r28, 0x61	; 97
    42f2:	da 4f       	sbci	r29, 0xFA	; 250
    42f4:	d9 82       	std	Y+1, r13	; 0x01
    42f6:	c8 82       	st	Y, r12
    42f8:	cf 59       	subi	r28, 0x9F	; 159
    42fa:	d5 40       	sbci	r29, 0x05	; 5
    42fc:	0f 2e       	mov	r0, r31
    42fe:	f3 ed       	ldi	r31, 0xD3	; 211
    4300:	cf 2e       	mov	r12, r31
    4302:	d1 2c       	mov	r13, r1
    4304:	f0 2d       	mov	r31, r0
    4306:	cf 55       	subi	r28, 0x5F	; 95
    4308:	da 4f       	sbci	r29, 0xFA	; 250
    430a:	d9 82       	std	Y+1, r13	; 0x01
    430c:	c8 82       	st	Y, r12
    430e:	c1 5a       	subi	r28, 0xA1	; 161
    4310:	d5 40       	sbci	r29, 0x05	; 5
    4312:	0f 2e       	mov	r0, r31
    4314:	f6 ed       	ldi	r31, 0xD6	; 214
    4316:	cf 2e       	mov	r12, r31
    4318:	d1 2c       	mov	r13, r1
    431a:	f0 2d       	mov	r31, r0
    431c:	cd 55       	subi	r28, 0x5D	; 93
    431e:	da 4f       	sbci	r29, 0xFA	; 250
    4320:	d9 82       	std	Y+1, r13	; 0x01
    4322:	c8 82       	st	Y, r12
    4324:	c3 5a       	subi	r28, 0xA3	; 163
    4326:	d5 40       	sbci	r29, 0x05	; 5
    4328:	0f 2e       	mov	r0, r31
    432a:	f9 ed       	ldi	r31, 0xD9	; 217
    432c:	cf 2e       	mov	r12, r31
    432e:	d1 2c       	mov	r13, r1
    4330:	f0 2d       	mov	r31, r0
    4332:	cb 55       	subi	r28, 0x5B	; 91
    4334:	da 4f       	sbci	r29, 0xFA	; 250
    4336:	d9 82       	std	Y+1, r13	; 0x01
    4338:	c8 82       	st	Y, r12
    433a:	c5 5a       	subi	r28, 0xA5	; 165
    433c:	d5 40       	sbci	r29, 0x05	; 5
    433e:	0f 2e       	mov	r0, r31
    4340:	fc ed       	ldi	r31, 0xDC	; 220
    4342:	cf 2e       	mov	r12, r31
    4344:	d1 2c       	mov	r13, r1
    4346:	f0 2d       	mov	r31, r0
    4348:	c9 55       	subi	r28, 0x59	; 89
    434a:	da 4f       	sbci	r29, 0xFA	; 250
    434c:	d9 82       	std	Y+1, r13	; 0x01
    434e:	c8 82       	st	Y, r12
    4350:	c7 5a       	subi	r28, 0xA7	; 167
    4352:	d5 40       	sbci	r29, 0x05	; 5
    4354:	0f 2e       	mov	r0, r31
    4356:	ff ed       	ldi	r31, 0xDF	; 223
    4358:	cf 2e       	mov	r12, r31
    435a:	d1 2c       	mov	r13, r1
    435c:	f0 2d       	mov	r31, r0
    435e:	c7 55       	subi	r28, 0x57	; 87
    4360:	da 4f       	sbci	r29, 0xFA	; 250
    4362:	d9 82       	std	Y+1, r13	; 0x01
    4364:	c8 82       	st	Y, r12
    4366:	c9 5a       	subi	r28, 0xA9	; 169
    4368:	d5 40       	sbci	r29, 0x05	; 5
    436a:	0f 2e       	mov	r0, r31
    436c:	f2 ee       	ldi	r31, 0xE2	; 226
    436e:	cf 2e       	mov	r12, r31
    4370:	d1 2c       	mov	r13, r1
    4372:	f0 2d       	mov	r31, r0
    4374:	c5 55       	subi	r28, 0x55	; 85
    4376:	da 4f       	sbci	r29, 0xFA	; 250
    4378:	d9 82       	std	Y+1, r13	; 0x01
    437a:	c8 82       	st	Y, r12
    437c:	cb 5a       	subi	r28, 0xAB	; 171
    437e:	d5 40       	sbci	r29, 0x05	; 5
    4380:	0f 2e       	mov	r0, r31
    4382:	f5 ee       	ldi	r31, 0xE5	; 229
    4384:	cf 2e       	mov	r12, r31
    4386:	d1 2c       	mov	r13, r1
    4388:	f0 2d       	mov	r31, r0
    438a:	c3 55       	subi	r28, 0x53	; 83
    438c:	da 4f       	sbci	r29, 0xFA	; 250
    438e:	d9 82       	std	Y+1, r13	; 0x01
    4390:	c8 82       	st	Y, r12
    4392:	cd 5a       	subi	r28, 0xAD	; 173
    4394:	d5 40       	sbci	r29, 0x05	; 5
    4396:	0f 2e       	mov	r0, r31
    4398:	f8 ee       	ldi	r31, 0xE8	; 232
    439a:	cf 2e       	mov	r12, r31
    439c:	d1 2c       	mov	r13, r1
    439e:	f0 2d       	mov	r31, r0
    43a0:	c1 55       	subi	r28, 0x51	; 81
    43a2:	da 4f       	sbci	r29, 0xFA	; 250
    43a4:	d9 82       	std	Y+1, r13	; 0x01
    43a6:	c8 82       	st	Y, r12
    43a8:	cf 5a       	subi	r28, 0xAF	; 175
    43aa:	d5 40       	sbci	r29, 0x05	; 5
    43ac:	0f 2e       	mov	r0, r31
    43ae:	fb ee       	ldi	r31, 0xEB	; 235
    43b0:	cf 2e       	mov	r12, r31
    43b2:	d1 2c       	mov	r13, r1
    43b4:	f0 2d       	mov	r31, r0
    43b6:	cf 54       	subi	r28, 0x4F	; 79
    43b8:	da 4f       	sbci	r29, 0xFA	; 250
    43ba:	d9 82       	std	Y+1, r13	; 0x01
    43bc:	c8 82       	st	Y, r12
    43be:	c1 5b       	subi	r28, 0xB1	; 177
    43c0:	d5 40       	sbci	r29, 0x05	; 5
    43c2:	0f 2e       	mov	r0, r31
    43c4:	fe ee       	ldi	r31, 0xEE	; 238
    43c6:	cf 2e       	mov	r12, r31
    43c8:	d1 2c       	mov	r13, r1
    43ca:	f0 2d       	mov	r31, r0
    43cc:	cd 54       	subi	r28, 0x4D	; 77
    43ce:	da 4f       	sbci	r29, 0xFA	; 250
    43d0:	d9 82       	std	Y+1, r13	; 0x01
    43d2:	c8 82       	st	Y, r12
    43d4:	c3 5b       	subi	r28, 0xB3	; 179
    43d6:	d5 40       	sbci	r29, 0x05	; 5
    43d8:	0f 2e       	mov	r0, r31
    43da:	f1 ef       	ldi	r31, 0xF1	; 241
    43dc:	cf 2e       	mov	r12, r31
    43de:	d1 2c       	mov	r13, r1
    43e0:	f0 2d       	mov	r31, r0
    43e2:	cb 54       	subi	r28, 0x4B	; 75
    43e4:	da 4f       	sbci	r29, 0xFA	; 250
    43e6:	d9 82       	std	Y+1, r13	; 0x01
    43e8:	c8 82       	st	Y, r12
    43ea:	c5 5b       	subi	r28, 0xB5	; 181
    43ec:	d5 40       	sbci	r29, 0x05	; 5
    43ee:	0f 2e       	mov	r0, r31
    43f0:	f4 ef       	ldi	r31, 0xF4	; 244
    43f2:	cf 2e       	mov	r12, r31
    43f4:	d1 2c       	mov	r13, r1
    43f6:	f0 2d       	mov	r31, r0
    43f8:	c9 54       	subi	r28, 0x49	; 73
    43fa:	da 4f       	sbci	r29, 0xFA	; 250
    43fc:	d9 82       	std	Y+1, r13	; 0x01
    43fe:	c8 82       	st	Y, r12
    4400:	c7 5b       	subi	r28, 0xB7	; 183
    4402:	d5 40       	sbci	r29, 0x05	; 5
    4404:	0f 2e       	mov	r0, r31
    4406:	f7 ef       	ldi	r31, 0xF7	; 247
    4408:	cf 2e       	mov	r12, r31
    440a:	d1 2c       	mov	r13, r1
    440c:	f0 2d       	mov	r31, r0
    440e:	c7 54       	subi	r28, 0x47	; 71
    4410:	da 4f       	sbci	r29, 0xFA	; 250
    4412:	d9 82       	std	Y+1, r13	; 0x01
    4414:	c8 82       	st	Y, r12
    4416:	c9 5b       	subi	r28, 0xB9	; 185
    4418:	d5 40       	sbci	r29, 0x05	; 5
    441a:	0f 2e       	mov	r0, r31
    441c:	fa ef       	ldi	r31, 0xFA	; 250
    441e:	cf 2e       	mov	r12, r31
    4420:	d1 2c       	mov	r13, r1
    4422:	f0 2d       	mov	r31, r0
    4424:	c5 54       	subi	r28, 0x45	; 69
    4426:	da 4f       	sbci	r29, 0xFA	; 250
    4428:	d9 82       	std	Y+1, r13	; 0x01
    442a:	c8 82       	st	Y, r12
    442c:	cb 5b       	subi	r28, 0xBB	; 187
    442e:	d5 40       	sbci	r29, 0x05	; 5
    4430:	0f 2e       	mov	r0, r31
    4432:	fd ef       	ldi	r31, 0xFD	; 253
    4434:	cf 2e       	mov	r12, r31
    4436:	d1 2c       	mov	r13, r1
    4438:	f0 2d       	mov	r31, r0
    443a:	c3 54       	subi	r28, 0x43	; 67
    443c:	da 4f       	sbci	r29, 0xFA	; 250
    443e:	d9 82       	std	Y+1, r13	; 0x01
    4440:	c8 82       	st	Y, r12
    4442:	cd 5b       	subi	r28, 0xBD	; 189
    4444:	d5 40       	sbci	r29, 0x05	; 5
    4446:	c1 2c       	mov	r12, r1
    4448:	dd 24       	eor	r13, r13
    444a:	d3 94       	inc	r13
    444c:	c1 54       	subi	r28, 0x41	; 65
    444e:	da 4f       	sbci	r29, 0xFA	; 250
    4450:	d9 82       	std	Y+1, r13	; 0x01
    4452:	c8 82       	st	Y, r12
    4454:	cf 5b       	subi	r28, 0xBF	; 191
    4456:	d5 40       	sbci	r29, 0x05	; 5
    4458:	0f 2e       	mov	r0, r31
    445a:	f3 e0       	ldi	r31, 0x03	; 3
    445c:	cf 2e       	mov	r12, r31
    445e:	dd 24       	eor	r13, r13
    4460:	d3 94       	inc	r13
    4462:	f0 2d       	mov	r31, r0
    4464:	cf 53       	subi	r28, 0x3F	; 63
    4466:	da 4f       	sbci	r29, 0xFA	; 250
    4468:	d9 82       	std	Y+1, r13	; 0x01
    446a:	c8 82       	st	Y, r12
    446c:	c1 5c       	subi	r28, 0xC1	; 193
    446e:	d5 40       	sbci	r29, 0x05	; 5
    4470:	0f 2e       	mov	r0, r31
    4472:	f6 e0       	ldi	r31, 0x06	; 6
    4474:	cf 2e       	mov	r12, r31
    4476:	dd 24       	eor	r13, r13
    4478:	d3 94       	inc	r13
    447a:	f0 2d       	mov	r31, r0
    447c:	cd 53       	subi	r28, 0x3D	; 61
    447e:	da 4f       	sbci	r29, 0xFA	; 250
    4480:	d9 82       	std	Y+1, r13	; 0x01
    4482:	c8 82       	st	Y, r12
    4484:	c3 5c       	subi	r28, 0xC3	; 195
    4486:	d5 40       	sbci	r29, 0x05	; 5
    4488:	0f 2e       	mov	r0, r31
    448a:	f9 e0       	ldi	r31, 0x09	; 9
    448c:	cf 2e       	mov	r12, r31
    448e:	dd 24       	eor	r13, r13
    4490:	d3 94       	inc	r13
    4492:	f0 2d       	mov	r31, r0
    4494:	cb 53       	subi	r28, 0x3B	; 59
    4496:	da 4f       	sbci	r29, 0xFA	; 250
    4498:	d9 82       	std	Y+1, r13	; 0x01
    449a:	c8 82       	st	Y, r12
    449c:	c5 5c       	subi	r28, 0xC5	; 197
    449e:	d5 40       	sbci	r29, 0x05	; 5
    44a0:	0f 2e       	mov	r0, r31
    44a2:	fc e0       	ldi	r31, 0x0C	; 12
    44a4:	cf 2e       	mov	r12, r31
    44a6:	dd 24       	eor	r13, r13
    44a8:	d3 94       	inc	r13
    44aa:	f0 2d       	mov	r31, r0
    44ac:	c9 53       	subi	r28, 0x39	; 57
    44ae:	da 4f       	sbci	r29, 0xFA	; 250
    44b0:	d9 82       	std	Y+1, r13	; 0x01
    44b2:	c8 82       	st	Y, r12
    44b4:	c7 5c       	subi	r28, 0xC7	; 199
    44b6:	d5 40       	sbci	r29, 0x05	; 5
    44b8:	0f 2e       	mov	r0, r31
    44ba:	ff e0       	ldi	r31, 0x0F	; 15
    44bc:	cf 2e       	mov	r12, r31
    44be:	dd 24       	eor	r13, r13
    44c0:	d3 94       	inc	r13
    44c2:	f0 2d       	mov	r31, r0
    44c4:	c7 53       	subi	r28, 0x37	; 55
    44c6:	da 4f       	sbci	r29, 0xFA	; 250
    44c8:	d9 82       	std	Y+1, r13	; 0x01
    44ca:	c8 82       	st	Y, r12
    44cc:	c9 5c       	subi	r28, 0xC9	; 201
    44ce:	d5 40       	sbci	r29, 0x05	; 5
    44d0:	0f 2e       	mov	r0, r31
    44d2:	f2 e1       	ldi	r31, 0x12	; 18
    44d4:	cf 2e       	mov	r12, r31
    44d6:	dd 24       	eor	r13, r13
    44d8:	d3 94       	inc	r13
    44da:	f0 2d       	mov	r31, r0
    44dc:	c5 53       	subi	r28, 0x35	; 53
    44de:	da 4f       	sbci	r29, 0xFA	; 250
    44e0:	d9 82       	std	Y+1, r13	; 0x01
    44e2:	c8 82       	st	Y, r12
    44e4:	cb 5c       	subi	r28, 0xCB	; 203
    44e6:	d5 40       	sbci	r29, 0x05	; 5
    44e8:	0f 2e       	mov	r0, r31
    44ea:	f5 e1       	ldi	r31, 0x15	; 21
    44ec:	cf 2e       	mov	r12, r31
    44ee:	dd 24       	eor	r13, r13
    44f0:	d3 94       	inc	r13
    44f2:	f0 2d       	mov	r31, r0
    44f4:	c3 53       	subi	r28, 0x33	; 51
    44f6:	da 4f       	sbci	r29, 0xFA	; 250
    44f8:	d9 82       	std	Y+1, r13	; 0x01
    44fa:	c8 82       	st	Y, r12
    44fc:	cd 5c       	subi	r28, 0xCD	; 205
    44fe:	d5 40       	sbci	r29, 0x05	; 5
    4500:	0f 2e       	mov	r0, r31
    4502:	f8 e1       	ldi	r31, 0x18	; 24
    4504:	cf 2e       	mov	r12, r31
    4506:	dd 24       	eor	r13, r13
    4508:	d3 94       	inc	r13
    450a:	f0 2d       	mov	r31, r0
    450c:	c1 53       	subi	r28, 0x31	; 49
    450e:	da 4f       	sbci	r29, 0xFA	; 250
    4510:	d9 82       	std	Y+1, r13	; 0x01
    4512:	c8 82       	st	Y, r12
    4514:	cf 5c       	subi	r28, 0xCF	; 207
    4516:	d5 40       	sbci	r29, 0x05	; 5
    4518:	0f 2e       	mov	r0, r31
    451a:	fb e1       	ldi	r31, 0x1B	; 27
    451c:	cf 2e       	mov	r12, r31
    451e:	dd 24       	eor	r13, r13
    4520:	d3 94       	inc	r13
    4522:	f0 2d       	mov	r31, r0
    4524:	cf 52       	subi	r28, 0x2F	; 47
    4526:	da 4f       	sbci	r29, 0xFA	; 250
    4528:	d9 82       	std	Y+1, r13	; 0x01
    452a:	c8 82       	st	Y, r12
    452c:	c1 5d       	subi	r28, 0xD1	; 209
    452e:	d5 40       	sbci	r29, 0x05	; 5
    4530:	0f 2e       	mov	r0, r31
    4532:	fe e1       	ldi	r31, 0x1E	; 30
    4534:	cf 2e       	mov	r12, r31
    4536:	dd 24       	eor	r13, r13
    4538:	d3 94       	inc	r13
    453a:	f0 2d       	mov	r31, r0
    453c:	cd 52       	subi	r28, 0x2D	; 45
    453e:	da 4f       	sbci	r29, 0xFA	; 250
    4540:	d9 82       	std	Y+1, r13	; 0x01
    4542:	c8 82       	st	Y, r12
    4544:	c3 5d       	subi	r28, 0xD3	; 211
    4546:	d5 40       	sbci	r29, 0x05	; 5
    4548:	0f 2e       	mov	r0, r31
    454a:	f1 e2       	ldi	r31, 0x21	; 33
    454c:	cf 2e       	mov	r12, r31
    454e:	dd 24       	eor	r13, r13
    4550:	d3 94       	inc	r13
    4552:	f0 2d       	mov	r31, r0
    4554:	cb 52       	subi	r28, 0x2B	; 43
    4556:	da 4f       	sbci	r29, 0xFA	; 250
    4558:	d9 82       	std	Y+1, r13	; 0x01
    455a:	c8 82       	st	Y, r12
    455c:	c5 5d       	subi	r28, 0xD5	; 213
    455e:	d5 40       	sbci	r29, 0x05	; 5
    4560:	0f 2e       	mov	r0, r31
    4562:	f4 e2       	ldi	r31, 0x24	; 36
    4564:	cf 2e       	mov	r12, r31
    4566:	dd 24       	eor	r13, r13
    4568:	d3 94       	inc	r13
    456a:	f0 2d       	mov	r31, r0
    456c:	c9 52       	subi	r28, 0x29	; 41
    456e:	da 4f       	sbci	r29, 0xFA	; 250
    4570:	d9 82       	std	Y+1, r13	; 0x01
    4572:	c8 82       	st	Y, r12
    4574:	c7 5d       	subi	r28, 0xD7	; 215
    4576:	d5 40       	sbci	r29, 0x05	; 5
    4578:	0f 2e       	mov	r0, r31
    457a:	f7 e2       	ldi	r31, 0x27	; 39
    457c:	cf 2e       	mov	r12, r31
    457e:	dd 24       	eor	r13, r13
    4580:	d3 94       	inc	r13
    4582:	f0 2d       	mov	r31, r0
    4584:	c7 52       	subi	r28, 0x27	; 39
    4586:	da 4f       	sbci	r29, 0xFA	; 250
    4588:	d9 82       	std	Y+1, r13	; 0x01
    458a:	c8 82       	st	Y, r12
    458c:	c9 5d       	subi	r28, 0xD9	; 217
    458e:	d5 40       	sbci	r29, 0x05	; 5
    4590:	0f 2e       	mov	r0, r31
    4592:	fa e2       	ldi	r31, 0x2A	; 42
    4594:	cf 2e       	mov	r12, r31
    4596:	dd 24       	eor	r13, r13
    4598:	d3 94       	inc	r13
    459a:	f0 2d       	mov	r31, r0
    459c:	c5 52       	subi	r28, 0x25	; 37
    459e:	da 4f       	sbci	r29, 0xFA	; 250
    45a0:	d9 82       	std	Y+1, r13	; 0x01
    45a2:	c8 82       	st	Y, r12
    45a4:	cb 5d       	subi	r28, 0xDB	; 219
    45a6:	d5 40       	sbci	r29, 0x05	; 5
    45a8:	0f 2e       	mov	r0, r31
    45aa:	fd e2       	ldi	r31, 0x2D	; 45
    45ac:	cf 2e       	mov	r12, r31
    45ae:	dd 24       	eor	r13, r13
    45b0:	d3 94       	inc	r13
    45b2:	f0 2d       	mov	r31, r0
    45b4:	c3 52       	subi	r28, 0x23	; 35
    45b6:	da 4f       	sbci	r29, 0xFA	; 250
    45b8:	d9 82       	std	Y+1, r13	; 0x01
    45ba:	c8 82       	st	Y, r12
    45bc:	cd 5d       	subi	r28, 0xDD	; 221
    45be:	d5 40       	sbci	r29, 0x05	; 5
    45c0:	0f 2e       	mov	r0, r31
    45c2:	f0 e3       	ldi	r31, 0x30	; 48
    45c4:	cf 2e       	mov	r12, r31
    45c6:	dd 24       	eor	r13, r13
    45c8:	d3 94       	inc	r13
    45ca:	f0 2d       	mov	r31, r0
    45cc:	c1 52       	subi	r28, 0x21	; 33
    45ce:	da 4f       	sbci	r29, 0xFA	; 250
    45d0:	d9 82       	std	Y+1, r13	; 0x01
    45d2:	c8 82       	st	Y, r12
    45d4:	cf 5d       	subi	r28, 0xDF	; 223
    45d6:	d5 40       	sbci	r29, 0x05	; 5
    45d8:	0f 2e       	mov	r0, r31
    45da:	f3 e3       	ldi	r31, 0x33	; 51
    45dc:	cf 2e       	mov	r12, r31
    45de:	dd 24       	eor	r13, r13
    45e0:	d3 94       	inc	r13
    45e2:	f0 2d       	mov	r31, r0
    45e4:	cf 51       	subi	r28, 0x1F	; 31
    45e6:	da 4f       	sbci	r29, 0xFA	; 250
    45e8:	d9 82       	std	Y+1, r13	; 0x01
    45ea:	c8 82       	st	Y, r12
    45ec:	c1 5e       	subi	r28, 0xE1	; 225
    45ee:	d5 40       	sbci	r29, 0x05	; 5
    45f0:	0f 2e       	mov	r0, r31
    45f2:	f6 e3       	ldi	r31, 0x36	; 54
    45f4:	cf 2e       	mov	r12, r31
    45f6:	dd 24       	eor	r13, r13
    45f8:	d3 94       	inc	r13
    45fa:	f0 2d       	mov	r31, r0
    45fc:	cd 51       	subi	r28, 0x1D	; 29
    45fe:	da 4f       	sbci	r29, 0xFA	; 250
    4600:	d9 82       	std	Y+1, r13	; 0x01
    4602:	c8 82       	st	Y, r12
    4604:	c3 5e       	subi	r28, 0xE3	; 227
    4606:	d5 40       	sbci	r29, 0x05	; 5
    4608:	0f 2e       	mov	r0, r31
    460a:	f9 e3       	ldi	r31, 0x39	; 57
    460c:	cf 2e       	mov	r12, r31
    460e:	dd 24       	eor	r13, r13
    4610:	d3 94       	inc	r13
    4612:	f0 2d       	mov	r31, r0
    4614:	cb 51       	subi	r28, 0x1B	; 27
    4616:	da 4f       	sbci	r29, 0xFA	; 250
    4618:	d9 82       	std	Y+1, r13	; 0x01
    461a:	c8 82       	st	Y, r12
    461c:	c5 5e       	subi	r28, 0xE5	; 229
    461e:	d5 40       	sbci	r29, 0x05	; 5
    4620:	0f 2e       	mov	r0, r31
    4622:	fc e3       	ldi	r31, 0x3C	; 60
    4624:	cf 2e       	mov	r12, r31
    4626:	dd 24       	eor	r13, r13
    4628:	d3 94       	inc	r13
    462a:	f0 2d       	mov	r31, r0
    462c:	c9 51       	subi	r28, 0x19	; 25
    462e:	da 4f       	sbci	r29, 0xFA	; 250
    4630:	d9 82       	std	Y+1, r13	; 0x01
    4632:	c8 82       	st	Y, r12
    4634:	c7 5e       	subi	r28, 0xE7	; 231
    4636:	d5 40       	sbci	r29, 0x05	; 5
    4638:	0f 2e       	mov	r0, r31
    463a:	ff e3       	ldi	r31, 0x3F	; 63
    463c:	cf 2e       	mov	r12, r31
    463e:	dd 24       	eor	r13, r13
    4640:	d3 94       	inc	r13
    4642:	f0 2d       	mov	r31, r0
    4644:	c7 51       	subi	r28, 0x17	; 23
    4646:	da 4f       	sbci	r29, 0xFA	; 250
    4648:	d9 82       	std	Y+1, r13	; 0x01
    464a:	c8 82       	st	Y, r12
    464c:	c9 5e       	subi	r28, 0xE9	; 233
    464e:	d5 40       	sbci	r29, 0x05	; 5
    4650:	0f 2e       	mov	r0, r31
    4652:	f2 e4       	ldi	r31, 0x42	; 66
    4654:	cf 2e       	mov	r12, r31
    4656:	dd 24       	eor	r13, r13
    4658:	d3 94       	inc	r13
    465a:	f0 2d       	mov	r31, r0
    465c:	c5 51       	subi	r28, 0x15	; 21
    465e:	da 4f       	sbci	r29, 0xFA	; 250
    4660:	d9 82       	std	Y+1, r13	; 0x01
    4662:	c8 82       	st	Y, r12
    4664:	cb 5e       	subi	r28, 0xEB	; 235
    4666:	d5 40       	sbci	r29, 0x05	; 5
    4668:	0f 2e       	mov	r0, r31
    466a:	f5 e4       	ldi	r31, 0x45	; 69
    466c:	cf 2e       	mov	r12, r31
    466e:	dd 24       	eor	r13, r13
    4670:	d3 94       	inc	r13
    4672:	f0 2d       	mov	r31, r0
    4674:	c3 51       	subi	r28, 0x13	; 19
    4676:	da 4f       	sbci	r29, 0xFA	; 250
    4678:	d9 82       	std	Y+1, r13	; 0x01
    467a:	c8 82       	st	Y, r12
    467c:	cd 5e       	subi	r28, 0xED	; 237
    467e:	d5 40       	sbci	r29, 0x05	; 5
    4680:	0f 2e       	mov	r0, r31
    4682:	f8 e4       	ldi	r31, 0x48	; 72
    4684:	cf 2e       	mov	r12, r31
    4686:	dd 24       	eor	r13, r13
    4688:	d3 94       	inc	r13
    468a:	f0 2d       	mov	r31, r0
    468c:	c1 51       	subi	r28, 0x11	; 17
    468e:	da 4f       	sbci	r29, 0xFA	; 250
    4690:	d9 82       	std	Y+1, r13	; 0x01
    4692:	c8 82       	st	Y, r12
    4694:	cf 5e       	subi	r28, 0xEF	; 239
    4696:	d5 40       	sbci	r29, 0x05	; 5
    4698:	0f 2e       	mov	r0, r31
    469a:	fb e4       	ldi	r31, 0x4B	; 75
    469c:	cf 2e       	mov	r12, r31
    469e:	dd 24       	eor	r13, r13
    46a0:	d3 94       	inc	r13
    46a2:	f0 2d       	mov	r31, r0
    46a4:	cf 50       	subi	r28, 0x0F	; 15
    46a6:	da 4f       	sbci	r29, 0xFA	; 250
    46a8:	d9 82       	std	Y+1, r13	; 0x01
    46aa:	c8 82       	st	Y, r12
    46ac:	c1 5f       	subi	r28, 0xF1	; 241
    46ae:	d5 40       	sbci	r29, 0x05	; 5
    46b0:	0f 2e       	mov	r0, r31
    46b2:	fe e4       	ldi	r31, 0x4E	; 78
    46b4:	cf 2e       	mov	r12, r31
    46b6:	dd 24       	eor	r13, r13
    46b8:	d3 94       	inc	r13
    46ba:	f0 2d       	mov	r31, r0
    46bc:	cd 50       	subi	r28, 0x0D	; 13
    46be:	da 4f       	sbci	r29, 0xFA	; 250
    46c0:	d9 82       	std	Y+1, r13	; 0x01
    46c2:	c8 82       	st	Y, r12
    46c4:	c3 5f       	subi	r28, 0xF3	; 243
    46c6:	d5 40       	sbci	r29, 0x05	; 5
    46c8:	0f 2e       	mov	r0, r31
    46ca:	f1 e5       	ldi	r31, 0x51	; 81
    46cc:	cf 2e       	mov	r12, r31
    46ce:	dd 24       	eor	r13, r13
    46d0:	d3 94       	inc	r13
    46d2:	f0 2d       	mov	r31, r0
    46d4:	cb 50       	subi	r28, 0x0B	; 11
    46d6:	da 4f       	sbci	r29, 0xFA	; 250
    46d8:	d9 82       	std	Y+1, r13	; 0x01
    46da:	c8 82       	st	Y, r12
    46dc:	c5 5f       	subi	r28, 0xF5	; 245
    46de:	d5 40       	sbci	r29, 0x05	; 5
    46e0:	0f 2e       	mov	r0, r31
    46e2:	f4 e5       	ldi	r31, 0x54	; 84
    46e4:	cf 2e       	mov	r12, r31
    46e6:	dd 24       	eor	r13, r13
    46e8:	d3 94       	inc	r13
    46ea:	f0 2d       	mov	r31, r0
    46ec:	c9 50       	subi	r28, 0x09	; 9
    46ee:	da 4f       	sbci	r29, 0xFA	; 250
    46f0:	d9 82       	std	Y+1, r13	; 0x01
    46f2:	c8 82       	st	Y, r12
    46f4:	c7 5f       	subi	r28, 0xF7	; 247
    46f6:	d5 40       	sbci	r29, 0x05	; 5
    46f8:	0f 2e       	mov	r0, r31
    46fa:	f7 e5       	ldi	r31, 0x57	; 87
    46fc:	cf 2e       	mov	r12, r31
    46fe:	dd 24       	eor	r13, r13
    4700:	d3 94       	inc	r13
    4702:	f0 2d       	mov	r31, r0
    4704:	c7 50       	subi	r28, 0x07	; 7
    4706:	da 4f       	sbci	r29, 0xFA	; 250
    4708:	d9 82       	std	Y+1, r13	; 0x01
    470a:	c8 82       	st	Y, r12
    470c:	c9 5f       	subi	r28, 0xF9	; 249
    470e:	d5 40       	sbci	r29, 0x05	; 5
    4710:	0f 2e       	mov	r0, r31
    4712:	fa e5       	ldi	r31, 0x5A	; 90
    4714:	cf 2e       	mov	r12, r31
    4716:	dd 24       	eor	r13, r13
    4718:	d3 94       	inc	r13
    471a:	f0 2d       	mov	r31, r0
    471c:	c5 50       	subi	r28, 0x05	; 5
    471e:	da 4f       	sbci	r29, 0xFA	; 250
    4720:	d9 82       	std	Y+1, r13	; 0x01
    4722:	c8 82       	st	Y, r12
    4724:	cb 5f       	subi	r28, 0xFB	; 251
    4726:	d5 40       	sbci	r29, 0x05	; 5
    4728:	0f 2e       	mov	r0, r31
    472a:	fd e5       	ldi	r31, 0x5D	; 93
    472c:	cf 2e       	mov	r12, r31
    472e:	dd 24       	eor	r13, r13
    4730:	d3 94       	inc	r13
    4732:	f0 2d       	mov	r31, r0
    4734:	c3 50       	subi	r28, 0x03	; 3
    4736:	da 4f       	sbci	r29, 0xFA	; 250
    4738:	d9 82       	std	Y+1, r13	; 0x01
    473a:	c8 82       	st	Y, r12
    473c:	cd 5f       	subi	r28, 0xFD	; 253
    473e:	d5 40       	sbci	r29, 0x05	; 5
    4740:	0f 2e       	mov	r0, r31
    4742:	f0 e6       	ldi	r31, 0x60	; 96
    4744:	cf 2e       	mov	r12, r31
    4746:	dd 24       	eor	r13, r13
    4748:	d3 94       	inc	r13
    474a:	f0 2d       	mov	r31, r0
    474c:	c1 50       	subi	r28, 0x01	; 1
    474e:	da 4f       	sbci	r29, 0xFA	; 250
    4750:	d9 82       	std	Y+1, r13	; 0x01
    4752:	c8 82       	st	Y, r12
    4754:	cf 5f       	subi	r28, 0xFF	; 255
    4756:	d5 40       	sbci	r29, 0x05	; 5
    4758:	0f 2e       	mov	r0, r31
    475a:	f3 e6       	ldi	r31, 0x63	; 99
    475c:	cf 2e       	mov	r12, r31
    475e:	dd 24       	eor	r13, r13
    4760:	d3 94       	inc	r13
    4762:	f0 2d       	mov	r31, r0
    4764:	cf 5f       	subi	r28, 0xFF	; 255
    4766:	d9 4f       	sbci	r29, 0xF9	; 249
    4768:	d9 82       	std	Y+1, r13	; 0x01
    476a:	c8 82       	st	Y, r12
    476c:	c1 50       	subi	r28, 0x01	; 1
    476e:	d6 40       	sbci	r29, 0x06	; 6
    4770:	0f 2e       	mov	r0, r31
    4772:	f6 e6       	ldi	r31, 0x66	; 102
    4774:	cf 2e       	mov	r12, r31
    4776:	dd 24       	eor	r13, r13
    4778:	d3 94       	inc	r13
    477a:	f0 2d       	mov	r31, r0
    477c:	cd 5f       	subi	r28, 0xFD	; 253
    477e:	d9 4f       	sbci	r29, 0xF9	; 249
    4780:	d9 82       	std	Y+1, r13	; 0x01
    4782:	c8 82       	st	Y, r12
    4784:	c3 50       	subi	r28, 0x03	; 3
    4786:	d6 40       	sbci	r29, 0x06	; 6
    4788:	0f 2e       	mov	r0, r31
    478a:	f9 e6       	ldi	r31, 0x69	; 105
    478c:	cf 2e       	mov	r12, r31
    478e:	dd 24       	eor	r13, r13
    4790:	d3 94       	inc	r13
    4792:	f0 2d       	mov	r31, r0
    4794:	cb 5f       	subi	r28, 0xFB	; 251
    4796:	d9 4f       	sbci	r29, 0xF9	; 249
    4798:	d9 82       	std	Y+1, r13	; 0x01
    479a:	c8 82       	st	Y, r12
    479c:	c5 50       	subi	r28, 0x05	; 5
    479e:	d6 40       	sbci	r29, 0x06	; 6
    47a0:	0f 2e       	mov	r0, r31
    47a2:	fc e6       	ldi	r31, 0x6C	; 108
    47a4:	cf 2e       	mov	r12, r31
    47a6:	dd 24       	eor	r13, r13
    47a8:	d3 94       	inc	r13
    47aa:	f0 2d       	mov	r31, r0
    47ac:	c9 5f       	subi	r28, 0xF9	; 249
    47ae:	d9 4f       	sbci	r29, 0xF9	; 249
    47b0:	d9 82       	std	Y+1, r13	; 0x01
    47b2:	c8 82       	st	Y, r12
    47b4:	c7 50       	subi	r28, 0x07	; 7
    47b6:	d6 40       	sbci	r29, 0x06	; 6
    47b8:	0f 2e       	mov	r0, r31
    47ba:	ff e6       	ldi	r31, 0x6F	; 111
    47bc:	cf 2e       	mov	r12, r31
    47be:	dd 24       	eor	r13, r13
    47c0:	d3 94       	inc	r13
    47c2:	f0 2d       	mov	r31, r0
    47c4:	c7 5f       	subi	r28, 0xF7	; 247
    47c6:	d9 4f       	sbci	r29, 0xF9	; 249
    47c8:	d9 82       	std	Y+1, r13	; 0x01
    47ca:	c8 82       	st	Y, r12
    47cc:	c9 50       	subi	r28, 0x09	; 9
    47ce:	d6 40       	sbci	r29, 0x06	; 6
    47d0:	0f 2e       	mov	r0, r31
    47d2:	f2 e7       	ldi	r31, 0x72	; 114
    47d4:	cf 2e       	mov	r12, r31
    47d6:	dd 24       	eor	r13, r13
    47d8:	d3 94       	inc	r13
    47da:	f0 2d       	mov	r31, r0
    47dc:	c5 5f       	subi	r28, 0xF5	; 245
    47de:	d9 4f       	sbci	r29, 0xF9	; 249
    47e0:	d9 82       	std	Y+1, r13	; 0x01
    47e2:	c8 82       	st	Y, r12
    47e4:	cb 50       	subi	r28, 0x0B	; 11
    47e6:	d6 40       	sbci	r29, 0x06	; 6
    47e8:	0f 2e       	mov	r0, r31
    47ea:	f5 e7       	ldi	r31, 0x75	; 117
    47ec:	cf 2e       	mov	r12, r31
    47ee:	dd 24       	eor	r13, r13
    47f0:	d3 94       	inc	r13
    47f2:	f0 2d       	mov	r31, r0
    47f4:	c3 5f       	subi	r28, 0xF3	; 243
    47f6:	d9 4f       	sbci	r29, 0xF9	; 249
    47f8:	d9 82       	std	Y+1, r13	; 0x01
    47fa:	c8 82       	st	Y, r12
    47fc:	cd 50       	subi	r28, 0x0D	; 13
    47fe:	d6 40       	sbci	r29, 0x06	; 6
    4800:	0f 2e       	mov	r0, r31
    4802:	f8 e7       	ldi	r31, 0x78	; 120
    4804:	cf 2e       	mov	r12, r31
    4806:	dd 24       	eor	r13, r13
    4808:	d3 94       	inc	r13
    480a:	f0 2d       	mov	r31, r0
    480c:	c1 5f       	subi	r28, 0xF1	; 241
    480e:	d9 4f       	sbci	r29, 0xF9	; 249
    4810:	d9 82       	std	Y+1, r13	; 0x01
    4812:	c8 82       	st	Y, r12
    4814:	cf 50       	subi	r28, 0x0F	; 15
    4816:	d6 40       	sbci	r29, 0x06	; 6
    4818:	0f 2e       	mov	r0, r31
    481a:	fb e7       	ldi	r31, 0x7B	; 123
    481c:	cf 2e       	mov	r12, r31
    481e:	dd 24       	eor	r13, r13
    4820:	d3 94       	inc	r13
    4822:	f0 2d       	mov	r31, r0
    4824:	cf 5e       	subi	r28, 0xEF	; 239
    4826:	d9 4f       	sbci	r29, 0xF9	; 249
    4828:	d9 82       	std	Y+1, r13	; 0x01
    482a:	c8 82       	st	Y, r12
    482c:	c1 51       	subi	r28, 0x11	; 17
    482e:	d6 40       	sbci	r29, 0x06	; 6
    4830:	0f 2e       	mov	r0, r31
    4832:	fe e7       	ldi	r31, 0x7E	; 126
    4834:	cf 2e       	mov	r12, r31
    4836:	dd 24       	eor	r13, r13
    4838:	d3 94       	inc	r13
    483a:	f0 2d       	mov	r31, r0
    483c:	cd 5e       	subi	r28, 0xED	; 237
    483e:	d9 4f       	sbci	r29, 0xF9	; 249
    4840:	d9 82       	std	Y+1, r13	; 0x01
    4842:	c8 82       	st	Y, r12
    4844:	c3 51       	subi	r28, 0x13	; 19
    4846:	d6 40       	sbci	r29, 0x06	; 6
    4848:	0f 2e       	mov	r0, r31
    484a:	f1 e8       	ldi	r31, 0x81	; 129
    484c:	cf 2e       	mov	r12, r31
    484e:	dd 24       	eor	r13, r13
    4850:	d3 94       	inc	r13
    4852:	f0 2d       	mov	r31, r0
    4854:	cb 5e       	subi	r28, 0xEB	; 235
    4856:	d9 4f       	sbci	r29, 0xF9	; 249
    4858:	d9 82       	std	Y+1, r13	; 0x01
    485a:	c8 82       	st	Y, r12
    485c:	c5 51       	subi	r28, 0x15	; 21
    485e:	d6 40       	sbci	r29, 0x06	; 6
    4860:	0f 2e       	mov	r0, r31
    4862:	f4 e8       	ldi	r31, 0x84	; 132
    4864:	cf 2e       	mov	r12, r31
    4866:	dd 24       	eor	r13, r13
    4868:	d3 94       	inc	r13
    486a:	f0 2d       	mov	r31, r0
    486c:	c9 5e       	subi	r28, 0xE9	; 233
    486e:	d9 4f       	sbci	r29, 0xF9	; 249
    4870:	d9 82       	std	Y+1, r13	; 0x01
    4872:	c8 82       	st	Y, r12
    4874:	c7 51       	subi	r28, 0x17	; 23
    4876:	d6 40       	sbci	r29, 0x06	; 6
    4878:	0f 2e       	mov	r0, r31
    487a:	f9 e4       	ldi	r31, 0x49	; 73
    487c:	cf 2e       	mov	r12, r31
    487e:	fb e0       	ldi	r31, 0x0B	; 11
    4880:	df 2e       	mov	r13, r31
    4882:	f0 2d       	mov	r31, r0
    4884:	c7 5e       	subi	r28, 0xE7	; 231
    4886:	d9 4f       	sbci	r29, 0xF9	; 249
    4888:	d9 82       	std	Y+1, r13	; 0x01
    488a:	c8 82       	st	Y, r12
    488c:	c9 51       	subi	r28, 0x19	; 25
    488e:	d6 40       	sbci	r29, 0x06	; 6
    4890:	0f 2e       	mov	r0, r31
    4892:	fe ea       	ldi	r31, 0xAE	; 174
    4894:	cf 2e       	mov	r12, r31
    4896:	f7 e0       	ldi	r31, 0x07	; 7
    4898:	df 2e       	mov	r13, r31
    489a:	f0 2d       	mov	r31, r0
    489c:	c5 5e       	subi	r28, 0xE5	; 229
    489e:	d9 4f       	sbci	r29, 0xF9	; 249
    48a0:	d9 82       	std	Y+1, r13	; 0x01
    48a2:	c8 82       	st	Y, r12
    48a4:	cb 51       	subi	r28, 0x1B	; 27
    48a6:	d6 40       	sbci	r29, 0x06	; 6
    48a8:	0f 2e       	mov	r0, r31
    48aa:	fc e6       	ldi	r31, 0x6C	; 108
    48ac:	cf 2e       	mov	r12, r31
    48ae:	f6 e0       	ldi	r31, 0x06	; 6
    48b0:	df 2e       	mov	r13, r31
    48b2:	f0 2d       	mov	r31, r0
    48b4:	c3 5e       	subi	r28, 0xE3	; 227
    48b6:	d9 4f       	sbci	r29, 0xF9	; 249
    48b8:	d9 82       	std	Y+1, r13	; 0x01
    48ba:	c8 82       	st	Y, r12
    48bc:	cd 51       	subi	r28, 0x1D	; 29
    48be:	d6 40       	sbci	r29, 0x06	; 6
    48c0:	0f 2e       	mov	r0, r31
    48c2:	f6 eb       	ldi	r31, 0xB6	; 182
    48c4:	cf 2e       	mov	r12, r31
    48c6:	f5 e0       	ldi	r31, 0x05	; 5
    48c8:	df 2e       	mov	r13, r31
    48ca:	f0 2d       	mov	r31, r0
    48cc:	c1 5e       	subi	r28, 0xE1	; 225
    48ce:	d9 4f       	sbci	r29, 0xF9	; 249
    48d0:	d9 82       	std	Y+1, r13	; 0x01
    48d2:	c8 82       	st	Y, r12
    48d4:	cf 51       	subi	r28, 0x1F	; 31
    48d6:	d6 40       	sbci	r29, 0x06	; 6
    48d8:	0f 2e       	mov	r0, r31
    48da:	fa e3       	ldi	r31, 0x3A	; 58
    48dc:	cf 2e       	mov	r12, r31
    48de:	f5 e0       	ldi	r31, 0x05	; 5
    48e0:	df 2e       	mov	r13, r31
    48e2:	f0 2d       	mov	r31, r0
    48e4:	cf 5d       	subi	r28, 0xDF	; 223
    48e6:	d9 4f       	sbci	r29, 0xF9	; 249
    48e8:	d9 82       	std	Y+1, r13	; 0x01
    48ea:	c8 82       	st	Y, r12
    48ec:	c1 52       	subi	r28, 0x21	; 33
    48ee:	d6 40       	sbci	r29, 0x06	; 6
    48f0:	0f 2e       	mov	r0, r31
    48f2:	f0 ee       	ldi	r31, 0xE0	; 224
    48f4:	cf 2e       	mov	r12, r31
    48f6:	f4 e0       	ldi	r31, 0x04	; 4
    48f8:	df 2e       	mov	r13, r31
    48fa:	f0 2d       	mov	r31, r0
    48fc:	cd 5d       	subi	r28, 0xDD	; 221
    48fe:	d9 4f       	sbci	r29, 0xF9	; 249
    4900:	d9 82       	std	Y+1, r13	; 0x01
    4902:	c8 82       	st	Y, r12
    4904:	c3 52       	subi	r28, 0x23	; 35
    4906:	d6 40       	sbci	r29, 0x06	; 6
    4908:	0f 2e       	mov	r0, r31
    490a:	f9 e9       	ldi	r31, 0x99	; 153
    490c:	cf 2e       	mov	r12, r31
    490e:	f4 e0       	ldi	r31, 0x04	; 4
    4910:	df 2e       	mov	r13, r31
    4912:	f0 2d       	mov	r31, r0
    4914:	cb 5d       	subi	r28, 0xDB	; 219
    4916:	d9 4f       	sbci	r29, 0xF9	; 249
    4918:	d9 82       	std	Y+1, r13	; 0x01
    491a:	c8 82       	st	Y, r12
    491c:	c5 52       	subi	r28, 0x25	; 37
    491e:	d6 40       	sbci	r29, 0x06	; 6
    4920:	0f 2e       	mov	r0, r31
    4922:	ff e5       	ldi	r31, 0x5F	; 95
    4924:	cf 2e       	mov	r12, r31
    4926:	f4 e0       	ldi	r31, 0x04	; 4
    4928:	df 2e       	mov	r13, r31
    492a:	f0 2d       	mov	r31, r0
    492c:	c9 5d       	subi	r28, 0xD9	; 217
    492e:	d9 4f       	sbci	r29, 0xF9	; 249
    4930:	d9 82       	std	Y+1, r13	; 0x01
    4932:	c8 82       	st	Y, r12
    4934:	c7 52       	subi	r28, 0x27	; 39
    4936:	d6 40       	sbci	r29, 0x06	; 6
    4938:	0f 2e       	mov	r0, r31
    493a:	ff e2       	ldi	r31, 0x2F	; 47
    493c:	cf 2e       	mov	r12, r31
    493e:	f4 e0       	ldi	r31, 0x04	; 4
    4940:	df 2e       	mov	r13, r31
    4942:	f0 2d       	mov	r31, r0
    4944:	c7 5d       	subi	r28, 0xD7	; 215
    4946:	d9 4f       	sbci	r29, 0xF9	; 249
    4948:	d9 82       	std	Y+1, r13	; 0x01
    494a:	c8 82       	st	Y, r12
    494c:	c9 52       	subi	r28, 0x29	; 41
    494e:	d6 40       	sbci	r29, 0x06	; 6
    4950:	0f 2e       	mov	r0, r31
    4952:	f6 e0       	ldi	r31, 0x06	; 6
    4954:	cf 2e       	mov	r12, r31
    4956:	f4 e0       	ldi	r31, 0x04	; 4
    4958:	df 2e       	mov	r13, r31
    495a:	f0 2d       	mov	r31, r0
    495c:	c5 5d       	subi	r28, 0xD5	; 213
    495e:	d9 4f       	sbci	r29, 0xF9	; 249
    4960:	d9 82       	std	Y+1, r13	; 0x01
    4962:	c8 82       	st	Y, r12
    4964:	cb 52       	subi	r28, 0x2B	; 43
    4966:	d6 40       	sbci	r29, 0x06	; 6
    4968:	0f 2e       	mov	r0, r31
    496a:	f3 ee       	ldi	r31, 0xE3	; 227
    496c:	cf 2e       	mov	r12, r31
    496e:	f3 e0       	ldi	r31, 0x03	; 3
    4970:	df 2e       	mov	r13, r31
    4972:	f0 2d       	mov	r31, r0
    4974:	c3 5d       	subi	r28, 0xD3	; 211
    4976:	d9 4f       	sbci	r29, 0xF9	; 249
    4978:	d9 82       	std	Y+1, r13	; 0x01
    497a:	c8 82       	st	Y, r12
    497c:	cd 52       	subi	r28, 0x2D	; 45
    497e:	d6 40       	sbci	r29, 0x06	; 6
    4980:	0f 2e       	mov	r0, r31
    4982:	f4 ec       	ldi	r31, 0xC4	; 196
    4984:	cf 2e       	mov	r12, r31
    4986:	f3 e0       	ldi	r31, 0x03	; 3
    4988:	df 2e       	mov	r13, r31
    498a:	f0 2d       	mov	r31, r0
    498c:	c1 5d       	subi	r28, 0xD1	; 209
    498e:	d9 4f       	sbci	r29, 0xF9	; 249
    4990:	d9 82       	std	Y+1, r13	; 0x01
    4992:	c8 82       	st	Y, r12
    4994:	cf 52       	subi	r28, 0x2F	; 47
    4996:	d6 40       	sbci	r29, 0x06	; 6
    4998:	0f 2e       	mov	r0, r31
    499a:	f8 ea       	ldi	r31, 0xA8	; 168
    499c:	cf 2e       	mov	r12, r31
    499e:	f3 e0       	ldi	r31, 0x03	; 3
    49a0:	df 2e       	mov	r13, r31
    49a2:	f0 2d       	mov	r31, r0
    49a4:	cf 5c       	subi	r28, 0xCF	; 207
    49a6:	d9 4f       	sbci	r29, 0xF9	; 249
    49a8:	d9 82       	std	Y+1, r13	; 0x01
    49aa:	c8 82       	st	Y, r12
    49ac:	c1 53       	subi	r28, 0x31	; 49
    49ae:	d6 40       	sbci	r29, 0x06	; 6
    49b0:	0f 2e       	mov	r0, r31
    49b2:	ff e8       	ldi	r31, 0x8F	; 143
    49b4:	cf 2e       	mov	r12, r31
    49b6:	f3 e0       	ldi	r31, 0x03	; 3
    49b8:	df 2e       	mov	r13, r31
    49ba:	f0 2d       	mov	r31, r0
    49bc:	cd 5c       	subi	r28, 0xCD	; 205
    49be:	d9 4f       	sbci	r29, 0xF9	; 249
    49c0:	d9 82       	std	Y+1, r13	; 0x01
    49c2:	c8 82       	st	Y, r12
    49c4:	c3 53       	subi	r28, 0x33	; 51
    49c6:	d6 40       	sbci	r29, 0x06	; 6
    49c8:	0f 2e       	mov	r0, r31
    49ca:	f8 e7       	ldi	r31, 0x78	; 120
    49cc:	cf 2e       	mov	r12, r31
    49ce:	f3 e0       	ldi	r31, 0x03	; 3
    49d0:	df 2e       	mov	r13, r31
    49d2:	f0 2d       	mov	r31, r0
    49d4:	cb 5c       	subi	r28, 0xCB	; 203
    49d6:	d9 4f       	sbci	r29, 0xF9	; 249
    49d8:	d9 82       	std	Y+1, r13	; 0x01
    49da:	c8 82       	st	Y, r12
    49dc:	c5 53       	subi	r28, 0x35	; 53
    49de:	d6 40       	sbci	r29, 0x06	; 6
    49e0:	0f 2e       	mov	r0, r31
    49e2:	f4 e6       	ldi	r31, 0x64	; 100
    49e4:	cf 2e       	mov	r12, r31
    49e6:	f3 e0       	ldi	r31, 0x03	; 3
    49e8:	df 2e       	mov	r13, r31
    49ea:	f0 2d       	mov	r31, r0
    49ec:	c9 5c       	subi	r28, 0xC9	; 201
    49ee:	d9 4f       	sbci	r29, 0xF9	; 249
    49f0:	d9 82       	std	Y+1, r13	; 0x01
    49f2:	c8 82       	st	Y, r12
    49f4:	c7 53       	subi	r28, 0x37	; 55
    49f6:	d6 40       	sbci	r29, 0x06	; 6
    49f8:	0f 2e       	mov	r0, r31
    49fa:	f1 e5       	ldi	r31, 0x51	; 81
    49fc:	cf 2e       	mov	r12, r31
    49fe:	f3 e0       	ldi	r31, 0x03	; 3
    4a00:	df 2e       	mov	r13, r31
    4a02:	f0 2d       	mov	r31, r0
    4a04:	c7 5c       	subi	r28, 0xC7	; 199
    4a06:	d9 4f       	sbci	r29, 0xF9	; 249
    4a08:	d9 82       	std	Y+1, r13	; 0x01
    4a0a:	c8 82       	st	Y, r12
    4a0c:	c9 53       	subi	r28, 0x39	; 57
    4a0e:	d6 40       	sbci	r29, 0x06	; 6
    4a10:	0f 2e       	mov	r0, r31
    4a12:	f0 e4       	ldi	r31, 0x40	; 64
    4a14:	cf 2e       	mov	r12, r31
    4a16:	f3 e0       	ldi	r31, 0x03	; 3
    4a18:	df 2e       	mov	r13, r31
    4a1a:	f0 2d       	mov	r31, r0
    4a1c:	c5 5c       	subi	r28, 0xC5	; 197
    4a1e:	d9 4f       	sbci	r29, 0xF9	; 249
    4a20:	d9 82       	std	Y+1, r13	; 0x01
    4a22:	c8 82       	st	Y, r12
    4a24:	cb 53       	subi	r28, 0x3B	; 59
    4a26:	d6 40       	sbci	r29, 0x06	; 6
    4a28:	0f 2e       	mov	r0, r31
    4a2a:	f0 e3       	ldi	r31, 0x30	; 48
    4a2c:	cf 2e       	mov	r12, r31
    4a2e:	f3 e0       	ldi	r31, 0x03	; 3
    4a30:	df 2e       	mov	r13, r31
    4a32:	f0 2d       	mov	r31, r0
    4a34:	c3 5c       	subi	r28, 0xC3	; 195
    4a36:	d9 4f       	sbci	r29, 0xF9	; 249
    4a38:	d9 82       	std	Y+1, r13	; 0x01
    4a3a:	c8 82       	st	Y, r12
    4a3c:	cd 53       	subi	r28, 0x3D	; 61
    4a3e:	d6 40       	sbci	r29, 0x06	; 6
    4a40:	0f 2e       	mov	r0, r31
    4a42:	f1 e2       	ldi	r31, 0x21	; 33
    4a44:	cf 2e       	mov	r12, r31
    4a46:	f3 e0       	ldi	r31, 0x03	; 3
    4a48:	df 2e       	mov	r13, r31
    4a4a:	f0 2d       	mov	r31, r0
    4a4c:	c1 5c       	subi	r28, 0xC1	; 193
    4a4e:	d9 4f       	sbci	r29, 0xF9	; 249
    4a50:	d9 82       	std	Y+1, r13	; 0x01
    4a52:	c8 82       	st	Y, r12
    4a54:	cf 53       	subi	r28, 0x3F	; 63
    4a56:	d6 40       	sbci	r29, 0x06	; 6
    4a58:	0f 2e       	mov	r0, r31
    4a5a:	f3 e1       	ldi	r31, 0x13	; 19
    4a5c:	cf 2e       	mov	r12, r31
    4a5e:	f3 e0       	ldi	r31, 0x03	; 3
    4a60:	df 2e       	mov	r13, r31
    4a62:	f0 2d       	mov	r31, r0
    4a64:	cf 5b       	subi	r28, 0xBF	; 191
    4a66:	d9 4f       	sbci	r29, 0xF9	; 249
    4a68:	d9 82       	std	Y+1, r13	; 0x01
    4a6a:	c8 82       	st	Y, r12
    4a6c:	c1 54       	subi	r28, 0x41	; 65
    4a6e:	d6 40       	sbci	r29, 0x06	; 6
    4a70:	0f 2e       	mov	r0, r31
    4a72:	f6 e0       	ldi	r31, 0x06	; 6
    4a74:	cf 2e       	mov	r12, r31
    4a76:	f3 e0       	ldi	r31, 0x03	; 3
    4a78:	df 2e       	mov	r13, r31
    4a7a:	f0 2d       	mov	r31, r0
    4a7c:	cd 5b       	subi	r28, 0xBD	; 189
    4a7e:	d9 4f       	sbci	r29, 0xF9	; 249
    4a80:	d9 82       	std	Y+1, r13	; 0x01
    4a82:	c8 82       	st	Y, r12
    4a84:	c3 54       	subi	r28, 0x43	; 67
    4a86:	d6 40       	sbci	r29, 0x06	; 6
    4a88:	0f 2e       	mov	r0, r31
    4a8a:	fa ef       	ldi	r31, 0xFA	; 250
    4a8c:	cf 2e       	mov	r12, r31
    4a8e:	f2 e0       	ldi	r31, 0x02	; 2
    4a90:	df 2e       	mov	r13, r31
    4a92:	f0 2d       	mov	r31, r0
    4a94:	cb 5b       	subi	r28, 0xBB	; 187
    4a96:	d9 4f       	sbci	r29, 0xF9	; 249
    4a98:	d9 82       	std	Y+1, r13	; 0x01
    4a9a:	c8 82       	st	Y, r12
    4a9c:	c5 54       	subi	r28, 0x45	; 69
    4a9e:	d6 40       	sbci	r29, 0x06	; 6
    4aa0:	0f 2e       	mov	r0, r31
    4aa2:	fe ee       	ldi	r31, 0xEE	; 238
    4aa4:	cf 2e       	mov	r12, r31
    4aa6:	f2 e0       	ldi	r31, 0x02	; 2
    4aa8:	df 2e       	mov	r13, r31
    4aaa:	f0 2d       	mov	r31, r0
    4aac:	c9 5b       	subi	r28, 0xB9	; 185
    4aae:	d9 4f       	sbci	r29, 0xF9	; 249
    4ab0:	d9 82       	std	Y+1, r13	; 0x01
    4ab2:	c8 82       	st	Y, r12
    4ab4:	c7 54       	subi	r28, 0x47	; 71
    4ab6:	d6 40       	sbci	r29, 0x06	; 6
    4ab8:	0f 2e       	mov	r0, r31
    4aba:	f3 ee       	ldi	r31, 0xE3	; 227
    4abc:	cf 2e       	mov	r12, r31
    4abe:	f2 e0       	ldi	r31, 0x02	; 2
    4ac0:	df 2e       	mov	r13, r31
    4ac2:	f0 2d       	mov	r31, r0
    4ac4:	c7 5b       	subi	r28, 0xB7	; 183
    4ac6:	d9 4f       	sbci	r29, 0xF9	; 249
    4ac8:	d9 82       	std	Y+1, r13	; 0x01
    4aca:	c8 82       	st	Y, r12
    4acc:	c9 54       	subi	r28, 0x49	; 73
    4ace:	d6 40       	sbci	r29, 0x06	; 6
    4ad0:	0f 2e       	mov	r0, r31
    4ad2:	f9 ed       	ldi	r31, 0xD9	; 217
    4ad4:	cf 2e       	mov	r12, r31
    4ad6:	f2 e0       	ldi	r31, 0x02	; 2
    4ad8:	df 2e       	mov	r13, r31
    4ada:	f0 2d       	mov	r31, r0
    4adc:	c5 5b       	subi	r28, 0xB5	; 181
    4ade:	d9 4f       	sbci	r29, 0xF9	; 249
    4ae0:	d9 82       	std	Y+1, r13	; 0x01
    4ae2:	c8 82       	st	Y, r12
    4ae4:	cb 54       	subi	r28, 0x4B	; 75
    4ae6:	d6 40       	sbci	r29, 0x06	; 6
    4ae8:	0f 2e       	mov	r0, r31
    4aea:	ff ec       	ldi	r31, 0xCF	; 207
    4aec:	cf 2e       	mov	r12, r31
    4aee:	f2 e0       	ldi	r31, 0x02	; 2
    4af0:	df 2e       	mov	r13, r31
    4af2:	f0 2d       	mov	r31, r0
    4af4:	c3 5b       	subi	r28, 0xB3	; 179
    4af6:	d9 4f       	sbci	r29, 0xF9	; 249
    4af8:	d9 82       	std	Y+1, r13	; 0x01
    4afa:	c8 82       	st	Y, r12
    4afc:	cd 54       	subi	r28, 0x4D	; 77
    4afe:	d6 40       	sbci	r29, 0x06	; 6
    4b00:	0f 2e       	mov	r0, r31
    4b02:	f6 ec       	ldi	r31, 0xC6	; 198
    4b04:	cf 2e       	mov	r12, r31
    4b06:	f2 e0       	ldi	r31, 0x02	; 2
    4b08:	df 2e       	mov	r13, r31
    4b0a:	f0 2d       	mov	r31, r0
    4b0c:	c1 5b       	subi	r28, 0xB1	; 177
    4b0e:	d9 4f       	sbci	r29, 0xF9	; 249
    4b10:	d9 82       	std	Y+1, r13	; 0x01
    4b12:	c8 82       	st	Y, r12
    4b14:	cf 54       	subi	r28, 0x4F	; 79
    4b16:	d6 40       	sbci	r29, 0x06	; 6
    4b18:	0f 2e       	mov	r0, r31
    4b1a:	fd eb       	ldi	r31, 0xBD	; 189
    4b1c:	cf 2e       	mov	r12, r31
    4b1e:	f2 e0       	ldi	r31, 0x02	; 2
    4b20:	df 2e       	mov	r13, r31
    4b22:	f0 2d       	mov	r31, r0
    4b24:	cf 5a       	subi	r28, 0xAF	; 175
    4b26:	d9 4f       	sbci	r29, 0xF9	; 249
    4b28:	d9 82       	std	Y+1, r13	; 0x01
    4b2a:	c8 82       	st	Y, r12
    4b2c:	c1 55       	subi	r28, 0x51	; 81
    4b2e:	d6 40       	sbci	r29, 0x06	; 6
    4b30:	0f 2e       	mov	r0, r31
    4b32:	f5 eb       	ldi	r31, 0xB5	; 181
    4b34:	cf 2e       	mov	r12, r31
    4b36:	f2 e0       	ldi	r31, 0x02	; 2
    4b38:	df 2e       	mov	r13, r31
    4b3a:	f0 2d       	mov	r31, r0
    4b3c:	cd 5a       	subi	r28, 0xAD	; 173
    4b3e:	d9 4f       	sbci	r29, 0xF9	; 249
    4b40:	d9 82       	std	Y+1, r13	; 0x01
    4b42:	c8 82       	st	Y, r12
    4b44:	c3 55       	subi	r28, 0x53	; 83
    4b46:	d6 40       	sbci	r29, 0x06	; 6
    4b48:	0f 2e       	mov	r0, r31
    4b4a:	fd ea       	ldi	r31, 0xAD	; 173
    4b4c:	cf 2e       	mov	r12, r31
    4b4e:	f2 e0       	ldi	r31, 0x02	; 2
    4b50:	df 2e       	mov	r13, r31
    4b52:	f0 2d       	mov	r31, r0
    4b54:	cb 5a       	subi	r28, 0xAB	; 171
    4b56:	d9 4f       	sbci	r29, 0xF9	; 249
    4b58:	d9 82       	std	Y+1, r13	; 0x01
    4b5a:	c8 82       	st	Y, r12
    4b5c:	c5 55       	subi	r28, 0x55	; 85
    4b5e:	d6 40       	sbci	r29, 0x06	; 6
    4b60:	0f 2e       	mov	r0, r31
    4b62:	f5 ea       	ldi	r31, 0xA5	; 165
    4b64:	cf 2e       	mov	r12, r31
    4b66:	f2 e0       	ldi	r31, 0x02	; 2
    4b68:	df 2e       	mov	r13, r31
    4b6a:	f0 2d       	mov	r31, r0
    4b6c:	c9 5a       	subi	r28, 0xA9	; 169
    4b6e:	d9 4f       	sbci	r29, 0xF9	; 249
    4b70:	d9 82       	std	Y+1, r13	; 0x01
    4b72:	c8 82       	st	Y, r12
    4b74:	c7 55       	subi	r28, 0x57	; 87
    4b76:	d6 40       	sbci	r29, 0x06	; 6
    4b78:	0f 2e       	mov	r0, r31
    4b7a:	fe e9       	ldi	r31, 0x9E	; 158
    4b7c:	cf 2e       	mov	r12, r31
    4b7e:	f2 e0       	ldi	r31, 0x02	; 2
    4b80:	df 2e       	mov	r13, r31
    4b82:	f0 2d       	mov	r31, r0
    4b84:	c7 5a       	subi	r28, 0xA7	; 167
    4b86:	d9 4f       	sbci	r29, 0xF9	; 249
    4b88:	d9 82       	std	Y+1, r13	; 0x01
    4b8a:	c8 82       	st	Y, r12
    4b8c:	c9 55       	subi	r28, 0x59	; 89
    4b8e:	d6 40       	sbci	r29, 0x06	; 6
    4b90:	0f 2e       	mov	r0, r31
    4b92:	f7 e9       	ldi	r31, 0x97	; 151
    4b94:	cf 2e       	mov	r12, r31
    4b96:	f2 e0       	ldi	r31, 0x02	; 2
    4b98:	df 2e       	mov	r13, r31
    4b9a:	f0 2d       	mov	r31, r0
    4b9c:	c5 5a       	subi	r28, 0xA5	; 165
    4b9e:	d9 4f       	sbci	r29, 0xF9	; 249
    4ba0:	d9 82       	std	Y+1, r13	; 0x01
    4ba2:	c8 82       	st	Y, r12
    4ba4:	cb 55       	subi	r28, 0x5B	; 91
    4ba6:	d6 40       	sbci	r29, 0x06	; 6
    4ba8:	0f 2e       	mov	r0, r31
    4baa:	f0 e9       	ldi	r31, 0x90	; 144
    4bac:	cf 2e       	mov	r12, r31
    4bae:	f2 e0       	ldi	r31, 0x02	; 2
    4bb0:	df 2e       	mov	r13, r31
    4bb2:	f0 2d       	mov	r31, r0
    4bb4:	c3 5a       	subi	r28, 0xA3	; 163
    4bb6:	d9 4f       	sbci	r29, 0xF9	; 249
    4bb8:	d9 82       	std	Y+1, r13	; 0x01
    4bba:	c8 82       	st	Y, r12
    4bbc:	cd 55       	subi	r28, 0x5D	; 93
    4bbe:	d6 40       	sbci	r29, 0x06	; 6
    4bc0:	0f 2e       	mov	r0, r31
    4bc2:	f9 e8       	ldi	r31, 0x89	; 137
    4bc4:	cf 2e       	mov	r12, r31
    4bc6:	f2 e0       	ldi	r31, 0x02	; 2
    4bc8:	df 2e       	mov	r13, r31
    4bca:	f0 2d       	mov	r31, r0
    4bcc:	c1 5a       	subi	r28, 0xA1	; 161
    4bce:	d9 4f       	sbci	r29, 0xF9	; 249
    4bd0:	d9 82       	std	Y+1, r13	; 0x01
    4bd2:	c8 82       	st	Y, r12
    4bd4:	cf 55       	subi	r28, 0x5F	; 95
    4bd6:	d6 40       	sbci	r29, 0x06	; 6
    4bd8:	0f 2e       	mov	r0, r31
    4bda:	f3 e8       	ldi	r31, 0x83	; 131
    4bdc:	cf 2e       	mov	r12, r31
    4bde:	f2 e0       	ldi	r31, 0x02	; 2
    4be0:	df 2e       	mov	r13, r31
    4be2:	f0 2d       	mov	r31, r0
    4be4:	cf 59       	subi	r28, 0x9F	; 159
    4be6:	d9 4f       	sbci	r29, 0xF9	; 249
    4be8:	d9 82       	std	Y+1, r13	; 0x01
    4bea:	c8 82       	st	Y, r12
    4bec:	c1 56       	subi	r28, 0x61	; 97
    4bee:	d6 40       	sbci	r29, 0x06	; 6
    4bf0:	0f 2e       	mov	r0, r31
    4bf2:	fd e7       	ldi	r31, 0x7D	; 125
    4bf4:	cf 2e       	mov	r12, r31
    4bf6:	f2 e0       	ldi	r31, 0x02	; 2
    4bf8:	df 2e       	mov	r13, r31
    4bfa:	f0 2d       	mov	r31, r0
    4bfc:	cd 59       	subi	r28, 0x9D	; 157
    4bfe:	d9 4f       	sbci	r29, 0xF9	; 249
    4c00:	d9 82       	std	Y+1, r13	; 0x01
    4c02:	c8 82       	st	Y, r12
    4c04:	c3 56       	subi	r28, 0x63	; 99
    4c06:	d6 40       	sbci	r29, 0x06	; 6
    4c08:	0f 2e       	mov	r0, r31
    4c0a:	f7 e7       	ldi	r31, 0x77	; 119
    4c0c:	cf 2e       	mov	r12, r31
    4c0e:	f2 e0       	ldi	r31, 0x02	; 2
    4c10:	df 2e       	mov	r13, r31
    4c12:	f0 2d       	mov	r31, r0
    4c14:	cb 59       	subi	r28, 0x9B	; 155
    4c16:	d9 4f       	sbci	r29, 0xF9	; 249
    4c18:	d9 82       	std	Y+1, r13	; 0x01
    4c1a:	c8 82       	st	Y, r12
    4c1c:	c5 56       	subi	r28, 0x65	; 101
    4c1e:	d6 40       	sbci	r29, 0x06	; 6
    4c20:	0f 2e       	mov	r0, r31
    4c22:	f1 e7       	ldi	r31, 0x71	; 113
    4c24:	cf 2e       	mov	r12, r31
    4c26:	f2 e0       	ldi	r31, 0x02	; 2
    4c28:	df 2e       	mov	r13, r31
    4c2a:	f0 2d       	mov	r31, r0
    4c2c:	c9 59       	subi	r28, 0x99	; 153
    4c2e:	d9 4f       	sbci	r29, 0xF9	; 249
    4c30:	d9 82       	std	Y+1, r13	; 0x01
    4c32:	c8 82       	st	Y, r12
    4c34:	c7 56       	subi	r28, 0x67	; 103
    4c36:	d6 40       	sbci	r29, 0x06	; 6
    4c38:	0f 2e       	mov	r0, r31
    4c3a:	fc e6       	ldi	r31, 0x6C	; 108
    4c3c:	cf 2e       	mov	r12, r31
    4c3e:	f2 e0       	ldi	r31, 0x02	; 2
    4c40:	df 2e       	mov	r13, r31
    4c42:	f0 2d       	mov	r31, r0
    4c44:	c7 59       	subi	r28, 0x97	; 151
    4c46:	d9 4f       	sbci	r29, 0xF9	; 249
    4c48:	d9 82       	std	Y+1, r13	; 0x01
    4c4a:	c8 82       	st	Y, r12
    4c4c:	c9 56       	subi	r28, 0x69	; 105
    4c4e:	d6 40       	sbci	r29, 0x06	; 6
    4c50:	0f 2e       	mov	r0, r31
    4c52:	f7 e6       	ldi	r31, 0x67	; 103
    4c54:	cf 2e       	mov	r12, r31
    4c56:	f2 e0       	ldi	r31, 0x02	; 2
    4c58:	df 2e       	mov	r13, r31
    4c5a:	f0 2d       	mov	r31, r0
    4c5c:	c5 59       	subi	r28, 0x95	; 149
    4c5e:	d9 4f       	sbci	r29, 0xF9	; 249
    4c60:	d9 82       	std	Y+1, r13	; 0x01
    4c62:	c8 82       	st	Y, r12
    4c64:	cb 56       	subi	r28, 0x6B	; 107
    4c66:	d6 40       	sbci	r29, 0x06	; 6
    4c68:	0f 2e       	mov	r0, r31
    4c6a:	f2 e6       	ldi	r31, 0x62	; 98
    4c6c:	cf 2e       	mov	r12, r31
    4c6e:	f2 e0       	ldi	r31, 0x02	; 2
    4c70:	df 2e       	mov	r13, r31
    4c72:	f0 2d       	mov	r31, r0
    4c74:	c3 59       	subi	r28, 0x93	; 147
    4c76:	d9 4f       	sbci	r29, 0xF9	; 249
    4c78:	d9 82       	std	Y+1, r13	; 0x01
    4c7a:	c8 82       	st	Y, r12
    4c7c:	cd 56       	subi	r28, 0x6D	; 109
    4c7e:	d6 40       	sbci	r29, 0x06	; 6
    4c80:	0f 2e       	mov	r0, r31
    4c82:	fd e5       	ldi	r31, 0x5D	; 93
    4c84:	cf 2e       	mov	r12, r31
    4c86:	f2 e0       	ldi	r31, 0x02	; 2
    4c88:	df 2e       	mov	r13, r31
    4c8a:	f0 2d       	mov	r31, r0
    4c8c:	c1 59       	subi	r28, 0x91	; 145
    4c8e:	d9 4f       	sbci	r29, 0xF9	; 249
    4c90:	d9 82       	std	Y+1, r13	; 0x01
    4c92:	c8 82       	st	Y, r12
    4c94:	cf 56       	subi	r28, 0x6F	; 111
    4c96:	d6 40       	sbci	r29, 0x06	; 6
    4c98:	0f 2e       	mov	r0, r31
    4c9a:	f8 e5       	ldi	r31, 0x58	; 88
    4c9c:	cf 2e       	mov	r12, r31
    4c9e:	f2 e0       	ldi	r31, 0x02	; 2
    4ca0:	df 2e       	mov	r13, r31
    4ca2:	f0 2d       	mov	r31, r0
    4ca4:	cf 58       	subi	r28, 0x8F	; 143
    4ca6:	d9 4f       	sbci	r29, 0xF9	; 249
    4ca8:	d9 82       	std	Y+1, r13	; 0x01
    4caa:	c8 82       	st	Y, r12
    4cac:	c1 57       	subi	r28, 0x71	; 113
    4cae:	d6 40       	sbci	r29, 0x06	; 6
    4cb0:	0f 2e       	mov	r0, r31
    4cb2:	f3 e5       	ldi	r31, 0x53	; 83
    4cb4:	cf 2e       	mov	r12, r31
    4cb6:	f2 e0       	ldi	r31, 0x02	; 2
    4cb8:	df 2e       	mov	r13, r31
    4cba:	f0 2d       	mov	r31, r0
    4cbc:	cd 58       	subi	r28, 0x8D	; 141
    4cbe:	d9 4f       	sbci	r29, 0xF9	; 249
    4cc0:	d9 82       	std	Y+1, r13	; 0x01
    4cc2:	c8 82       	st	Y, r12
    4cc4:	c3 57       	subi	r28, 0x73	; 115
    4cc6:	d6 40       	sbci	r29, 0x06	; 6
    4cc8:	0f 2e       	mov	r0, r31
    4cca:	ff e4       	ldi	r31, 0x4F	; 79
    4ccc:	cf 2e       	mov	r12, r31
    4cce:	f2 e0       	ldi	r31, 0x02	; 2
    4cd0:	df 2e       	mov	r13, r31
    4cd2:	f0 2d       	mov	r31, r0
    4cd4:	cb 58       	subi	r28, 0x8B	; 139
    4cd6:	d9 4f       	sbci	r29, 0xF9	; 249
    4cd8:	d9 82       	std	Y+1, r13	; 0x01
    4cda:	c8 82       	st	Y, r12
    4cdc:	c5 57       	subi	r28, 0x75	; 117
    4cde:	d6 40       	sbci	r29, 0x06	; 6
    4ce0:	0f 2e       	mov	r0, r31
    4ce2:	fa e4       	ldi	r31, 0x4A	; 74
    4ce4:	cf 2e       	mov	r12, r31
    4ce6:	f2 e0       	ldi	r31, 0x02	; 2
    4ce8:	df 2e       	mov	r13, r31
    4cea:	f0 2d       	mov	r31, r0
    4cec:	c9 58       	subi	r28, 0x89	; 137
    4cee:	d9 4f       	sbci	r29, 0xF9	; 249
    4cf0:	d9 82       	std	Y+1, r13	; 0x01
    4cf2:	c8 82       	st	Y, r12
    4cf4:	c7 57       	subi	r28, 0x77	; 119
    4cf6:	d6 40       	sbci	r29, 0x06	; 6
    4cf8:	0f 2e       	mov	r0, r31
    4cfa:	f6 e4       	ldi	r31, 0x46	; 70
    4cfc:	cf 2e       	mov	r12, r31
    4cfe:	f2 e0       	ldi	r31, 0x02	; 2
    4d00:	df 2e       	mov	r13, r31
    4d02:	f0 2d       	mov	r31, r0
    4d04:	c7 58       	subi	r28, 0x87	; 135
    4d06:	d9 4f       	sbci	r29, 0xF9	; 249
    4d08:	d9 82       	std	Y+1, r13	; 0x01
    4d0a:	c8 82       	st	Y, r12
    4d0c:	c9 57       	subi	r28, 0x79	; 121
    4d0e:	d6 40       	sbci	r29, 0x06	; 6
    4d10:	0f 2e       	mov	r0, r31
    4d12:	f2 e4       	ldi	r31, 0x42	; 66
    4d14:	cf 2e       	mov	r12, r31
    4d16:	f2 e0       	ldi	r31, 0x02	; 2
    4d18:	df 2e       	mov	r13, r31
    4d1a:	f0 2d       	mov	r31, r0
    4d1c:	c5 58       	subi	r28, 0x85	; 133
    4d1e:	d9 4f       	sbci	r29, 0xF9	; 249
    4d20:	d9 82       	std	Y+1, r13	; 0x01
    4d22:	c8 82       	st	Y, r12
    4d24:	cb 57       	subi	r28, 0x7B	; 123
    4d26:	d6 40       	sbci	r29, 0x06	; 6
    4d28:	0f 2e       	mov	r0, r31
    4d2a:	fe e3       	ldi	r31, 0x3E	; 62
    4d2c:	cf 2e       	mov	r12, r31
    4d2e:	f2 e0       	ldi	r31, 0x02	; 2
    4d30:	df 2e       	mov	r13, r31
    4d32:	f0 2d       	mov	r31, r0
    4d34:	c3 58       	subi	r28, 0x83	; 131
    4d36:	d9 4f       	sbci	r29, 0xF9	; 249
    4d38:	d9 82       	std	Y+1, r13	; 0x01
    4d3a:	c8 82       	st	Y, r12
    4d3c:	cd 57       	subi	r28, 0x7D	; 125
    4d3e:	d6 40       	sbci	r29, 0x06	; 6
    4d40:	0f 2e       	mov	r0, r31
    4d42:	fa e3       	ldi	r31, 0x3A	; 58
    4d44:	cf 2e       	mov	r12, r31
    4d46:	f2 e0       	ldi	r31, 0x02	; 2
    4d48:	df 2e       	mov	r13, r31
    4d4a:	f0 2d       	mov	r31, r0
    4d4c:	c1 58       	subi	r28, 0x81	; 129
    4d4e:	d9 4f       	sbci	r29, 0xF9	; 249
    4d50:	d9 82       	std	Y+1, r13	; 0x01
    4d52:	c8 82       	st	Y, r12
    4d54:	cf 57       	subi	r28, 0x7F	; 127
    4d56:	d6 40       	sbci	r29, 0x06	; 6
    4d58:	0f 2e       	mov	r0, r31
    4d5a:	f6 e3       	ldi	r31, 0x36	; 54
    4d5c:	cf 2e       	mov	r12, r31
    4d5e:	f2 e0       	ldi	r31, 0x02	; 2
    4d60:	df 2e       	mov	r13, r31
    4d62:	f0 2d       	mov	r31, r0
    4d64:	cf 57       	subi	r28, 0x7F	; 127
    4d66:	d9 4f       	sbci	r29, 0xF9	; 249
    4d68:	d9 82       	std	Y+1, r13	; 0x01
    4d6a:	c8 82       	st	Y, r12
    4d6c:	c1 58       	subi	r28, 0x81	; 129
    4d6e:	d6 40       	sbci	r29, 0x06	; 6
    4d70:	0f 2e       	mov	r0, r31
    4d72:	f2 e3       	ldi	r31, 0x32	; 50
    4d74:	cf 2e       	mov	r12, r31
    4d76:	f2 e0       	ldi	r31, 0x02	; 2
    4d78:	df 2e       	mov	r13, r31
    4d7a:	f0 2d       	mov	r31, r0
    4d7c:	cd 57       	subi	r28, 0x7D	; 125
    4d7e:	d9 4f       	sbci	r29, 0xF9	; 249
    4d80:	d9 82       	std	Y+1, r13	; 0x01
    4d82:	c8 82       	st	Y, r12
    4d84:	c3 58       	subi	r28, 0x83	; 131
    4d86:	d6 40       	sbci	r29, 0x06	; 6
    4d88:	0f 2e       	mov	r0, r31
    4d8a:	ff e2       	ldi	r31, 0x2F	; 47
    4d8c:	cf 2e       	mov	r12, r31
    4d8e:	f2 e0       	ldi	r31, 0x02	; 2
    4d90:	df 2e       	mov	r13, r31
    4d92:	f0 2d       	mov	r31, r0
    4d94:	cb 57       	subi	r28, 0x7B	; 123
    4d96:	d9 4f       	sbci	r29, 0xF9	; 249
    4d98:	d9 82       	std	Y+1, r13	; 0x01
    4d9a:	c8 82       	st	Y, r12
    4d9c:	c5 58       	subi	r28, 0x85	; 133
    4d9e:	d6 40       	sbci	r29, 0x06	; 6
    4da0:	0f 2e       	mov	r0, r31
    4da2:	fb e2       	ldi	r31, 0x2B	; 43
    4da4:	cf 2e       	mov	r12, r31
    4da6:	f2 e0       	ldi	r31, 0x02	; 2
    4da8:	df 2e       	mov	r13, r31
    4daa:	f0 2d       	mov	r31, r0
    4dac:	c9 57       	subi	r28, 0x79	; 121
    4dae:	d9 4f       	sbci	r29, 0xF9	; 249
    4db0:	d9 82       	std	Y+1, r13	; 0x01
    4db2:	c8 82       	st	Y, r12
    4db4:	c7 58       	subi	r28, 0x87	; 135
    4db6:	d6 40       	sbci	r29, 0x06	; 6
    4db8:	0f 2e       	mov	r0, r31
    4dba:	f8 e2       	ldi	r31, 0x28	; 40
    4dbc:	cf 2e       	mov	r12, r31
    4dbe:	f2 e0       	ldi	r31, 0x02	; 2
    4dc0:	df 2e       	mov	r13, r31
    4dc2:	f0 2d       	mov	r31, r0
    4dc4:	c7 57       	subi	r28, 0x77	; 119
    4dc6:	d9 4f       	sbci	r29, 0xF9	; 249
    4dc8:	d9 82       	std	Y+1, r13	; 0x01
    4dca:	c8 82       	st	Y, r12
    4dcc:	c9 58       	subi	r28, 0x89	; 137
    4dce:	d6 40       	sbci	r29, 0x06	; 6
    4dd0:	0f 2e       	mov	r0, r31
    4dd2:	f4 e2       	ldi	r31, 0x24	; 36
    4dd4:	cf 2e       	mov	r12, r31
    4dd6:	f2 e0       	ldi	r31, 0x02	; 2
    4dd8:	df 2e       	mov	r13, r31
    4dda:	f0 2d       	mov	r31, r0
    4ddc:	c5 57       	subi	r28, 0x75	; 117
    4dde:	d9 4f       	sbci	r29, 0xF9	; 249
    4de0:	d9 82       	std	Y+1, r13	; 0x01
    4de2:	c8 82       	st	Y, r12
    4de4:	cb 58       	subi	r28, 0x8B	; 139
    4de6:	d6 40       	sbci	r29, 0x06	; 6
    4de8:	0f 2e       	mov	r0, r31
    4dea:	f1 e2       	ldi	r31, 0x21	; 33
    4dec:	cf 2e       	mov	r12, r31
    4dee:	f2 e0       	ldi	r31, 0x02	; 2
    4df0:	df 2e       	mov	r13, r31
    4df2:	f0 2d       	mov	r31, r0
    4df4:	c3 57       	subi	r28, 0x73	; 115
    4df6:	d9 4f       	sbci	r29, 0xF9	; 249
    4df8:	d9 82       	std	Y+1, r13	; 0x01
    4dfa:	c8 82       	st	Y, r12
    4dfc:	cd 58       	subi	r28, 0x8D	; 141
    4dfe:	d6 40       	sbci	r29, 0x06	; 6
    4e00:	0f 2e       	mov	r0, r31
    4e02:	fe e1       	ldi	r31, 0x1E	; 30
    4e04:	cf 2e       	mov	r12, r31
    4e06:	f2 e0       	ldi	r31, 0x02	; 2
    4e08:	df 2e       	mov	r13, r31
    4e0a:	f0 2d       	mov	r31, r0
    4e0c:	c1 57       	subi	r28, 0x71	; 113
    4e0e:	d9 4f       	sbci	r29, 0xF9	; 249
    4e10:	d9 82       	std	Y+1, r13	; 0x01
    4e12:	c8 82       	st	Y, r12
    4e14:	cf 58       	subi	r28, 0x8F	; 143
    4e16:	d6 40       	sbci	r29, 0x06	; 6
    4e18:	0f 2e       	mov	r0, r31
    4e1a:	fb e1       	ldi	r31, 0x1B	; 27
    4e1c:	cf 2e       	mov	r12, r31
    4e1e:	f2 e0       	ldi	r31, 0x02	; 2
    4e20:	df 2e       	mov	r13, r31
    4e22:	f0 2d       	mov	r31, r0
    4e24:	cf 56       	subi	r28, 0x6F	; 111
    4e26:	d9 4f       	sbci	r29, 0xF9	; 249
    4e28:	d9 82       	std	Y+1, r13	; 0x01
    4e2a:	c8 82       	st	Y, r12
    4e2c:	c1 59       	subi	r28, 0x91	; 145
    4e2e:	d6 40       	sbci	r29, 0x06	; 6
    4e30:	0f 2e       	mov	r0, r31
    4e32:	f8 e1       	ldi	r31, 0x18	; 24
    4e34:	cf 2e       	mov	r12, r31
    4e36:	f2 e0       	ldi	r31, 0x02	; 2
    4e38:	df 2e       	mov	r13, r31
    4e3a:	f0 2d       	mov	r31, r0
    4e3c:	cd 56       	subi	r28, 0x6D	; 109
    4e3e:	d9 4f       	sbci	r29, 0xF9	; 249
    4e40:	d9 82       	std	Y+1, r13	; 0x01
    4e42:	c8 82       	st	Y, r12
    4e44:	c3 59       	subi	r28, 0x93	; 147
    4e46:	d6 40       	sbci	r29, 0x06	; 6
    4e48:	0f 2e       	mov	r0, r31
    4e4a:	f5 e1       	ldi	r31, 0x15	; 21
    4e4c:	cf 2e       	mov	r12, r31
    4e4e:	f2 e0       	ldi	r31, 0x02	; 2
    4e50:	df 2e       	mov	r13, r31
    4e52:	f0 2d       	mov	r31, r0
    4e54:	cb 56       	subi	r28, 0x6B	; 107
    4e56:	d9 4f       	sbci	r29, 0xF9	; 249
    4e58:	d9 82       	std	Y+1, r13	; 0x01
    4e5a:	c8 82       	st	Y, r12
    4e5c:	c5 59       	subi	r28, 0x95	; 149
    4e5e:	d6 40       	sbci	r29, 0x06	; 6
    4e60:	0f 2e       	mov	r0, r31
    4e62:	f2 e1       	ldi	r31, 0x12	; 18
    4e64:	cf 2e       	mov	r12, r31
    4e66:	f2 e0       	ldi	r31, 0x02	; 2
    4e68:	df 2e       	mov	r13, r31
    4e6a:	f0 2d       	mov	r31, r0
    4e6c:	c9 56       	subi	r28, 0x69	; 105
    4e6e:	d9 4f       	sbci	r29, 0xF9	; 249
    4e70:	d9 82       	std	Y+1, r13	; 0x01
    4e72:	c8 82       	st	Y, r12
    4e74:	c7 59       	subi	r28, 0x97	; 151
    4e76:	d6 40       	sbci	r29, 0x06	; 6
    4e78:	0f 2e       	mov	r0, r31
    4e7a:	ff e0       	ldi	r31, 0x0F	; 15
    4e7c:	cf 2e       	mov	r12, r31
    4e7e:	f2 e0       	ldi	r31, 0x02	; 2
    4e80:	df 2e       	mov	r13, r31
    4e82:	f0 2d       	mov	r31, r0
    4e84:	c7 56       	subi	r28, 0x67	; 103
    4e86:	d9 4f       	sbci	r29, 0xF9	; 249
    4e88:	d9 82       	std	Y+1, r13	; 0x01
    4e8a:	c8 82       	st	Y, r12
    4e8c:	c9 59       	subi	r28, 0x99	; 153
    4e8e:	d6 40       	sbci	r29, 0x06	; 6
    4e90:	0f 2e       	mov	r0, r31
    4e92:	fc e0       	ldi	r31, 0x0C	; 12
    4e94:	cf 2e       	mov	r12, r31
    4e96:	f2 e0       	ldi	r31, 0x02	; 2
    4e98:	df 2e       	mov	r13, r31
    4e9a:	f0 2d       	mov	r31, r0
    4e9c:	c5 56       	subi	r28, 0x65	; 101
    4e9e:	d9 4f       	sbci	r29, 0xF9	; 249
    4ea0:	d9 82       	std	Y+1, r13	; 0x01
    4ea2:	c8 82       	st	Y, r12
    4ea4:	cb 59       	subi	r28, 0x9B	; 155
    4ea6:	d6 40       	sbci	r29, 0x06	; 6
    4ea8:	0f 2e       	mov	r0, r31
    4eaa:	f9 e0       	ldi	r31, 0x09	; 9
    4eac:	cf 2e       	mov	r12, r31
    4eae:	f2 e0       	ldi	r31, 0x02	; 2
    4eb0:	df 2e       	mov	r13, r31
    4eb2:	f0 2d       	mov	r31, r0
    4eb4:	c3 56       	subi	r28, 0x63	; 99
    4eb6:	d9 4f       	sbci	r29, 0xF9	; 249
    4eb8:	d9 82       	std	Y+1, r13	; 0x01
    4eba:	c8 82       	st	Y, r12
    4ebc:	cd 59       	subi	r28, 0x9D	; 157
    4ebe:	d6 40       	sbci	r29, 0x06	; 6
    4ec0:	0f 2e       	mov	r0, r31
    4ec2:	f6 e0       	ldi	r31, 0x06	; 6
    4ec4:	cf 2e       	mov	r12, r31
    4ec6:	f2 e0       	ldi	r31, 0x02	; 2
    4ec8:	df 2e       	mov	r13, r31
    4eca:	f0 2d       	mov	r31, r0
    4ecc:	c1 56       	subi	r28, 0x61	; 97
    4ece:	d9 4f       	sbci	r29, 0xF9	; 249
    4ed0:	d9 82       	std	Y+1, r13	; 0x01
    4ed2:	c8 82       	st	Y, r12
    4ed4:	cf 59       	subi	r28, 0x9F	; 159
    4ed6:	d6 40       	sbci	r29, 0x06	; 6
    4ed8:	68 94       	set
    4eda:	cc 24       	eor	r12, r12
    4edc:	c2 f8       	bld	r12, 2
    4ede:	dd 24       	eor	r13, r13
    4ee0:	d1 f8       	bld	r13, 1
    4ee2:	cf 55       	subi	r28, 0x5F	; 95
    4ee4:	d9 4f       	sbci	r29, 0xF9	; 249
    4ee6:	d9 82       	std	Y+1, r13	; 0x01
    4ee8:	c8 82       	st	Y, r12
    4eea:	c1 5a       	subi	r28, 0xA1	; 161
    4eec:	d6 40       	sbci	r29, 0x06	; 6
    4eee:	cc 24       	eor	r12, r12
    4ef0:	c3 94       	inc	r12
    4ef2:	68 94       	set
    4ef4:	dd 24       	eor	r13, r13
    4ef6:	d1 f8       	bld	r13, 1
    4ef8:	cd 55       	subi	r28, 0x5D	; 93
    4efa:	d9 4f       	sbci	r29, 0xF9	; 249
    4efc:	d9 82       	std	Y+1, r13	; 0x01
    4efe:	c8 82       	st	Y, r12
    4f00:	c3 5a       	subi	r28, 0xA3	; 163
    4f02:	d6 40       	sbci	r29, 0x06	; 6
    4f04:	cc 24       	eor	r12, r12
    4f06:	ca 94       	dec	r12
    4f08:	dd 24       	eor	r13, r13
    4f0a:	d3 94       	inc	r13
    4f0c:	cb 55       	subi	r28, 0x5B	; 91
    4f0e:	d9 4f       	sbci	r29, 0xF9	; 249
    4f10:	d9 82       	std	Y+1, r13	; 0x01
    4f12:	c8 82       	st	Y, r12
    4f14:	c5 5a       	subi	r28, 0xA5	; 165
    4f16:	d6 40       	sbci	r29, 0x06	; 6
    4f18:	0f 2e       	mov	r0, r31
    4f1a:	fc ef       	ldi	r31, 0xFC	; 252
    4f1c:	cf 2e       	mov	r12, r31
    4f1e:	dd 24       	eor	r13, r13
    4f20:	d3 94       	inc	r13
    4f22:	f0 2d       	mov	r31, r0
    4f24:	c9 55       	subi	r28, 0x59	; 89
    4f26:	d9 4f       	sbci	r29, 0xF9	; 249
    4f28:	d9 82       	std	Y+1, r13	; 0x01
    4f2a:	c8 82       	st	Y, r12
    4f2c:	c7 5a       	subi	r28, 0xA7	; 167
    4f2e:	d6 40       	sbci	r29, 0x06	; 6
    4f30:	0f 2e       	mov	r0, r31
    4f32:	fa ef       	ldi	r31, 0xFA	; 250
    4f34:	cf 2e       	mov	r12, r31
    4f36:	dd 24       	eor	r13, r13
    4f38:	d3 94       	inc	r13
    4f3a:	f0 2d       	mov	r31, r0
    4f3c:	c7 55       	subi	r28, 0x57	; 87
    4f3e:	d9 4f       	sbci	r29, 0xF9	; 249
    4f40:	d9 82       	std	Y+1, r13	; 0x01
    4f42:	c8 82       	st	Y, r12
    4f44:	c9 5a       	subi	r28, 0xA9	; 169
    4f46:	d6 40       	sbci	r29, 0x06	; 6
    4f48:	0f 2e       	mov	r0, r31
    4f4a:	f7 ef       	ldi	r31, 0xF7	; 247
    4f4c:	cf 2e       	mov	r12, r31
    4f4e:	dd 24       	eor	r13, r13
    4f50:	d3 94       	inc	r13
    4f52:	f0 2d       	mov	r31, r0
    4f54:	c5 55       	subi	r28, 0x55	; 85
    4f56:	d9 4f       	sbci	r29, 0xF9	; 249
    4f58:	d9 82       	std	Y+1, r13	; 0x01
    4f5a:	c8 82       	st	Y, r12
    4f5c:	cb 5a       	subi	r28, 0xAB	; 171
    4f5e:	d6 40       	sbci	r29, 0x06	; 6
    4f60:	0f 2e       	mov	r0, r31
    4f62:	f5 ef       	ldi	r31, 0xF5	; 245
    4f64:	cf 2e       	mov	r12, r31
    4f66:	dd 24       	eor	r13, r13
    4f68:	d3 94       	inc	r13
    4f6a:	f0 2d       	mov	r31, r0
    4f6c:	c3 55       	subi	r28, 0x53	; 83
    4f6e:	d9 4f       	sbci	r29, 0xF9	; 249
    4f70:	d9 82       	std	Y+1, r13	; 0x01
    4f72:	c8 82       	st	Y, r12
    4f74:	cd 5a       	subi	r28, 0xAD	; 173
    4f76:	d6 40       	sbci	r29, 0x06	; 6
    4f78:	0f 2e       	mov	r0, r31
    4f7a:	f2 ef       	ldi	r31, 0xF2	; 242
    4f7c:	cf 2e       	mov	r12, r31
    4f7e:	dd 24       	eor	r13, r13
    4f80:	d3 94       	inc	r13
    4f82:	f0 2d       	mov	r31, r0
    4f84:	c1 55       	subi	r28, 0x51	; 81
    4f86:	d9 4f       	sbci	r29, 0xF9	; 249
    4f88:	d9 82       	std	Y+1, r13	; 0x01
    4f8a:	c8 82       	st	Y, r12
    4f8c:	cf 5a       	subi	r28, 0xAF	; 175
    4f8e:	d6 40       	sbci	r29, 0x06	; 6
    4f90:	0f 2e       	mov	r0, r31
    4f92:	f0 ef       	ldi	r31, 0xF0	; 240
    4f94:	cf 2e       	mov	r12, r31
    4f96:	dd 24       	eor	r13, r13
    4f98:	d3 94       	inc	r13
    4f9a:	f0 2d       	mov	r31, r0
    4f9c:	cf 54       	subi	r28, 0x4F	; 79
    4f9e:	d9 4f       	sbci	r29, 0xF9	; 249
    4fa0:	d9 82       	std	Y+1, r13	; 0x01
    4fa2:	c8 82       	st	Y, r12
    4fa4:	c1 5b       	subi	r28, 0xB1	; 177
    4fa6:	d6 40       	sbci	r29, 0x06	; 6
    4fa8:	0f 2e       	mov	r0, r31
    4faa:	fe ee       	ldi	r31, 0xEE	; 238
    4fac:	cf 2e       	mov	r12, r31
    4fae:	dd 24       	eor	r13, r13
    4fb0:	d3 94       	inc	r13
    4fb2:	f0 2d       	mov	r31, r0
    4fb4:	cd 54       	subi	r28, 0x4D	; 77
    4fb6:	d9 4f       	sbci	r29, 0xF9	; 249
    4fb8:	d9 82       	std	Y+1, r13	; 0x01
    4fba:	c8 82       	st	Y, r12
    4fbc:	c3 5b       	subi	r28, 0xB3	; 179
    4fbe:	d6 40       	sbci	r29, 0x06	; 6
    4fc0:	0f 2e       	mov	r0, r31
    4fc2:	fc ee       	ldi	r31, 0xEC	; 236
    4fc4:	cf 2e       	mov	r12, r31
    4fc6:	dd 24       	eor	r13, r13
    4fc8:	d3 94       	inc	r13
    4fca:	f0 2d       	mov	r31, r0
    4fcc:	cb 54       	subi	r28, 0x4B	; 75
    4fce:	d9 4f       	sbci	r29, 0xF9	; 249
    4fd0:	d9 82       	std	Y+1, r13	; 0x01
    4fd2:	c8 82       	st	Y, r12
    4fd4:	c5 5b       	subi	r28, 0xB5	; 181
    4fd6:	d6 40       	sbci	r29, 0x06	; 6
    4fd8:	0f 2e       	mov	r0, r31
    4fda:	fa ee       	ldi	r31, 0xEA	; 234
    4fdc:	cf 2e       	mov	r12, r31
    4fde:	dd 24       	eor	r13, r13
    4fe0:	d3 94       	inc	r13
    4fe2:	f0 2d       	mov	r31, r0
    4fe4:	c9 54       	subi	r28, 0x49	; 73
    4fe6:	d9 4f       	sbci	r29, 0xF9	; 249
    4fe8:	d9 82       	std	Y+1, r13	; 0x01
    4fea:	c8 82       	st	Y, r12
    4fec:	c7 5b       	subi	r28, 0xB7	; 183
    4fee:	d6 40       	sbci	r29, 0x06	; 6
    4ff0:	0f 2e       	mov	r0, r31
    4ff2:	f7 ee       	ldi	r31, 0xE7	; 231
    4ff4:	cf 2e       	mov	r12, r31
    4ff6:	dd 24       	eor	r13, r13
    4ff8:	d3 94       	inc	r13
    4ffa:	f0 2d       	mov	r31, r0
    4ffc:	c7 54       	subi	r28, 0x47	; 71
    4ffe:	d9 4f       	sbci	r29, 0xF9	; 249
    5000:	d9 82       	std	Y+1, r13	; 0x01
    5002:	c8 82       	st	Y, r12
    5004:	c9 5b       	subi	r28, 0xB9	; 185
    5006:	d6 40       	sbci	r29, 0x06	; 6
    5008:	0f 2e       	mov	r0, r31
    500a:	f5 ee       	ldi	r31, 0xE5	; 229
    500c:	cf 2e       	mov	r12, r31
    500e:	dd 24       	eor	r13, r13
    5010:	d3 94       	inc	r13
    5012:	f0 2d       	mov	r31, r0
    5014:	c5 54       	subi	r28, 0x45	; 69
    5016:	d9 4f       	sbci	r29, 0xF9	; 249
    5018:	d9 82       	std	Y+1, r13	; 0x01
    501a:	c8 82       	st	Y, r12
    501c:	cb 5b       	subi	r28, 0xBB	; 187
    501e:	d6 40       	sbci	r29, 0x06	; 6
    5020:	0f 2e       	mov	r0, r31
    5022:	f3 ee       	ldi	r31, 0xE3	; 227
    5024:	cf 2e       	mov	r12, r31
    5026:	dd 24       	eor	r13, r13
    5028:	d3 94       	inc	r13
    502a:	f0 2d       	mov	r31, r0
    502c:	c3 54       	subi	r28, 0x43	; 67
    502e:	d9 4f       	sbci	r29, 0xF9	; 249
    5030:	d9 82       	std	Y+1, r13	; 0x01
    5032:	c8 82       	st	Y, r12
    5034:	cd 5b       	subi	r28, 0xBD	; 189
    5036:	d6 40       	sbci	r29, 0x06	; 6
    5038:	0f 2e       	mov	r0, r31
    503a:	f1 ee       	ldi	r31, 0xE1	; 225
    503c:	cf 2e       	mov	r12, r31
    503e:	dd 24       	eor	r13, r13
    5040:	d3 94       	inc	r13
    5042:	f0 2d       	mov	r31, r0
    5044:	c1 54       	subi	r28, 0x41	; 65
    5046:	d9 4f       	sbci	r29, 0xF9	; 249
    5048:	d9 82       	std	Y+1, r13	; 0x01
    504a:	c8 82       	st	Y, r12
    504c:	cf 5b       	subi	r28, 0xBF	; 191
    504e:	d6 40       	sbci	r29, 0x06	; 6
    5050:	0f 2e       	mov	r0, r31
    5052:	ff ed       	ldi	r31, 0xDF	; 223
    5054:	cf 2e       	mov	r12, r31
    5056:	dd 24       	eor	r13, r13
    5058:	d3 94       	inc	r13
    505a:	f0 2d       	mov	r31, r0
    505c:	cf 53       	subi	r28, 0x3F	; 63
    505e:	d9 4f       	sbci	r29, 0xF9	; 249
    5060:	d9 82       	std	Y+1, r13	; 0x01
    5062:	c8 82       	st	Y, r12
    5064:	c1 5c       	subi	r28, 0xC1	; 193
    5066:	d6 40       	sbci	r29, 0x06	; 6
    5068:	0f 2e       	mov	r0, r31
    506a:	fd ed       	ldi	r31, 0xDD	; 221
    506c:	cf 2e       	mov	r12, r31
    506e:	dd 24       	eor	r13, r13
    5070:	d3 94       	inc	r13
    5072:	f0 2d       	mov	r31, r0
    5074:	cd 53       	subi	r28, 0x3D	; 61
    5076:	d9 4f       	sbci	r29, 0xF9	; 249
    5078:	d9 82       	std	Y+1, r13	; 0x01
    507a:	c8 82       	st	Y, r12
    507c:	c3 5c       	subi	r28, 0xC3	; 195
    507e:	d6 40       	sbci	r29, 0x06	; 6
    5080:	0f 2e       	mov	r0, r31
    5082:	fb ed       	ldi	r31, 0xDB	; 219
    5084:	cf 2e       	mov	r12, r31
    5086:	dd 24       	eor	r13, r13
    5088:	d3 94       	inc	r13
    508a:	f0 2d       	mov	r31, r0
    508c:	cb 53       	subi	r28, 0x3B	; 59
    508e:	d9 4f       	sbci	r29, 0xF9	; 249
    5090:	d9 82       	std	Y+1, r13	; 0x01
    5092:	c8 82       	st	Y, r12
    5094:	c5 5c       	subi	r28, 0xC5	; 197
    5096:	d6 40       	sbci	r29, 0x06	; 6
    5098:	0f 2e       	mov	r0, r31
    509a:	f9 ed       	ldi	r31, 0xD9	; 217
    509c:	cf 2e       	mov	r12, r31
    509e:	dd 24       	eor	r13, r13
    50a0:	d3 94       	inc	r13
    50a2:	f0 2d       	mov	r31, r0
    50a4:	c9 53       	subi	r28, 0x39	; 57
    50a6:	d9 4f       	sbci	r29, 0xF9	; 249
    50a8:	d9 82       	std	Y+1, r13	; 0x01
    50aa:	c8 82       	st	Y, r12
    50ac:	c7 5c       	subi	r28, 0xC7	; 199
    50ae:	d6 40       	sbci	r29, 0x06	; 6
    50b0:	0f 2e       	mov	r0, r31
    50b2:	f7 ed       	ldi	r31, 0xD7	; 215
    50b4:	cf 2e       	mov	r12, r31
    50b6:	dd 24       	eor	r13, r13
    50b8:	d3 94       	inc	r13
    50ba:	f0 2d       	mov	r31, r0
    50bc:	c7 53       	subi	r28, 0x37	; 55
    50be:	d9 4f       	sbci	r29, 0xF9	; 249
    50c0:	d9 82       	std	Y+1, r13	; 0x01
    50c2:	c8 82       	st	Y, r12
    50c4:	c9 5c       	subi	r28, 0xC9	; 201
    50c6:	d6 40       	sbci	r29, 0x06	; 6
    50c8:	0f 2e       	mov	r0, r31
    50ca:	f6 ed       	ldi	r31, 0xD6	; 214
    50cc:	cf 2e       	mov	r12, r31
    50ce:	dd 24       	eor	r13, r13
    50d0:	d3 94       	inc	r13
    50d2:	f0 2d       	mov	r31, r0
    50d4:	c5 53       	subi	r28, 0x35	; 53
    50d6:	d9 4f       	sbci	r29, 0xF9	; 249
    50d8:	d9 82       	std	Y+1, r13	; 0x01
    50da:	c8 82       	st	Y, r12
    50dc:	cb 5c       	subi	r28, 0xCB	; 203
    50de:	d6 40       	sbci	r29, 0x06	; 6
    50e0:	0f 2e       	mov	r0, r31
    50e2:	f4 ed       	ldi	r31, 0xD4	; 212
    50e4:	cf 2e       	mov	r12, r31
    50e6:	dd 24       	eor	r13, r13
    50e8:	d3 94       	inc	r13
    50ea:	f0 2d       	mov	r31, r0
    50ec:	c3 53       	subi	r28, 0x33	; 51
    50ee:	d9 4f       	sbci	r29, 0xF9	; 249
    50f0:	d9 82       	std	Y+1, r13	; 0x01
    50f2:	c8 82       	st	Y, r12
    50f4:	cd 5c       	subi	r28, 0xCD	; 205
    50f6:	d6 40       	sbci	r29, 0x06	; 6
    50f8:	0f 2e       	mov	r0, r31
    50fa:	f2 ed       	ldi	r31, 0xD2	; 210
    50fc:	cf 2e       	mov	r12, r31
    50fe:	dd 24       	eor	r13, r13
    5100:	d3 94       	inc	r13
    5102:	f0 2d       	mov	r31, r0
    5104:	c1 53       	subi	r28, 0x31	; 49
    5106:	d9 4f       	sbci	r29, 0xF9	; 249
    5108:	d9 82       	std	Y+1, r13	; 0x01
    510a:	c8 82       	st	Y, r12
    510c:	cf 5c       	subi	r28, 0xCF	; 207
    510e:	d6 40       	sbci	r29, 0x06	; 6
    5110:	0f 2e       	mov	r0, r31
    5112:	f0 ed       	ldi	r31, 0xD0	; 208
    5114:	cf 2e       	mov	r12, r31
    5116:	dd 24       	eor	r13, r13
    5118:	d3 94       	inc	r13
    511a:	f0 2d       	mov	r31, r0
    511c:	cf 52       	subi	r28, 0x2F	; 47
    511e:	d9 4f       	sbci	r29, 0xF9	; 249
    5120:	d9 82       	std	Y+1, r13	; 0x01
    5122:	c8 82       	st	Y, r12
    5124:	c1 5d       	subi	r28, 0xD1	; 209
    5126:	d6 40       	sbci	r29, 0x06	; 6
    5128:	0f 2e       	mov	r0, r31
    512a:	fe ec       	ldi	r31, 0xCE	; 206
    512c:	cf 2e       	mov	r12, r31
    512e:	dd 24       	eor	r13, r13
    5130:	d3 94       	inc	r13
    5132:	f0 2d       	mov	r31, r0
    5134:	cd 52       	subi	r28, 0x2D	; 45
    5136:	d9 4f       	sbci	r29, 0xF9	; 249
    5138:	d9 82       	std	Y+1, r13	; 0x01
    513a:	c8 82       	st	Y, r12
    513c:	c3 5d       	subi	r28, 0xD3	; 211
    513e:	d6 40       	sbci	r29, 0x06	; 6
    5140:	0f 2e       	mov	r0, r31
    5142:	fd ec       	ldi	r31, 0xCD	; 205
    5144:	cf 2e       	mov	r12, r31
    5146:	dd 24       	eor	r13, r13
    5148:	d3 94       	inc	r13
    514a:	f0 2d       	mov	r31, r0
    514c:	cb 52       	subi	r28, 0x2B	; 43
    514e:	d9 4f       	sbci	r29, 0xF9	; 249
    5150:	d9 82       	std	Y+1, r13	; 0x01
    5152:	c8 82       	st	Y, r12
    5154:	c5 5d       	subi	r28, 0xD5	; 213
    5156:	d6 40       	sbci	r29, 0x06	; 6
    5158:	0f 2e       	mov	r0, r31
    515a:	fb ec       	ldi	r31, 0xCB	; 203
    515c:	cf 2e       	mov	r12, r31
    515e:	dd 24       	eor	r13, r13
    5160:	d3 94       	inc	r13
    5162:	f0 2d       	mov	r31, r0
    5164:	c9 52       	subi	r28, 0x29	; 41
    5166:	d9 4f       	sbci	r29, 0xF9	; 249
    5168:	d9 82       	std	Y+1, r13	; 0x01
    516a:	c8 82       	st	Y, r12
    516c:	c7 5d       	subi	r28, 0xD7	; 215
    516e:	d6 40       	sbci	r29, 0x06	; 6
    5170:	0f 2e       	mov	r0, r31
    5172:	f9 ec       	ldi	r31, 0xC9	; 201
    5174:	cf 2e       	mov	r12, r31
    5176:	dd 24       	eor	r13, r13
    5178:	d3 94       	inc	r13
    517a:	f0 2d       	mov	r31, r0
    517c:	c7 52       	subi	r28, 0x27	; 39
    517e:	d9 4f       	sbci	r29, 0xF9	; 249
    5180:	d9 82       	std	Y+1, r13	; 0x01
    5182:	c8 82       	st	Y, r12
    5184:	c9 5d       	subi	r28, 0xD9	; 217
    5186:	d6 40       	sbci	r29, 0x06	; 6
    5188:	0f 2e       	mov	r0, r31
    518a:	f8 ec       	ldi	r31, 0xC8	; 200
    518c:	cf 2e       	mov	r12, r31
    518e:	dd 24       	eor	r13, r13
    5190:	d3 94       	inc	r13
    5192:	f0 2d       	mov	r31, r0
    5194:	c5 52       	subi	r28, 0x25	; 37
    5196:	d9 4f       	sbci	r29, 0xF9	; 249
    5198:	d9 82       	std	Y+1, r13	; 0x01
    519a:	c8 82       	st	Y, r12
    519c:	cb 5d       	subi	r28, 0xDB	; 219
    519e:	d6 40       	sbci	r29, 0x06	; 6
    51a0:	0f 2e       	mov	r0, r31
    51a2:	f6 ec       	ldi	r31, 0xC6	; 198
    51a4:	cf 2e       	mov	r12, r31
    51a6:	dd 24       	eor	r13, r13
    51a8:	d3 94       	inc	r13
    51aa:	f0 2d       	mov	r31, r0
    51ac:	c3 52       	subi	r28, 0x23	; 35
    51ae:	d9 4f       	sbci	r29, 0xF9	; 249
    51b0:	d9 82       	std	Y+1, r13	; 0x01
    51b2:	c8 82       	st	Y, r12
    51b4:	cd 5d       	subi	r28, 0xDD	; 221
    51b6:	d6 40       	sbci	r29, 0x06	; 6
    51b8:	0f 2e       	mov	r0, r31
    51ba:	f5 ec       	ldi	r31, 0xC5	; 197
    51bc:	cf 2e       	mov	r12, r31
    51be:	dd 24       	eor	r13, r13
    51c0:	d3 94       	inc	r13
    51c2:	f0 2d       	mov	r31, r0
    51c4:	c1 52       	subi	r28, 0x21	; 33
    51c6:	d9 4f       	sbci	r29, 0xF9	; 249
    51c8:	d9 82       	std	Y+1, r13	; 0x01
    51ca:	c8 82       	st	Y, r12
    51cc:	cf 5d       	subi	r28, 0xDF	; 223
    51ce:	d6 40       	sbci	r29, 0x06	; 6
    51d0:	0f 2e       	mov	r0, r31
    51d2:	f3 ec       	ldi	r31, 0xC3	; 195
    51d4:	cf 2e       	mov	r12, r31
    51d6:	dd 24       	eor	r13, r13
    51d8:	d3 94       	inc	r13
    51da:	f0 2d       	mov	r31, r0
    51dc:	cf 51       	subi	r28, 0x1F	; 31
    51de:	d9 4f       	sbci	r29, 0xF9	; 249
    51e0:	d9 82       	std	Y+1, r13	; 0x01
    51e2:	c8 82       	st	Y, r12
    51e4:	c1 5e       	subi	r28, 0xE1	; 225
    51e6:	d6 40       	sbci	r29, 0x06	; 6
    51e8:	0f 2e       	mov	r0, r31
    51ea:	f1 ec       	ldi	r31, 0xC1	; 193
    51ec:	cf 2e       	mov	r12, r31
    51ee:	dd 24       	eor	r13, r13
    51f0:	d3 94       	inc	r13
    51f2:	f0 2d       	mov	r31, r0
    51f4:	cd 51       	subi	r28, 0x1D	; 29
    51f6:	d9 4f       	sbci	r29, 0xF9	; 249
    51f8:	d9 82       	std	Y+1, r13	; 0x01
    51fa:	c8 82       	st	Y, r12
    51fc:	c3 5e       	subi	r28, 0xE3	; 227
    51fe:	d6 40       	sbci	r29, 0x06	; 6
    5200:	0f 2e       	mov	r0, r31
    5202:	f0 ec       	ldi	r31, 0xC0	; 192
    5204:	cf 2e       	mov	r12, r31
    5206:	dd 24       	eor	r13, r13
    5208:	d3 94       	inc	r13
    520a:	f0 2d       	mov	r31, r0
    520c:	cb 51       	subi	r28, 0x1B	; 27
    520e:	d9 4f       	sbci	r29, 0xF9	; 249
    5210:	d9 82       	std	Y+1, r13	; 0x01
    5212:	c8 82       	st	Y, r12
    5214:	c5 5e       	subi	r28, 0xE5	; 229
    5216:	d6 40       	sbci	r29, 0x06	; 6
    5218:	0f 2e       	mov	r0, r31
    521a:	fe eb       	ldi	r31, 0xBE	; 190
    521c:	cf 2e       	mov	r12, r31
    521e:	dd 24       	eor	r13, r13
    5220:	d3 94       	inc	r13
    5222:	f0 2d       	mov	r31, r0
    5224:	c9 51       	subi	r28, 0x19	; 25
    5226:	d9 4f       	sbci	r29, 0xF9	; 249
    5228:	d9 82       	std	Y+1, r13	; 0x01
    522a:	c8 82       	st	Y, r12
    522c:	c7 5e       	subi	r28, 0xE7	; 231
    522e:	d6 40       	sbci	r29, 0x06	; 6
    5230:	0f 2e       	mov	r0, r31
    5232:	fd eb       	ldi	r31, 0xBD	; 189
    5234:	cf 2e       	mov	r12, r31
    5236:	dd 24       	eor	r13, r13
    5238:	d3 94       	inc	r13
    523a:	f0 2d       	mov	r31, r0
    523c:	c7 51       	subi	r28, 0x17	; 23
    523e:	d9 4f       	sbci	r29, 0xF9	; 249
    5240:	d9 82       	std	Y+1, r13	; 0x01
    5242:	c8 82       	st	Y, r12
    5244:	c9 5e       	subi	r28, 0xE9	; 233
    5246:	d6 40       	sbci	r29, 0x06	; 6
    5248:	0f 2e       	mov	r0, r31
    524a:	fb eb       	ldi	r31, 0xBB	; 187
    524c:	cf 2e       	mov	r12, r31
    524e:	dd 24       	eor	r13, r13
    5250:	d3 94       	inc	r13
    5252:	f0 2d       	mov	r31, r0
    5254:	c5 51       	subi	r28, 0x15	; 21
    5256:	d9 4f       	sbci	r29, 0xF9	; 249
    5258:	d9 82       	std	Y+1, r13	; 0x01
    525a:	c8 82       	st	Y, r12
    525c:	cb 5e       	subi	r28, 0xEB	; 235
    525e:	d6 40       	sbci	r29, 0x06	; 6
    5260:	0f 2e       	mov	r0, r31
    5262:	fa eb       	ldi	r31, 0xBA	; 186
    5264:	cf 2e       	mov	r12, r31
    5266:	dd 24       	eor	r13, r13
    5268:	d3 94       	inc	r13
    526a:	f0 2d       	mov	r31, r0
    526c:	c3 51       	subi	r28, 0x13	; 19
    526e:	d9 4f       	sbci	r29, 0xF9	; 249
    5270:	d9 82       	std	Y+1, r13	; 0x01
    5272:	c8 82       	st	Y, r12
    5274:	cd 5e       	subi	r28, 0xED	; 237
    5276:	d6 40       	sbci	r29, 0x06	; 6
    5278:	0f 2e       	mov	r0, r31
    527a:	f8 eb       	ldi	r31, 0xB8	; 184
    527c:	cf 2e       	mov	r12, r31
    527e:	dd 24       	eor	r13, r13
    5280:	d3 94       	inc	r13
    5282:	f0 2d       	mov	r31, r0
    5284:	c1 51       	subi	r28, 0x11	; 17
    5286:	d9 4f       	sbci	r29, 0xF9	; 249
    5288:	d9 82       	std	Y+1, r13	; 0x01
    528a:	c8 82       	st	Y, r12
    528c:	cf 5e       	subi	r28, 0xEF	; 239
    528e:	d6 40       	sbci	r29, 0x06	; 6
    5290:	0f 2e       	mov	r0, r31
    5292:	f7 eb       	ldi	r31, 0xB7	; 183
    5294:	cf 2e       	mov	r12, r31
    5296:	dd 24       	eor	r13, r13
    5298:	d3 94       	inc	r13
    529a:	f0 2d       	mov	r31, r0
    529c:	cf 50       	subi	r28, 0x0F	; 15
    529e:	d9 4f       	sbci	r29, 0xF9	; 249
    52a0:	d9 82       	std	Y+1, r13	; 0x01
    52a2:	c8 82       	st	Y, r12
    52a4:	c1 5f       	subi	r28, 0xF1	; 241
    52a6:	d6 40       	sbci	r29, 0x06	; 6
    52a8:	0f 2e       	mov	r0, r31
    52aa:	f6 eb       	ldi	r31, 0xB6	; 182
    52ac:	cf 2e       	mov	r12, r31
    52ae:	dd 24       	eor	r13, r13
    52b0:	d3 94       	inc	r13
    52b2:	f0 2d       	mov	r31, r0
    52b4:	cd 50       	subi	r28, 0x0D	; 13
    52b6:	d9 4f       	sbci	r29, 0xF9	; 249
    52b8:	d9 82       	std	Y+1, r13	; 0x01
    52ba:	c8 82       	st	Y, r12
    52bc:	c3 5f       	subi	r28, 0xF3	; 243
    52be:	d6 40       	sbci	r29, 0x06	; 6
    52c0:	0f 2e       	mov	r0, r31
    52c2:	f4 eb       	ldi	r31, 0xB4	; 180
    52c4:	cf 2e       	mov	r12, r31
    52c6:	dd 24       	eor	r13, r13
    52c8:	d3 94       	inc	r13
    52ca:	f0 2d       	mov	r31, r0
    52cc:	cb 50       	subi	r28, 0x0B	; 11
    52ce:	d9 4f       	sbci	r29, 0xF9	; 249
    52d0:	d9 82       	std	Y+1, r13	; 0x01
    52d2:	c8 82       	st	Y, r12
    52d4:	c5 5f       	subi	r28, 0xF5	; 245
    52d6:	d6 40       	sbci	r29, 0x06	; 6
    52d8:	0f 2e       	mov	r0, r31
    52da:	f3 eb       	ldi	r31, 0xB3	; 179
    52dc:	cf 2e       	mov	r12, r31
    52de:	dd 24       	eor	r13, r13
    52e0:	d3 94       	inc	r13
    52e2:	f0 2d       	mov	r31, r0
    52e4:	c9 50       	subi	r28, 0x09	; 9
    52e6:	d9 4f       	sbci	r29, 0xF9	; 249
    52e8:	d9 82       	std	Y+1, r13	; 0x01
    52ea:	c8 82       	st	Y, r12
    52ec:	c7 5f       	subi	r28, 0xF7	; 247
    52ee:	d6 40       	sbci	r29, 0x06	; 6
    52f0:	0f 2e       	mov	r0, r31
    52f2:	f1 eb       	ldi	r31, 0xB1	; 177
    52f4:	cf 2e       	mov	r12, r31
    52f6:	dd 24       	eor	r13, r13
    52f8:	d3 94       	inc	r13
    52fa:	f0 2d       	mov	r31, r0
    52fc:	c7 50       	subi	r28, 0x07	; 7
    52fe:	d9 4f       	sbci	r29, 0xF9	; 249
    5300:	d9 82       	std	Y+1, r13	; 0x01
    5302:	c8 82       	st	Y, r12
    5304:	c9 5f       	subi	r28, 0xF9	; 249
    5306:	d6 40       	sbci	r29, 0x06	; 6
    5308:	0f 2e       	mov	r0, r31
    530a:	f0 eb       	ldi	r31, 0xB0	; 176
    530c:	cf 2e       	mov	r12, r31
    530e:	dd 24       	eor	r13, r13
    5310:	d3 94       	inc	r13
    5312:	f0 2d       	mov	r31, r0
    5314:	c5 50       	subi	r28, 0x05	; 5
    5316:	d9 4f       	sbci	r29, 0xF9	; 249
    5318:	d9 82       	std	Y+1, r13	; 0x01
    531a:	c8 82       	st	Y, r12
    531c:	cb 5f       	subi	r28, 0xFB	; 251
    531e:	d6 40       	sbci	r29, 0x06	; 6
    5320:	0f 2e       	mov	r0, r31
    5322:	ff ea       	ldi	r31, 0xAF	; 175
    5324:	cf 2e       	mov	r12, r31
    5326:	dd 24       	eor	r13, r13
    5328:	d3 94       	inc	r13
    532a:	f0 2d       	mov	r31, r0
    532c:	c3 50       	subi	r28, 0x03	; 3
    532e:	d9 4f       	sbci	r29, 0xF9	; 249
    5330:	d9 82       	std	Y+1, r13	; 0x01
    5332:	c8 82       	st	Y, r12
    5334:	cd 5f       	subi	r28, 0xFD	; 253
    5336:	d6 40       	sbci	r29, 0x06	; 6
    5338:	0f 2e       	mov	r0, r31
    533a:	fd ea       	ldi	r31, 0xAD	; 173
    533c:	cf 2e       	mov	r12, r31
    533e:	dd 24       	eor	r13, r13
    5340:	d3 94       	inc	r13
    5342:	f0 2d       	mov	r31, r0
    5344:	c1 50       	subi	r28, 0x01	; 1
    5346:	d9 4f       	sbci	r29, 0xF9	; 249
    5348:	d9 82       	std	Y+1, r13	; 0x01
    534a:	c8 82       	st	Y, r12
    534c:	cf 5f       	subi	r28, 0xFF	; 255
    534e:	d6 40       	sbci	r29, 0x06	; 6
    5350:	0f 2e       	mov	r0, r31
    5352:	fc ea       	ldi	r31, 0xAC	; 172
    5354:	cf 2e       	mov	r12, r31
    5356:	dd 24       	eor	r13, r13
    5358:	d3 94       	inc	r13
    535a:	f0 2d       	mov	r31, r0
    535c:	cf 5f       	subi	r28, 0xFF	; 255
    535e:	d8 4f       	sbci	r29, 0xF8	; 248
    5360:	d9 82       	std	Y+1, r13	; 0x01
    5362:	c8 82       	st	Y, r12
    5364:	c1 50       	subi	r28, 0x01	; 1
    5366:	d7 40       	sbci	r29, 0x07	; 7
    5368:	0f 2e       	mov	r0, r31
    536a:	fb ea       	ldi	r31, 0xAB	; 171
    536c:	cf 2e       	mov	r12, r31
    536e:	dd 24       	eor	r13, r13
    5370:	d3 94       	inc	r13
    5372:	f0 2d       	mov	r31, r0
    5374:	cd 5f       	subi	r28, 0xFD	; 253
    5376:	d8 4f       	sbci	r29, 0xF8	; 248
    5378:	d9 82       	std	Y+1, r13	; 0x01
    537a:	c8 82       	st	Y, r12
    537c:	c3 50       	subi	r28, 0x03	; 3
    537e:	d7 40       	sbci	r29, 0x07	; 7
    5380:	0f 2e       	mov	r0, r31
    5382:	fa ea       	ldi	r31, 0xAA	; 170
    5384:	cf 2e       	mov	r12, r31
    5386:	dd 24       	eor	r13, r13
    5388:	d3 94       	inc	r13
    538a:	f0 2d       	mov	r31, r0
    538c:	cb 5f       	subi	r28, 0xFB	; 251
    538e:	d8 4f       	sbci	r29, 0xF8	; 248
    5390:	d9 82       	std	Y+1, r13	; 0x01
    5392:	c8 82       	st	Y, r12
    5394:	c5 50       	subi	r28, 0x05	; 5
    5396:	d7 40       	sbci	r29, 0x07	; 7
    5398:	0f 2e       	mov	r0, r31
    539a:	f8 ea       	ldi	r31, 0xA8	; 168
    539c:	cf 2e       	mov	r12, r31
    539e:	dd 24       	eor	r13, r13
    53a0:	d3 94       	inc	r13
    53a2:	f0 2d       	mov	r31, r0
    53a4:	c9 5f       	subi	r28, 0xF9	; 249
    53a6:	d8 4f       	sbci	r29, 0xF8	; 248
    53a8:	d9 82       	std	Y+1, r13	; 0x01
    53aa:	c8 82       	st	Y, r12
    53ac:	c7 50       	subi	r28, 0x07	; 7
    53ae:	d7 40       	sbci	r29, 0x07	; 7
    53b0:	0f 2e       	mov	r0, r31
    53b2:	f7 ea       	ldi	r31, 0xA7	; 167
    53b4:	cf 2e       	mov	r12, r31
    53b6:	dd 24       	eor	r13, r13
    53b8:	d3 94       	inc	r13
    53ba:	f0 2d       	mov	r31, r0
    53bc:	c7 5f       	subi	r28, 0xF7	; 247
    53be:	d8 4f       	sbci	r29, 0xF8	; 248
    53c0:	d9 82       	std	Y+1, r13	; 0x01
    53c2:	c8 82       	st	Y, r12
    53c4:	c9 50       	subi	r28, 0x09	; 9
    53c6:	d7 40       	sbci	r29, 0x07	; 7
    53c8:	0f 2e       	mov	r0, r31
    53ca:	f6 ea       	ldi	r31, 0xA6	; 166
    53cc:	cf 2e       	mov	r12, r31
    53ce:	dd 24       	eor	r13, r13
    53d0:	d3 94       	inc	r13
    53d2:	f0 2d       	mov	r31, r0
    53d4:	c5 5f       	subi	r28, 0xF5	; 245
    53d6:	d8 4f       	sbci	r29, 0xF8	; 248
    53d8:	d9 82       	std	Y+1, r13	; 0x01
    53da:	c8 82       	st	Y, r12
    53dc:	cb 50       	subi	r28, 0x0B	; 11
    53de:	d7 40       	sbci	r29, 0x07	; 7
    53e0:	0f 2e       	mov	r0, r31
    53e2:	f5 ea       	ldi	r31, 0xA5	; 165
    53e4:	cf 2e       	mov	r12, r31
    53e6:	dd 24       	eor	r13, r13
    53e8:	d3 94       	inc	r13
    53ea:	f0 2d       	mov	r31, r0
    53ec:	c3 5f       	subi	r28, 0xF3	; 243
    53ee:	d8 4f       	sbci	r29, 0xF8	; 248
    53f0:	d9 82       	std	Y+1, r13	; 0x01
    53f2:	c8 82       	st	Y, r12
    53f4:	cd 50       	subi	r28, 0x0D	; 13
    53f6:	d7 40       	sbci	r29, 0x07	; 7
    53f8:	0f 2e       	mov	r0, r31
    53fa:	f4 ea       	ldi	r31, 0xA4	; 164
    53fc:	cf 2e       	mov	r12, r31
    53fe:	dd 24       	eor	r13, r13
    5400:	d3 94       	inc	r13
    5402:	f0 2d       	mov	r31, r0
    5404:	c1 5f       	subi	r28, 0xF1	; 241
    5406:	d8 4f       	sbci	r29, 0xF8	; 248
    5408:	d9 82       	std	Y+1, r13	; 0x01
    540a:	c8 82       	st	Y, r12
    540c:	cf 50       	subi	r28, 0x0F	; 15
    540e:	d7 40       	sbci	r29, 0x07	; 7
    5410:	0f 2e       	mov	r0, r31
    5412:	f2 ea       	ldi	r31, 0xA2	; 162
    5414:	cf 2e       	mov	r12, r31
    5416:	dd 24       	eor	r13, r13
    5418:	d3 94       	inc	r13
    541a:	f0 2d       	mov	r31, r0
    541c:	cf 5e       	subi	r28, 0xEF	; 239
    541e:	d8 4f       	sbci	r29, 0xF8	; 248
    5420:	d9 82       	std	Y+1, r13	; 0x01
    5422:	c8 82       	st	Y, r12
    5424:	c1 51       	subi	r28, 0x11	; 17
    5426:	d7 40       	sbci	r29, 0x07	; 7
    5428:	0f 2e       	mov	r0, r31
    542a:	f1 ea       	ldi	r31, 0xA1	; 161
    542c:	cf 2e       	mov	r12, r31
    542e:	dd 24       	eor	r13, r13
    5430:	d3 94       	inc	r13
    5432:	f0 2d       	mov	r31, r0
    5434:	cd 5e       	subi	r28, 0xED	; 237
    5436:	d8 4f       	sbci	r29, 0xF8	; 248
    5438:	d9 82       	std	Y+1, r13	; 0x01
    543a:	c8 82       	st	Y, r12
    543c:	c3 51       	subi	r28, 0x13	; 19
    543e:	d7 40       	sbci	r29, 0x07	; 7
    5440:	0f 2e       	mov	r0, r31
    5442:	f0 ea       	ldi	r31, 0xA0	; 160
    5444:	cf 2e       	mov	r12, r31
    5446:	dd 24       	eor	r13, r13
    5448:	d3 94       	inc	r13
    544a:	f0 2d       	mov	r31, r0
    544c:	cb 5e       	subi	r28, 0xEB	; 235
    544e:	d8 4f       	sbci	r29, 0xF8	; 248
    5450:	d9 82       	std	Y+1, r13	; 0x01
    5452:	c8 82       	st	Y, r12
    5454:	c5 51       	subi	r28, 0x15	; 21
    5456:	d7 40       	sbci	r29, 0x07	; 7
    5458:	0f 2e       	mov	r0, r31
    545a:	ff e9       	ldi	r31, 0x9F	; 159
    545c:	cf 2e       	mov	r12, r31
    545e:	dd 24       	eor	r13, r13
    5460:	d3 94       	inc	r13
    5462:	f0 2d       	mov	r31, r0
    5464:	c9 5e       	subi	r28, 0xE9	; 233
    5466:	d8 4f       	sbci	r29, 0xF8	; 248
    5468:	d9 82       	std	Y+1, r13	; 0x01
    546a:	c8 82       	st	Y, r12
    546c:	c7 51       	subi	r28, 0x17	; 23
    546e:	d7 40       	sbci	r29, 0x07	; 7
    5470:	cc 24       	eor	r12, r12
    5472:	c3 94       	inc	r12
    5474:	d1 2c       	mov	r13, r1
    5476:	c7 5e       	subi	r28, 0xE7	; 231
    5478:	d8 4f       	sbci	r29, 0xF8	; 248
    547a:	d9 82       	std	Y+1, r13	; 0x01
    547c:	c8 82       	st	Y, r12
    547e:	c9 51       	subi	r28, 0x19	; 25
    5480:	d7 40       	sbci	r29, 0x07	; 7
    5482:	0f 2e       	mov	r0, r31
    5484:	f3 e0       	ldi	r31, 0x03	; 3
    5486:	cf 2e       	mov	r12, r31
    5488:	d1 2c       	mov	r13, r1
    548a:	f0 2d       	mov	r31, r0
    548c:	c5 5e       	subi	r28, 0xE5	; 229
    548e:	d8 4f       	sbci	r29, 0xF8	; 248
    5490:	d9 82       	std	Y+1, r13	; 0x01
    5492:	c8 82       	st	Y, r12
    5494:	cb 51       	subi	r28, 0x1B	; 27
    5496:	d7 40       	sbci	r29, 0x07	; 7
    5498:	0f 2e       	mov	r0, r31
    549a:	f5 e0       	ldi	r31, 0x05	; 5
    549c:	cf 2e       	mov	r12, r31
    549e:	d1 2c       	mov	r13, r1
    54a0:	f0 2d       	mov	r31, r0
    54a2:	c3 5e       	subi	r28, 0xE3	; 227
    54a4:	d8 4f       	sbci	r29, 0xF8	; 248
    54a6:	d9 82       	std	Y+1, r13	; 0x01
    54a8:	c8 82       	st	Y, r12
    54aa:	cd 51       	subi	r28, 0x1D	; 29
    54ac:	d7 40       	sbci	r29, 0x07	; 7
    54ae:	0f 2e       	mov	r0, r31
    54b0:	f7 e0       	ldi	r31, 0x07	; 7
    54b2:	cf 2e       	mov	r12, r31
    54b4:	d1 2c       	mov	r13, r1
    54b6:	f0 2d       	mov	r31, r0
    54b8:	c1 5e       	subi	r28, 0xE1	; 225
    54ba:	d8 4f       	sbci	r29, 0xF8	; 248
    54bc:	d9 82       	std	Y+1, r13	; 0x01
    54be:	c8 82       	st	Y, r12
    54c0:	cf 51       	subi	r28, 0x1F	; 31
    54c2:	d7 40       	sbci	r29, 0x07	; 7
    54c4:	0f 2e       	mov	r0, r31
    54c6:	f9 e0       	ldi	r31, 0x09	; 9
    54c8:	cf 2e       	mov	r12, r31
    54ca:	d1 2c       	mov	r13, r1
    54cc:	f0 2d       	mov	r31, r0
    54ce:	cf 5d       	subi	r28, 0xDF	; 223
    54d0:	d8 4f       	sbci	r29, 0xF8	; 248
    54d2:	d9 82       	std	Y+1, r13	; 0x01
    54d4:	c8 82       	st	Y, r12
    54d6:	c1 52       	subi	r28, 0x21	; 33
    54d8:	d7 40       	sbci	r29, 0x07	; 7
    54da:	0f 2e       	mov	r0, r31
    54dc:	fb e0       	ldi	r31, 0x0B	; 11
    54de:	cf 2e       	mov	r12, r31
    54e0:	d1 2c       	mov	r13, r1
    54e2:	f0 2d       	mov	r31, r0
    54e4:	cd 5d       	subi	r28, 0xDD	; 221
    54e6:	d8 4f       	sbci	r29, 0xF8	; 248
    54e8:	d9 82       	std	Y+1, r13	; 0x01
    54ea:	c8 82       	st	Y, r12
    54ec:	c3 52       	subi	r28, 0x23	; 35
    54ee:	d7 40       	sbci	r29, 0x07	; 7
    54f0:	0f 2e       	mov	r0, r31
    54f2:	fd e0       	ldi	r31, 0x0D	; 13
    54f4:	cf 2e       	mov	r12, r31
    54f6:	d1 2c       	mov	r13, r1
    54f8:	f0 2d       	mov	r31, r0
    54fa:	cb 5d       	subi	r28, 0xDB	; 219
    54fc:	d8 4f       	sbci	r29, 0xF8	; 248
    54fe:	d9 82       	std	Y+1, r13	; 0x01
    5500:	c8 82       	st	Y, r12
    5502:	c5 52       	subi	r28, 0x25	; 37
    5504:	d7 40       	sbci	r29, 0x07	; 7
    5506:	0f 2e       	mov	r0, r31
    5508:	ff e0       	ldi	r31, 0x0F	; 15
    550a:	cf 2e       	mov	r12, r31
    550c:	d1 2c       	mov	r13, r1
    550e:	f0 2d       	mov	r31, r0
    5510:	c9 5d       	subi	r28, 0xD9	; 217
    5512:	d8 4f       	sbci	r29, 0xF8	; 248
    5514:	d9 82       	std	Y+1, r13	; 0x01
    5516:	c8 82       	st	Y, r12
    5518:	c7 52       	subi	r28, 0x27	; 39
    551a:	d7 40       	sbci	r29, 0x07	; 7
    551c:	0f 2e       	mov	r0, r31
    551e:	f1 e1       	ldi	r31, 0x11	; 17
    5520:	cf 2e       	mov	r12, r31
    5522:	d1 2c       	mov	r13, r1
    5524:	f0 2d       	mov	r31, r0
    5526:	c7 5d       	subi	r28, 0xD7	; 215
    5528:	d8 4f       	sbci	r29, 0xF8	; 248
    552a:	d9 82       	std	Y+1, r13	; 0x01
    552c:	c8 82       	st	Y, r12
    552e:	c9 52       	subi	r28, 0x29	; 41
    5530:	d7 40       	sbci	r29, 0x07	; 7
    5532:	0f 2e       	mov	r0, r31
    5534:	f3 e1       	ldi	r31, 0x13	; 19
    5536:	cf 2e       	mov	r12, r31
    5538:	d1 2c       	mov	r13, r1
    553a:	f0 2d       	mov	r31, r0
    553c:	c5 5d       	subi	r28, 0xD5	; 213
    553e:	d8 4f       	sbci	r29, 0xF8	; 248
    5540:	d9 82       	std	Y+1, r13	; 0x01
    5542:	c8 82       	st	Y, r12
    5544:	cb 52       	subi	r28, 0x2B	; 43
    5546:	d7 40       	sbci	r29, 0x07	; 7
    5548:	0f 2e       	mov	r0, r31
    554a:	f5 e1       	ldi	r31, 0x15	; 21
    554c:	cf 2e       	mov	r12, r31
    554e:	d1 2c       	mov	r13, r1
    5550:	f0 2d       	mov	r31, r0
    5552:	c3 5d       	subi	r28, 0xD3	; 211
    5554:	d8 4f       	sbci	r29, 0xF8	; 248
    5556:	d9 82       	std	Y+1, r13	; 0x01
    5558:	c8 82       	st	Y, r12
    555a:	cd 52       	subi	r28, 0x2D	; 45
    555c:	d7 40       	sbci	r29, 0x07	; 7
    555e:	0f 2e       	mov	r0, r31
    5560:	f7 e1       	ldi	r31, 0x17	; 23
    5562:	cf 2e       	mov	r12, r31
    5564:	d1 2c       	mov	r13, r1
    5566:	f0 2d       	mov	r31, r0
    5568:	c1 5d       	subi	r28, 0xD1	; 209
    556a:	d8 4f       	sbci	r29, 0xF8	; 248
    556c:	d9 82       	std	Y+1, r13	; 0x01
    556e:	c8 82       	st	Y, r12
    5570:	cf 52       	subi	r28, 0x2F	; 47
    5572:	d7 40       	sbci	r29, 0x07	; 7
    5574:	0f 2e       	mov	r0, r31
    5576:	f9 e1       	ldi	r31, 0x19	; 25
    5578:	cf 2e       	mov	r12, r31
    557a:	d1 2c       	mov	r13, r1
    557c:	f0 2d       	mov	r31, r0
    557e:	cf 5c       	subi	r28, 0xCF	; 207
    5580:	d8 4f       	sbci	r29, 0xF8	; 248
    5582:	d9 82       	std	Y+1, r13	; 0x01
    5584:	c8 82       	st	Y, r12
    5586:	c1 53       	subi	r28, 0x31	; 49
    5588:	d7 40       	sbci	r29, 0x07	; 7
    558a:	0f 2e       	mov	r0, r31
    558c:	fb e1       	ldi	r31, 0x1B	; 27
    558e:	cf 2e       	mov	r12, r31
    5590:	d1 2c       	mov	r13, r1
    5592:	f0 2d       	mov	r31, r0
    5594:	cd 5c       	subi	r28, 0xCD	; 205
    5596:	d8 4f       	sbci	r29, 0xF8	; 248
    5598:	d9 82       	std	Y+1, r13	; 0x01
    559a:	c8 82       	st	Y, r12
    559c:	c3 53       	subi	r28, 0x33	; 51
    559e:	d7 40       	sbci	r29, 0x07	; 7
    55a0:	0f 2e       	mov	r0, r31
    55a2:	fd e1       	ldi	r31, 0x1D	; 29
    55a4:	cf 2e       	mov	r12, r31
    55a6:	d1 2c       	mov	r13, r1
    55a8:	f0 2d       	mov	r31, r0
    55aa:	cb 5c       	subi	r28, 0xCB	; 203
    55ac:	d8 4f       	sbci	r29, 0xF8	; 248
    55ae:	d9 82       	std	Y+1, r13	; 0x01
    55b0:	c8 82       	st	Y, r12
    55b2:	c5 53       	subi	r28, 0x35	; 53
    55b4:	d7 40       	sbci	r29, 0x07	; 7
    55b6:	0f 2e       	mov	r0, r31
    55b8:	ff e1       	ldi	r31, 0x1F	; 31
    55ba:	cf 2e       	mov	r12, r31
    55bc:	d1 2c       	mov	r13, r1
    55be:	f0 2d       	mov	r31, r0
    55c0:	c9 5c       	subi	r28, 0xC9	; 201
    55c2:	d8 4f       	sbci	r29, 0xF8	; 248
    55c4:	d9 82       	std	Y+1, r13	; 0x01
    55c6:	c8 82       	st	Y, r12
    55c8:	c7 53       	subi	r28, 0x37	; 55
    55ca:	d7 40       	sbci	r29, 0x07	; 7
    55cc:	0f 2e       	mov	r0, r31
    55ce:	f1 e2       	ldi	r31, 0x21	; 33
    55d0:	cf 2e       	mov	r12, r31
    55d2:	d1 2c       	mov	r13, r1
    55d4:	f0 2d       	mov	r31, r0
    55d6:	c7 5c       	subi	r28, 0xC7	; 199
    55d8:	d8 4f       	sbci	r29, 0xF8	; 248
    55da:	d9 82       	std	Y+1, r13	; 0x01
    55dc:	c8 82       	st	Y, r12
    55de:	c9 53       	subi	r28, 0x39	; 57
    55e0:	d7 40       	sbci	r29, 0x07	; 7
    55e2:	0f 2e       	mov	r0, r31
    55e4:	f3 e2       	ldi	r31, 0x23	; 35
    55e6:	cf 2e       	mov	r12, r31
    55e8:	d1 2c       	mov	r13, r1
    55ea:	f0 2d       	mov	r31, r0
    55ec:	c5 5c       	subi	r28, 0xC5	; 197
    55ee:	d8 4f       	sbci	r29, 0xF8	; 248
    55f0:	d9 82       	std	Y+1, r13	; 0x01
    55f2:	c8 82       	st	Y, r12
    55f4:	cb 53       	subi	r28, 0x3B	; 59
    55f6:	d7 40       	sbci	r29, 0x07	; 7
    55f8:	0f 2e       	mov	r0, r31
    55fa:	f5 e2       	ldi	r31, 0x25	; 37
    55fc:	cf 2e       	mov	r12, r31
    55fe:	d1 2c       	mov	r13, r1
    5600:	f0 2d       	mov	r31, r0
    5602:	c3 5c       	subi	r28, 0xC3	; 195
    5604:	d8 4f       	sbci	r29, 0xF8	; 248
    5606:	d9 82       	std	Y+1, r13	; 0x01
    5608:	c8 82       	st	Y, r12
    560a:	cd 53       	subi	r28, 0x3D	; 61
    560c:	d7 40       	sbci	r29, 0x07	; 7
    560e:	0f 2e       	mov	r0, r31
    5610:	f7 e2       	ldi	r31, 0x27	; 39
    5612:	cf 2e       	mov	r12, r31
    5614:	d1 2c       	mov	r13, r1
    5616:	f0 2d       	mov	r31, r0
    5618:	c1 5c       	subi	r28, 0xC1	; 193
    561a:	d8 4f       	sbci	r29, 0xF8	; 248
    561c:	d9 82       	std	Y+1, r13	; 0x01
    561e:	c8 82       	st	Y, r12
    5620:	cf 53       	subi	r28, 0x3F	; 63
    5622:	d7 40       	sbci	r29, 0x07	; 7
    5624:	0f 2e       	mov	r0, r31
    5626:	f9 e2       	ldi	r31, 0x29	; 41
    5628:	cf 2e       	mov	r12, r31
    562a:	d1 2c       	mov	r13, r1
    562c:	f0 2d       	mov	r31, r0
    562e:	cf 5b       	subi	r28, 0xBF	; 191
    5630:	d8 4f       	sbci	r29, 0xF8	; 248
    5632:	d9 82       	std	Y+1, r13	; 0x01
    5634:	c8 82       	st	Y, r12
    5636:	c1 54       	subi	r28, 0x41	; 65
    5638:	d7 40       	sbci	r29, 0x07	; 7
    563a:	0f 2e       	mov	r0, r31
    563c:	fb e2       	ldi	r31, 0x2B	; 43
    563e:	cf 2e       	mov	r12, r31
    5640:	d1 2c       	mov	r13, r1
    5642:	f0 2d       	mov	r31, r0
    5644:	cd 5b       	subi	r28, 0xBD	; 189
    5646:	d8 4f       	sbci	r29, 0xF8	; 248
    5648:	d9 82       	std	Y+1, r13	; 0x01
    564a:	c8 82       	st	Y, r12
    564c:	c3 54       	subi	r28, 0x43	; 67
    564e:	d7 40       	sbci	r29, 0x07	; 7
    5650:	0f 2e       	mov	r0, r31
    5652:	fd e2       	ldi	r31, 0x2D	; 45
    5654:	cf 2e       	mov	r12, r31
    5656:	d1 2c       	mov	r13, r1
    5658:	f0 2d       	mov	r31, r0
    565a:	cb 5b       	subi	r28, 0xBB	; 187
    565c:	d8 4f       	sbci	r29, 0xF8	; 248
    565e:	d9 82       	std	Y+1, r13	; 0x01
    5660:	c8 82       	st	Y, r12
    5662:	c5 54       	subi	r28, 0x45	; 69
    5664:	d7 40       	sbci	r29, 0x07	; 7
    5666:	0f 2e       	mov	r0, r31
    5668:	ff e2       	ldi	r31, 0x2F	; 47
    566a:	cf 2e       	mov	r12, r31
    566c:	d1 2c       	mov	r13, r1
    566e:	f0 2d       	mov	r31, r0
    5670:	c9 5b       	subi	r28, 0xB9	; 185
    5672:	d8 4f       	sbci	r29, 0xF8	; 248
    5674:	d9 82       	std	Y+1, r13	; 0x01
    5676:	c8 82       	st	Y, r12
    5678:	c7 54       	subi	r28, 0x47	; 71
    567a:	d7 40       	sbci	r29, 0x07	; 7
    567c:	0f 2e       	mov	r0, r31
    567e:	f1 e3       	ldi	r31, 0x31	; 49
    5680:	cf 2e       	mov	r12, r31
    5682:	d1 2c       	mov	r13, r1
    5684:	f0 2d       	mov	r31, r0
    5686:	c7 5b       	subi	r28, 0xB7	; 183
    5688:	d8 4f       	sbci	r29, 0xF8	; 248
    568a:	d9 82       	std	Y+1, r13	; 0x01
    568c:	c8 82       	st	Y, r12
    568e:	c9 54       	subi	r28, 0x49	; 73
    5690:	d7 40       	sbci	r29, 0x07	; 7
    5692:	0f 2e       	mov	r0, r31
    5694:	f3 e3       	ldi	r31, 0x33	; 51
    5696:	cf 2e       	mov	r12, r31
    5698:	d1 2c       	mov	r13, r1
    569a:	f0 2d       	mov	r31, r0
    569c:	c5 5b       	subi	r28, 0xB5	; 181
    569e:	d8 4f       	sbci	r29, 0xF8	; 248
    56a0:	d9 82       	std	Y+1, r13	; 0x01
    56a2:	c8 82       	st	Y, r12
    56a4:	cb 54       	subi	r28, 0x4B	; 75
    56a6:	d7 40       	sbci	r29, 0x07	; 7
    56a8:	0f 2e       	mov	r0, r31
    56aa:	f5 e3       	ldi	r31, 0x35	; 53
    56ac:	cf 2e       	mov	r12, r31
    56ae:	d1 2c       	mov	r13, r1
    56b0:	f0 2d       	mov	r31, r0
    56b2:	c3 5b       	subi	r28, 0xB3	; 179
    56b4:	d8 4f       	sbci	r29, 0xF8	; 248
    56b6:	d9 82       	std	Y+1, r13	; 0x01
    56b8:	c8 82       	st	Y, r12
    56ba:	cd 54       	subi	r28, 0x4D	; 77
    56bc:	d7 40       	sbci	r29, 0x07	; 7
    56be:	0f 2e       	mov	r0, r31
    56c0:	f7 e3       	ldi	r31, 0x37	; 55
    56c2:	cf 2e       	mov	r12, r31
    56c4:	d1 2c       	mov	r13, r1
    56c6:	f0 2d       	mov	r31, r0
    56c8:	c1 5b       	subi	r28, 0xB1	; 177
    56ca:	d8 4f       	sbci	r29, 0xF8	; 248
    56cc:	d9 82       	std	Y+1, r13	; 0x01
    56ce:	c8 82       	st	Y, r12
    56d0:	cf 54       	subi	r28, 0x4F	; 79
    56d2:	d7 40       	sbci	r29, 0x07	; 7
    56d4:	0f 2e       	mov	r0, r31
    56d6:	f9 e3       	ldi	r31, 0x39	; 57
    56d8:	cf 2e       	mov	r12, r31
    56da:	d1 2c       	mov	r13, r1
    56dc:	f0 2d       	mov	r31, r0
    56de:	cf 5a       	subi	r28, 0xAF	; 175
    56e0:	d8 4f       	sbci	r29, 0xF8	; 248
    56e2:	d9 82       	std	Y+1, r13	; 0x01
    56e4:	c8 82       	st	Y, r12
    56e6:	c1 55       	subi	r28, 0x51	; 81
    56e8:	d7 40       	sbci	r29, 0x07	; 7
    56ea:	0f 2e       	mov	r0, r31
    56ec:	fb e3       	ldi	r31, 0x3B	; 59
    56ee:	cf 2e       	mov	r12, r31
    56f0:	d1 2c       	mov	r13, r1
    56f2:	f0 2d       	mov	r31, r0
    56f4:	cd 5a       	subi	r28, 0xAD	; 173
    56f6:	d8 4f       	sbci	r29, 0xF8	; 248
    56f8:	d9 82       	std	Y+1, r13	; 0x01
    56fa:	c8 82       	st	Y, r12
    56fc:	c3 55       	subi	r28, 0x53	; 83
    56fe:	d7 40       	sbci	r29, 0x07	; 7
    5700:	0f 2e       	mov	r0, r31
    5702:	fd e3       	ldi	r31, 0x3D	; 61
    5704:	cf 2e       	mov	r12, r31
    5706:	d1 2c       	mov	r13, r1
    5708:	f0 2d       	mov	r31, r0
    570a:	cb 5a       	subi	r28, 0xAB	; 171
    570c:	d8 4f       	sbci	r29, 0xF8	; 248
    570e:	d9 82       	std	Y+1, r13	; 0x01
    5710:	c8 82       	st	Y, r12
    5712:	c5 55       	subi	r28, 0x55	; 85
    5714:	d7 40       	sbci	r29, 0x07	; 7
    5716:	0f 2e       	mov	r0, r31
    5718:	ff e3       	ldi	r31, 0x3F	; 63
    571a:	cf 2e       	mov	r12, r31
    571c:	d1 2c       	mov	r13, r1
    571e:	f0 2d       	mov	r31, r0
    5720:	c9 5a       	subi	r28, 0xA9	; 169
    5722:	d8 4f       	sbci	r29, 0xF8	; 248
    5724:	d9 82       	std	Y+1, r13	; 0x01
    5726:	c8 82       	st	Y, r12
    5728:	c7 55       	subi	r28, 0x57	; 87
    572a:	d7 40       	sbci	r29, 0x07	; 7
    572c:	0f 2e       	mov	r0, r31
    572e:	f1 e4       	ldi	r31, 0x41	; 65
    5730:	cf 2e       	mov	r12, r31
    5732:	d1 2c       	mov	r13, r1
    5734:	f0 2d       	mov	r31, r0
    5736:	c7 5a       	subi	r28, 0xA7	; 167
    5738:	d8 4f       	sbci	r29, 0xF8	; 248
    573a:	d9 82       	std	Y+1, r13	; 0x01
    573c:	c8 82       	st	Y, r12
    573e:	c9 55       	subi	r28, 0x59	; 89
    5740:	d7 40       	sbci	r29, 0x07	; 7
    5742:	0f 2e       	mov	r0, r31
    5744:	f3 e4       	ldi	r31, 0x43	; 67
    5746:	cf 2e       	mov	r12, r31
    5748:	d1 2c       	mov	r13, r1
    574a:	f0 2d       	mov	r31, r0
    574c:	c5 5a       	subi	r28, 0xA5	; 165
    574e:	d8 4f       	sbci	r29, 0xF8	; 248
    5750:	d9 82       	std	Y+1, r13	; 0x01
    5752:	c8 82       	st	Y, r12
    5754:	cb 55       	subi	r28, 0x5B	; 91
    5756:	d7 40       	sbci	r29, 0x07	; 7
    5758:	0f 2e       	mov	r0, r31
    575a:	f5 e4       	ldi	r31, 0x45	; 69
    575c:	cf 2e       	mov	r12, r31
    575e:	d1 2c       	mov	r13, r1
    5760:	f0 2d       	mov	r31, r0
    5762:	c3 5a       	subi	r28, 0xA3	; 163
    5764:	d8 4f       	sbci	r29, 0xF8	; 248
    5766:	d9 82       	std	Y+1, r13	; 0x01
    5768:	c8 82       	st	Y, r12
    576a:	cd 55       	subi	r28, 0x5D	; 93
    576c:	d7 40       	sbci	r29, 0x07	; 7
    576e:	0f 2e       	mov	r0, r31
    5770:	f7 e4       	ldi	r31, 0x47	; 71
    5772:	cf 2e       	mov	r12, r31
    5774:	d1 2c       	mov	r13, r1
    5776:	f0 2d       	mov	r31, r0
    5778:	c1 5a       	subi	r28, 0xA1	; 161
    577a:	d8 4f       	sbci	r29, 0xF8	; 248
    577c:	d9 82       	std	Y+1, r13	; 0x01
    577e:	c8 82       	st	Y, r12
    5780:	cf 55       	subi	r28, 0x5F	; 95
    5782:	d7 40       	sbci	r29, 0x07	; 7
    5784:	0f 2e       	mov	r0, r31
    5786:	f9 e4       	ldi	r31, 0x49	; 73
    5788:	cf 2e       	mov	r12, r31
    578a:	d1 2c       	mov	r13, r1
    578c:	f0 2d       	mov	r31, r0
    578e:	cf 59       	subi	r28, 0x9F	; 159
    5790:	d8 4f       	sbci	r29, 0xF8	; 248
    5792:	d9 82       	std	Y+1, r13	; 0x01
    5794:	c8 82       	st	Y, r12
    5796:	c1 56       	subi	r28, 0x61	; 97
    5798:	d7 40       	sbci	r29, 0x07	; 7
    579a:	0f 2e       	mov	r0, r31
    579c:	fb e4       	ldi	r31, 0x4B	; 75
    579e:	cf 2e       	mov	r12, r31
    57a0:	d1 2c       	mov	r13, r1
    57a2:	f0 2d       	mov	r31, r0
    57a4:	cd 59       	subi	r28, 0x9D	; 157
    57a6:	d8 4f       	sbci	r29, 0xF8	; 248
    57a8:	d9 82       	std	Y+1, r13	; 0x01
    57aa:	c8 82       	st	Y, r12
    57ac:	c3 56       	subi	r28, 0x63	; 99
    57ae:	d7 40       	sbci	r29, 0x07	; 7
    57b0:	0f 2e       	mov	r0, r31
    57b2:	fd e4       	ldi	r31, 0x4D	; 77
    57b4:	cf 2e       	mov	r12, r31
    57b6:	d1 2c       	mov	r13, r1
    57b8:	f0 2d       	mov	r31, r0
    57ba:	cb 59       	subi	r28, 0x9B	; 155
    57bc:	d8 4f       	sbci	r29, 0xF8	; 248
    57be:	d9 82       	std	Y+1, r13	; 0x01
    57c0:	c8 82       	st	Y, r12
    57c2:	c5 56       	subi	r28, 0x65	; 101
    57c4:	d7 40       	sbci	r29, 0x07	; 7
    57c6:	0f 2e       	mov	r0, r31
    57c8:	ff e4       	ldi	r31, 0x4F	; 79
    57ca:	cf 2e       	mov	r12, r31
    57cc:	d1 2c       	mov	r13, r1
    57ce:	f0 2d       	mov	r31, r0
    57d0:	c9 59       	subi	r28, 0x99	; 153
    57d2:	d8 4f       	sbci	r29, 0xF8	; 248
    57d4:	d9 82       	std	Y+1, r13	; 0x01
    57d6:	c8 82       	st	Y, r12
    57d8:	c7 56       	subi	r28, 0x67	; 103
    57da:	d7 40       	sbci	r29, 0x07	; 7
    57dc:	0f 2e       	mov	r0, r31
    57de:	f1 e5       	ldi	r31, 0x51	; 81
    57e0:	cf 2e       	mov	r12, r31
    57e2:	d1 2c       	mov	r13, r1
    57e4:	f0 2d       	mov	r31, r0
    57e6:	c7 59       	subi	r28, 0x97	; 151
    57e8:	d8 4f       	sbci	r29, 0xF8	; 248
    57ea:	d9 82       	std	Y+1, r13	; 0x01
    57ec:	c8 82       	st	Y, r12
    57ee:	c9 56       	subi	r28, 0x69	; 105
    57f0:	d7 40       	sbci	r29, 0x07	; 7
    57f2:	0f 2e       	mov	r0, r31
    57f4:	f3 e5       	ldi	r31, 0x53	; 83
    57f6:	cf 2e       	mov	r12, r31
    57f8:	d1 2c       	mov	r13, r1
    57fa:	f0 2d       	mov	r31, r0
    57fc:	c5 59       	subi	r28, 0x95	; 149
    57fe:	d8 4f       	sbci	r29, 0xF8	; 248
    5800:	d9 82       	std	Y+1, r13	; 0x01
    5802:	c8 82       	st	Y, r12
    5804:	cb 56       	subi	r28, 0x6B	; 107
    5806:	d7 40       	sbci	r29, 0x07	; 7
    5808:	c3 59       	subi	r28, 0x93	; 147
    580a:	d8 4f       	sbci	r29, 0xF8	; 248
    580c:	f9 82       	std	Y+1, r15	; 0x01
    580e:	e8 82       	st	Y, r14
    5810:	cd 56       	subi	r28, 0x6D	; 109
    5812:	d7 40       	sbci	r29, 0x07	; 7
    5814:	0f 2e       	mov	r0, r31
    5816:	f7 e5       	ldi	r31, 0x57	; 87
    5818:	ef 2e       	mov	r14, r31
    581a:	f1 2c       	mov	r15, r1
    581c:	f0 2d       	mov	r31, r0
    581e:	c1 59       	subi	r28, 0x91	; 145
    5820:	d8 4f       	sbci	r29, 0xF8	; 248
    5822:	f9 82       	std	Y+1, r15	; 0x01
    5824:	e8 82       	st	Y, r14
    5826:	cf 56       	subi	r28, 0x6F	; 111
    5828:	d7 40       	sbci	r29, 0x07	; 7
    582a:	0f 2e       	mov	r0, r31
    582c:	f9 e5       	ldi	r31, 0x59	; 89
    582e:	ef 2e       	mov	r14, r31
    5830:	f1 2c       	mov	r15, r1
    5832:	f0 2d       	mov	r31, r0
    5834:	cf 58       	subi	r28, 0x8F	; 143
    5836:	d8 4f       	sbci	r29, 0xF8	; 248
    5838:	f9 82       	std	Y+1, r15	; 0x01
    583a:	e8 82       	st	Y, r14
    583c:	c1 57       	subi	r28, 0x71	; 113
    583e:	d7 40       	sbci	r29, 0x07	; 7
    5840:	0f 2e       	mov	r0, r31
    5842:	fb e5       	ldi	r31, 0x5B	; 91
    5844:	ef 2e       	mov	r14, r31
    5846:	f1 2c       	mov	r15, r1
    5848:	f0 2d       	mov	r31, r0
    584a:	cd 58       	subi	r28, 0x8D	; 141
    584c:	d8 4f       	sbci	r29, 0xF8	; 248
    584e:	f9 82       	std	Y+1, r15	; 0x01
    5850:	e8 82       	st	Y, r14
    5852:	c3 57       	subi	r28, 0x73	; 115
    5854:	d7 40       	sbci	r29, 0x07	; 7
    5856:	0f 2e       	mov	r0, r31
    5858:	fd e5       	ldi	r31, 0x5D	; 93
    585a:	ef 2e       	mov	r14, r31
    585c:	f1 2c       	mov	r15, r1
    585e:	f0 2d       	mov	r31, r0
    5860:	cb 58       	subi	r28, 0x8B	; 139
    5862:	d8 4f       	sbci	r29, 0xF8	; 248
    5864:	f9 82       	std	Y+1, r15	; 0x01
    5866:	e8 82       	st	Y, r14
    5868:	c5 57       	subi	r28, 0x75	; 117
    586a:	d7 40       	sbci	r29, 0x07	; 7
    586c:	0f 2e       	mov	r0, r31
    586e:	ff e5       	ldi	r31, 0x5F	; 95
    5870:	ef 2e       	mov	r14, r31
    5872:	f1 2c       	mov	r15, r1
    5874:	f0 2d       	mov	r31, r0
    5876:	c9 58       	subi	r28, 0x89	; 137
    5878:	d8 4f       	sbci	r29, 0xF8	; 248
    587a:	f9 82       	std	Y+1, r15	; 0x01
    587c:	e8 82       	st	Y, r14
    587e:	c7 57       	subi	r28, 0x77	; 119
    5880:	d7 40       	sbci	r29, 0x07	; 7
    5882:	c7 58       	subi	r28, 0x87	; 135
    5884:	d8 4f       	sbci	r29, 0xF8	; 248
    5886:	19 83       	std	Y+1, r17	; 0x01
    5888:	08 83       	st	Y, r16
    588a:	c9 57       	subi	r28, 0x79	; 121
    588c:	d7 40       	sbci	r29, 0x07	; 7
    588e:	03 e6       	ldi	r16, 0x63	; 99
    5890:	10 e0       	ldi	r17, 0x00	; 0
    5892:	c5 58       	subi	r28, 0x85	; 133
    5894:	d8 4f       	sbci	r29, 0xF8	; 248
    5896:	19 83       	std	Y+1, r17	; 0x01
    5898:	08 83       	st	Y, r16
    589a:	cb 57       	subi	r28, 0x7B	; 123
    589c:	d7 40       	sbci	r29, 0x07	; 7
    589e:	05 e6       	ldi	r16, 0x65	; 101
    58a0:	10 e0       	ldi	r17, 0x00	; 0
    58a2:	c3 58       	subi	r28, 0x83	; 131
    58a4:	d8 4f       	sbci	r29, 0xF8	; 248
    58a6:	19 83       	std	Y+1, r17	; 0x01
    58a8:	08 83       	st	Y, r16
    58aa:	cd 57       	subi	r28, 0x7D	; 125
    58ac:	d7 40       	sbci	r29, 0x07	; 7
    58ae:	c1 58       	subi	r28, 0x81	; 129
    58b0:	d8 4f       	sbci	r29, 0xF8	; 248
    58b2:	b9 83       	std	Y+1, r27	; 0x01
    58b4:	a8 83       	st	Y, r26
    58b6:	cf 57       	subi	r28, 0x7F	; 127
    58b8:	d7 40       	sbci	r29, 0x07	; 7
    58ba:	a9 e6       	ldi	r26, 0x69	; 105
    58bc:	b0 e0       	ldi	r27, 0x00	; 0
    58be:	cf 57       	subi	r28, 0x7F	; 127
    58c0:	d8 4f       	sbci	r29, 0xF8	; 248
    58c2:	b9 83       	std	Y+1, r27	; 0x01
    58c4:	a8 83       	st	Y, r26
    58c6:	c1 58       	subi	r28, 0x81	; 129
    58c8:	d7 40       	sbci	r29, 0x07	; 7
    58ca:	ab e6       	ldi	r26, 0x6B	; 107
    58cc:	b0 e0       	ldi	r27, 0x00	; 0
    58ce:	cd 57       	subi	r28, 0x7D	; 125
    58d0:	d8 4f       	sbci	r29, 0xF8	; 248
    58d2:	b9 83       	std	Y+1, r27	; 0x01
    58d4:	a8 83       	st	Y, r26
    58d6:	c3 58       	subi	r28, 0x83	; 131
    58d8:	d7 40       	sbci	r29, 0x07	; 7
    58da:	cb 57       	subi	r28, 0x7B	; 123
    58dc:	d8 4f       	sbci	r29, 0xF8	; 248
    58de:	f9 83       	std	Y+1, r31	; 0x01
    58e0:	e8 83       	st	Y, r30
    58e2:	c5 58       	subi	r28, 0x85	; 133
    58e4:	d7 40       	sbci	r29, 0x07	; 7
    58e6:	ef e6       	ldi	r30, 0x6F	; 111
    58e8:	f0 e0       	ldi	r31, 0x00	; 0
    58ea:	c9 57       	subi	r28, 0x79	; 121
    58ec:	d8 4f       	sbci	r29, 0xF8	; 248
    58ee:	f9 83       	std	Y+1, r31	; 0x01
    58f0:	e8 83       	st	Y, r30
    58f2:	c7 58       	subi	r28, 0x87	; 135
    58f4:	d7 40       	sbci	r29, 0x07	; 7
    58f6:	e1 e7       	ldi	r30, 0x71	; 113
    58f8:	f0 e0       	ldi	r31, 0x00	; 0
    58fa:	c7 57       	subi	r28, 0x77	; 119
    58fc:	d8 4f       	sbci	r29, 0xF8	; 248
    58fe:	f9 83       	std	Y+1, r31	; 0x01
    5900:	e8 83       	st	Y, r30
    5902:	c9 58       	subi	r28, 0x89	; 137
    5904:	d7 40       	sbci	r29, 0x07	; 7
    5906:	c5 57       	subi	r28, 0x75	; 117
    5908:	d8 4f       	sbci	r29, 0xF8	; 248
    590a:	79 83       	std	Y+1, r23	; 0x01
    590c:	68 83       	st	Y, r22
    590e:	cb 58       	subi	r28, 0x8B	; 139
    5910:	d7 40       	sbci	r29, 0x07	; 7
    5912:	65 e7       	ldi	r22, 0x75	; 117
    5914:	70 e0       	ldi	r23, 0x00	; 0
    5916:	c3 57       	subi	r28, 0x73	; 115
    5918:	d8 4f       	sbci	r29, 0xF8	; 248
    591a:	79 83       	std	Y+1, r23	; 0x01
    591c:	68 83       	st	Y, r22
    591e:	cd 58       	subi	r28, 0x8D	; 141
    5920:	d7 40       	sbci	r29, 0x07	; 7
    5922:	67 e7       	ldi	r22, 0x77	; 119
    5924:	70 e0       	ldi	r23, 0x00	; 0
    5926:	c1 57       	subi	r28, 0x71	; 113
    5928:	d8 4f       	sbci	r29, 0xF8	; 248
    592a:	79 83       	std	Y+1, r23	; 0x01
    592c:	68 83       	st	Y, r22
    592e:	cf 58       	subi	r28, 0x8F	; 143
    5930:	d7 40       	sbci	r29, 0x07	; 7
    5932:	cf 56       	subi	r28, 0x6F	; 111
    5934:	d8 4f       	sbci	r29, 0xF8	; 248
    5936:	59 83       	std	Y+1, r21	; 0x01
    5938:	48 83       	st	Y, r20
    593a:	c1 59       	subi	r28, 0x91	; 145
    593c:	d7 40       	sbci	r29, 0x07	; 7
    593e:	4b e7       	ldi	r20, 0x7B	; 123
    5940:	50 e0       	ldi	r21, 0x00	; 0
    5942:	cd 56       	subi	r28, 0x6D	; 109
    5944:	d8 4f       	sbci	r29, 0xF8	; 248
    5946:	59 83       	std	Y+1, r21	; 0x01
    5948:	48 83       	st	Y, r20
    594a:	c3 59       	subi	r28, 0x93	; 147
    594c:	d7 40       	sbci	r29, 0x07	; 7
    594e:	4d e7       	ldi	r20, 0x7D	; 125
    5950:	50 e0       	ldi	r21, 0x00	; 0
    5952:	cb 56       	subi	r28, 0x6B	; 107
    5954:	d8 4f       	sbci	r29, 0xF8	; 248
    5956:	59 83       	std	Y+1, r21	; 0x01
    5958:	48 83       	st	Y, r20
    595a:	c5 59       	subi	r28, 0x95	; 149
    595c:	d7 40       	sbci	r29, 0x07	; 7
    595e:	c9 56       	subi	r28, 0x69	; 105
    5960:	d8 4f       	sbci	r29, 0xF8	; 248
    5962:	39 83       	std	Y+1, r19	; 0x01
    5964:	28 83       	st	Y, r18
    5966:	c7 59       	subi	r28, 0x97	; 151
    5968:	d7 40       	sbci	r29, 0x07	; 7
    596a:	21 e8       	ldi	r18, 0x81	; 129
    596c:	30 e0       	ldi	r19, 0x00	; 0
    596e:	c7 56       	subi	r28, 0x67	; 103
    5970:	d8 4f       	sbci	r29, 0xF8	; 248
    5972:	39 83       	std	Y+1, r19	; 0x01
    5974:	28 83       	st	Y, r18
    5976:	c9 59       	subi	r28, 0x99	; 153
    5978:	d7 40       	sbci	r29, 0x07	; 7
    597a:	23 e8       	ldi	r18, 0x83	; 131
    597c:	30 e0       	ldi	r19, 0x00	; 0
    597e:	c5 56       	subi	r28, 0x65	; 101
    5980:	d8 4f       	sbci	r29, 0xF8	; 248
    5982:	39 83       	std	Y+1, r19	; 0x01
    5984:	28 83       	st	Y, r18
    5986:	cb 59       	subi	r28, 0x9B	; 155
    5988:	d7 40       	sbci	r29, 0x07	; 7
    598a:	c3 56       	subi	r28, 0x63	; 99
    598c:	d8 4f       	sbci	r29, 0xF8	; 248
    598e:	b9 82       	std	Y+1, r11	; 0x01
    5990:	a8 82       	st	Y, r10
    5992:	cd 59       	subi	r28, 0x9D	; 157
    5994:	d7 40       	sbci	r29, 0x07	; 7
    5996:	27 e8       	ldi	r18, 0x87	; 135
    5998:	30 e0       	ldi	r19, 0x00	; 0
    599a:	c1 56       	subi	r28, 0x61	; 97
    599c:	d8 4f       	sbci	r29, 0xF8	; 248
    599e:	39 83       	std	Y+1, r19	; 0x01
    59a0:	28 83       	st	Y, r18
    59a2:	cf 59       	subi	r28, 0x9F	; 159
    59a4:	d7 40       	sbci	r29, 0x07	; 7
    59a6:	29 e8       	ldi	r18, 0x89	; 137
    59a8:	30 e0       	ldi	r19, 0x00	; 0
    59aa:	cf 55       	subi	r28, 0x5F	; 95
    59ac:	d8 4f       	sbci	r29, 0xF8	; 248
    59ae:	39 83       	std	Y+1, r19	; 0x01
    59b0:	28 83       	st	Y, r18
    59b2:	c1 5a       	subi	r28, 0xA1	; 161
    59b4:	d7 40       	sbci	r29, 0x07	; 7
    59b6:	cd 55       	subi	r28, 0x5D	; 93
    59b8:	d8 4f       	sbci	r29, 0xF8	; 248
    59ba:	99 82       	std	Y+1, r9	; 0x01
    59bc:	88 82       	st	Y, r8
    59be:	c3 5a       	subi	r28, 0xA3	; 163
    59c0:	d7 40       	sbci	r29, 0x07	; 7
    59c2:	2d e8       	ldi	r18, 0x8D	; 141
    59c4:	30 e0       	ldi	r19, 0x00	; 0
    59c6:	cb 55       	subi	r28, 0x5B	; 91
    59c8:	d8 4f       	sbci	r29, 0xF8	; 248
    59ca:	39 83       	std	Y+1, r19	; 0x01
    59cc:	28 83       	st	Y, r18
    59ce:	c5 5a       	subi	r28, 0xA5	; 165
    59d0:	d7 40       	sbci	r29, 0x07	; 7
    59d2:	2f e8       	ldi	r18, 0x8F	; 143
    59d4:	30 e0       	ldi	r19, 0x00	; 0
    59d6:	c9 55       	subi	r28, 0x59	; 89
    59d8:	d8 4f       	sbci	r29, 0xF8	; 248
    59da:	39 83       	std	Y+1, r19	; 0x01
    59dc:	28 83       	st	Y, r18
    59de:	c7 5a       	subi	r28, 0xA7	; 167
    59e0:	d7 40       	sbci	r29, 0x07	; 7
    59e2:	c7 55       	subi	r28, 0x57	; 87
    59e4:	d8 4f       	sbci	r29, 0xF8	; 248
    59e6:	79 82       	std	Y+1, r7	; 0x01
    59e8:	68 82       	st	Y, r6
    59ea:	c9 5a       	subi	r28, 0xA9	; 169
    59ec:	d7 40       	sbci	r29, 0x07	; 7
    59ee:	23 e9       	ldi	r18, 0x93	; 147
    59f0:	30 e0       	ldi	r19, 0x00	; 0
    59f2:	c5 55       	subi	r28, 0x55	; 85
    59f4:	d8 4f       	sbci	r29, 0xF8	; 248
    59f6:	39 83       	std	Y+1, r19	; 0x01
    59f8:	28 83       	st	Y, r18
    59fa:	cb 5a       	subi	r28, 0xAB	; 171
    59fc:	d7 40       	sbci	r29, 0x07	; 7
    59fe:	25 e9       	ldi	r18, 0x95	; 149
    5a00:	30 e0       	ldi	r19, 0x00	; 0
    5a02:	c3 55       	subi	r28, 0x53	; 83
    5a04:	d8 4f       	sbci	r29, 0xF8	; 248
    5a06:	39 83       	std	Y+1, r19	; 0x01
    5a08:	28 83       	st	Y, r18
    5a0a:	cd 5a       	subi	r28, 0xAD	; 173
    5a0c:	d7 40       	sbci	r29, 0x07	; 7
    5a0e:	c1 55       	subi	r28, 0x51	; 81
    5a10:	d8 4f       	sbci	r29, 0xF8	; 248
    5a12:	59 82       	std	Y+1, r5	; 0x01
    5a14:	48 82       	st	Y, r4
    5a16:	cf 5a       	subi	r28, 0xAF	; 175
    5a18:	d7 40       	sbci	r29, 0x07	; 7
    5a1a:	29 e9       	ldi	r18, 0x99	; 153
    5a1c:	30 e0       	ldi	r19, 0x00	; 0
    5a1e:	cf 54       	subi	r28, 0x4F	; 79
    5a20:	d8 4f       	sbci	r29, 0xF8	; 248
    5a22:	39 83       	std	Y+1, r19	; 0x01
    5a24:	28 83       	st	Y, r18
    5a26:	c1 5b       	subi	r28, 0xB1	; 177
    5a28:	d7 40       	sbci	r29, 0x07	; 7
    5a2a:	2b e9       	ldi	r18, 0x9B	; 155
    5a2c:	30 e0       	ldi	r19, 0x00	; 0
    5a2e:	cd 54       	subi	r28, 0x4D	; 77
    5a30:	d8 4f       	sbci	r29, 0xF8	; 248
    5a32:	39 83       	std	Y+1, r19	; 0x01
    5a34:	28 83       	st	Y, r18
    5a36:	c3 5b       	subi	r28, 0xB3	; 179
    5a38:	d7 40       	sbci	r29, 0x07	; 7
    5a3a:	cb 54       	subi	r28, 0x4B	; 75
    5a3c:	d8 4f       	sbci	r29, 0xF8	; 248
    5a3e:	39 82       	std	Y+1, r3	; 0x01
    5a40:	28 82       	st	Y, r2
    5a42:	c5 5b       	subi	r28, 0xB5	; 181
    5a44:	d7 40       	sbci	r29, 0x07	; 7
    5a46:	2f e9       	ldi	r18, 0x9F	; 159
    5a48:	30 e0       	ldi	r19, 0x00	; 0
    5a4a:	c9 54       	subi	r28, 0x49	; 73
    5a4c:	d8 4f       	sbci	r29, 0xF8	; 248
    5a4e:	39 83       	std	Y+1, r19	; 0x01
    5a50:	28 83       	st	Y, r18
    5a52:	c7 5b       	subi	r28, 0xB7	; 183
    5a54:	d7 40       	sbci	r29, 0x07	; 7
    5a56:	21 ea       	ldi	r18, 0xA1	; 161
    5a58:	30 e0       	ldi	r19, 0x00	; 0
    5a5a:	c7 54       	subi	r28, 0x47	; 71
    5a5c:	d8 4f       	sbci	r29, 0xF8	; 248
    5a5e:	39 83       	std	Y+1, r19	; 0x01
    5a60:	28 83       	st	Y, r18
    5a62:	c9 5b       	subi	r28, 0xB9	; 185
    5a64:	d7 40       	sbci	r29, 0x07	; 7
    5a66:	03 ea       	ldi	r16, 0xA3	; 163
    5a68:	10 e0       	ldi	r17, 0x00	; 0
    5a6a:	c5 54       	subi	r28, 0x45	; 69
    5a6c:	d8 4f       	sbci	r29, 0xF8	; 248
    5a6e:	19 83       	std	Y+1, r17	; 0x01
    5a70:	08 83       	st	Y, r16
    5a72:	cb 5b       	subi	r28, 0xBB	; 187
    5a74:	d7 40       	sbci	r29, 0x07	; 7
    5a76:	25 ea       	ldi	r18, 0xA5	; 165
    5a78:	30 e0       	ldi	r19, 0x00	; 0
    5a7a:	c3 54       	subi	r28, 0x43	; 67
    5a7c:	d8 4f       	sbci	r29, 0xF8	; 248
    5a7e:	39 83       	std	Y+1, r19	; 0x01
    5a80:	28 83       	st	Y, r18
    5a82:	cd 5b       	subi	r28, 0xBD	; 189
    5a84:	d7 40       	sbci	r29, 0x07	; 7
    5a86:	27 ea       	ldi	r18, 0xA7	; 167
    5a88:	30 e0       	ldi	r19, 0x00	; 0
    5a8a:	c1 54       	subi	r28, 0x41	; 65
    5a8c:	d8 4f       	sbci	r29, 0xF8	; 248
    5a8e:	39 83       	std	Y+1, r19	; 0x01
    5a90:	28 83       	st	Y, r18
    5a92:	cf 5b       	subi	r28, 0xBF	; 191
    5a94:	d7 40       	sbci	r29, 0x07	; 7
    5a96:	29 ea       	ldi	r18, 0xA9	; 169
    5a98:	30 e0       	ldi	r19, 0x00	; 0
    5a9a:	cf 53       	subi	r28, 0x3F	; 63
    5a9c:	d8 4f       	sbci	r29, 0xF8	; 248
    5a9e:	39 83       	std	Y+1, r19	; 0x01
    5aa0:	28 83       	st	Y, r18
    5aa2:	c1 5c       	subi	r28, 0xC1	; 193
    5aa4:	d7 40       	sbci	r29, 0x07	; 7
    5aa6:	2b ea       	ldi	r18, 0xAB	; 171
    5aa8:	30 e0       	ldi	r19, 0x00	; 0
    5aaa:	cd 53       	subi	r28, 0x3D	; 61
    5aac:	d8 4f       	sbci	r29, 0xF8	; 248
    5aae:	39 83       	std	Y+1, r19	; 0x01
    5ab0:	28 83       	st	Y, r18
    5ab2:	c3 5c       	subi	r28, 0xC3	; 195
    5ab4:	d7 40       	sbci	r29, 0x07	; 7
    5ab6:	2d ea       	ldi	r18, 0xAD	; 173
    5ab8:	30 e0       	ldi	r19, 0x00	; 0
    5aba:	cb 53       	subi	r28, 0x3B	; 59
    5abc:	d8 4f       	sbci	r29, 0xF8	; 248
    5abe:	39 83       	std	Y+1, r19	; 0x01
    5ac0:	28 83       	st	Y, r18
    5ac2:	c5 5c       	subi	r28, 0xC5	; 197
    5ac4:	d7 40       	sbci	r29, 0x07	; 7
    5ac6:	4f ea       	ldi	r20, 0xAF	; 175
    5ac8:	50 e0       	ldi	r21, 0x00	; 0
    5aca:	c9 53       	subi	r28, 0x39	; 57
    5acc:	d8 4f       	sbci	r29, 0xF8	; 248
    5ace:	59 83       	std	Y+1, r21	; 0x01
    5ad0:	48 83       	st	Y, r20
    5ad2:	c7 5c       	subi	r28, 0xC7	; 199
    5ad4:	d7 40       	sbci	r29, 0x07	; 7
    5ad6:	21 eb       	ldi	r18, 0xB1	; 177
    5ad8:	30 e0       	ldi	r19, 0x00	; 0
    5ada:	c7 53       	subi	r28, 0x37	; 55
    5adc:	d8 4f       	sbci	r29, 0xF8	; 248
    5ade:	39 83       	std	Y+1, r19	; 0x01
    5ae0:	28 83       	st	Y, r18
    5ae2:	c9 5c       	subi	r28, 0xC9	; 201
    5ae4:	d7 40       	sbci	r29, 0x07	; 7
    5ae6:	23 eb       	ldi	r18, 0xB3	; 179
    5ae8:	30 e0       	ldi	r19, 0x00	; 0
    5aea:	c5 53       	subi	r28, 0x35	; 53
    5aec:	d8 4f       	sbci	r29, 0xF8	; 248
    5aee:	39 83       	std	Y+1, r19	; 0x01
    5af0:	28 83       	st	Y, r18
    5af2:	cb 5c       	subi	r28, 0xCB	; 203
    5af4:	d7 40       	sbci	r29, 0x07	; 7
    5af6:	65 eb       	ldi	r22, 0xB5	; 181
    5af8:	70 e0       	ldi	r23, 0x00	; 0
    5afa:	c3 53       	subi	r28, 0x33	; 51
    5afc:	d8 4f       	sbci	r29, 0xF8	; 248
    5afe:	79 83       	std	Y+1, r23	; 0x01
    5b00:	68 83       	st	Y, r22
    5b02:	cd 5c       	subi	r28, 0xCD	; 205
    5b04:	d7 40       	sbci	r29, 0x07	; 7
    5b06:	27 eb       	ldi	r18, 0xB7	; 183
    5b08:	30 e0       	ldi	r19, 0x00	; 0
    5b0a:	c1 53       	subi	r28, 0x31	; 49
    5b0c:	d8 4f       	sbci	r29, 0xF8	; 248
    5b0e:	39 83       	std	Y+1, r19	; 0x01
    5b10:	28 83       	st	Y, r18
    5b12:	cf 5c       	subi	r28, 0xCF	; 207
    5b14:	d7 40       	sbci	r29, 0x07	; 7
    5b16:	29 eb       	ldi	r18, 0xB9	; 185
    5b18:	30 e0       	ldi	r19, 0x00	; 0
    5b1a:	cf 52       	subi	r28, 0x2F	; 47
    5b1c:	d8 4f       	sbci	r29, 0xF8	; 248
    5b1e:	39 83       	std	Y+1, r19	; 0x01
    5b20:	28 83       	st	Y, r18
    5b22:	c1 5d       	subi	r28, 0xD1	; 209
    5b24:	d7 40       	sbci	r29, 0x07	; 7
    5b26:	ab eb       	ldi	r26, 0xBB	; 187
    5b28:	b0 e0       	ldi	r27, 0x00	; 0
    5b2a:	cd 52       	subi	r28, 0x2D	; 45
    5b2c:	d8 4f       	sbci	r29, 0xF8	; 248
    5b2e:	b9 83       	std	Y+1, r27	; 0x01
    5b30:	a8 83       	st	Y, r26
    5b32:	c3 5d       	subi	r28, 0xD3	; 211
    5b34:	d7 40       	sbci	r29, 0x07	; 7
    5b36:	2d eb       	ldi	r18, 0xBD	; 189
    5b38:	30 e0       	ldi	r19, 0x00	; 0
    5b3a:	cb 52       	subi	r28, 0x2B	; 43
    5b3c:	d8 4f       	sbci	r29, 0xF8	; 248
    5b3e:	39 83       	std	Y+1, r19	; 0x01
    5b40:	28 83       	st	Y, r18
    5b42:	c5 5d       	subi	r28, 0xD5	; 213
    5b44:	d7 40       	sbci	r29, 0x07	; 7
    5b46:	2f eb       	ldi	r18, 0xBF	; 191
    5b48:	30 e0       	ldi	r19, 0x00	; 0
    5b4a:	c9 52       	subi	r28, 0x29	; 41
    5b4c:	d8 4f       	sbci	r29, 0xF8	; 248
    5b4e:	39 83       	std	Y+1, r19	; 0x01
    5b50:	28 83       	st	Y, r18
    5b52:	c7 5d       	subi	r28, 0xD7	; 215
    5b54:	d7 40       	sbci	r29, 0x07	; 7
    5b56:	e1 ec       	ldi	r30, 0xC1	; 193
    5b58:	f0 e0       	ldi	r31, 0x00	; 0
    5b5a:	c7 52       	subi	r28, 0x27	; 39
    5b5c:	d8 4f       	sbci	r29, 0xF8	; 248
    5b5e:	f9 83       	std	Y+1, r31	; 0x01
    5b60:	e8 83       	st	Y, r30
    5b62:	c9 5d       	subi	r28, 0xD9	; 217
    5b64:	d7 40       	sbci	r29, 0x07	; 7
    5b66:	23 ec       	ldi	r18, 0xC3	; 195
    5b68:	30 e0       	ldi	r19, 0x00	; 0
    5b6a:	c5 52       	subi	r28, 0x25	; 37
    5b6c:	d8 4f       	sbci	r29, 0xF8	; 248
    5b6e:	39 83       	std	Y+1, r19	; 0x01
    5b70:	28 83       	st	Y, r18
    5b72:	cb 5d       	subi	r28, 0xDB	; 219
    5b74:	d7 40       	sbci	r29, 0x07	; 7
    5b76:	25 ec       	ldi	r18, 0xC5	; 197
    5b78:	30 e0       	ldi	r19, 0x00	; 0
    5b7a:	c3 52       	subi	r28, 0x23	; 35
    5b7c:	d8 4f       	sbci	r29, 0xF8	; 248
    5b7e:	39 83       	std	Y+1, r19	; 0x01
    5b80:	28 83       	st	Y, r18
    5b82:	cd 5d       	subi	r28, 0xDD	; 221
    5b84:	d7 40       	sbci	r29, 0x07	; 7
    5b86:	0f 2e       	mov	r0, r31
    5b88:	f7 ec       	ldi	r31, 0xC7	; 199
    5b8a:	cf 2e       	mov	r12, r31
    5b8c:	d1 2c       	mov	r13, r1
    5b8e:	f0 2d       	mov	r31, r0
    5b90:	c1 52       	subi	r28, 0x21	; 33
    5b92:	d8 4f       	sbci	r29, 0xF8	; 248
    5b94:	d9 82       	std	Y+1, r13	; 0x01
    5b96:	c8 82       	st	Y, r12
    5b98:	cf 5d       	subi	r28, 0xDF	; 223
    5b9a:	d7 40       	sbci	r29, 0x07	; 7
    5b9c:	29 ec       	ldi	r18, 0xC9	; 201
    5b9e:	30 e0       	ldi	r19, 0x00	; 0
    5ba0:	cf 51       	subi	r28, 0x1F	; 31
    5ba2:	d8 4f       	sbci	r29, 0xF8	; 248
    5ba4:	39 83       	std	Y+1, r19	; 0x01
    5ba6:	28 83       	st	Y, r18
    5ba8:	c1 5e       	subi	r28, 0xE1	; 225
    5baa:	d7 40       	sbci	r29, 0x07	; 7
    5bac:	2b ec       	ldi	r18, 0xCB	; 203
    5bae:	30 e0       	ldi	r19, 0x00	; 0
    5bb0:	cd 51       	subi	r28, 0x1D	; 29
    5bb2:	d8 4f       	sbci	r29, 0xF8	; 248
    5bb4:	39 83       	std	Y+1, r19	; 0x01
    5bb6:	28 83       	st	Y, r18
    5bb8:	c3 5e       	subi	r28, 0xE3	; 227
    5bba:	d7 40       	sbci	r29, 0x07	; 7
    5bbc:	cb 51       	subi	r28, 0x1B	; 27
    5bbe:	d8 4f       	sbci	r29, 0xF8	; 248
    5bc0:	99 83       	std	Y+1, r25	; 0x01
    5bc2:	88 83       	st	Y, r24
    5bc4:	c5 5e       	subi	r28, 0xE5	; 229
    5bc6:	d7 40       	sbci	r29, 0x07	; 7
    5bc8:	8f ec       	ldi	r24, 0xCF	; 207
    5bca:	90 e0       	ldi	r25, 0x00	; 0
    5bcc:	c9 51       	subi	r28, 0x19	; 25
    5bce:	d8 4f       	sbci	r29, 0xF8	; 248
    5bd0:	99 83       	std	Y+1, r25	; 0x01
    5bd2:	88 83       	st	Y, r24
    5bd4:	c7 5e       	subi	r28, 0xE7	; 231
    5bd6:	d7 40       	sbci	r29, 0x07	; 7
    5bd8:	81 ed       	ldi	r24, 0xD1	; 209
    5bda:	90 e0       	ldi	r25, 0x00	; 0
    5bdc:	c7 51       	subi	r28, 0x17	; 23
    5bde:	d8 4f       	sbci	r29, 0xF8	; 248
    5be0:	99 83       	std	Y+1, r25	; 0x01
    5be2:	88 83       	st	Y, r24
    5be4:	c9 5e       	subi	r28, 0xE9	; 233
    5be6:	d7 40       	sbci	r29, 0x07	; 7
    5be8:	03 ed       	ldi	r16, 0xD3	; 211
    5bea:	10 e0       	ldi	r17, 0x00	; 0
    5bec:	c5 51       	subi	r28, 0x15	; 21
    5bee:	d8 4f       	sbci	r29, 0xF8	; 248
    5bf0:	19 83       	std	Y+1, r17	; 0x01
    5bf2:	08 83       	st	Y, r16
    5bf4:	cb 5e       	subi	r28, 0xEB	; 235
    5bf6:	d7 40       	sbci	r29, 0x07	; 7
    5bf8:	85 ed       	ldi	r24, 0xD5	; 213
    5bfa:	90 e0       	ldi	r25, 0x00	; 0
    5bfc:	c3 51       	subi	r28, 0x13	; 19
    5bfe:	d8 4f       	sbci	r29, 0xF8	; 248
    5c00:	99 83       	std	Y+1, r25	; 0x01
    5c02:	88 83       	st	Y, r24
    5c04:	cd 5e       	subi	r28, 0xED	; 237
    5c06:	d7 40       	sbci	r29, 0x07	; 7
    5c08:	87 ed       	ldi	r24, 0xD7	; 215
    5c0a:	90 e0       	ldi	r25, 0x00	; 0
    5c0c:	c1 51       	subi	r28, 0x11	; 17
    5c0e:	d8 4f       	sbci	r29, 0xF8	; 248
    5c10:	99 83       	std	Y+1, r25	; 0x01
    5c12:	88 83       	st	Y, r24
    5c14:	cf 5e       	subi	r28, 0xEF	; 239
    5c16:	d7 40       	sbci	r29, 0x07	; 7
    5c18:	89 ed       	ldi	r24, 0xD9	; 217
    5c1a:	90 e0       	ldi	r25, 0x00	; 0
    5c1c:	cf 50       	subi	r28, 0x0F	; 15
    5c1e:	d8 4f       	sbci	r29, 0xF8	; 248
    5c20:	99 83       	std	Y+1, r25	; 0x01
    5c22:	88 83       	st	Y, r24
    5c24:	c1 5f       	subi	r28, 0xF1	; 241
    5c26:	d7 40       	sbci	r29, 0x07	; 7
    5c28:	8b ed       	ldi	r24, 0xDB	; 219
    5c2a:	90 e0       	ldi	r25, 0x00	; 0
    5c2c:	cd 50       	subi	r28, 0x0D	; 13
    5c2e:	d8 4f       	sbci	r29, 0xF8	; 248
    5c30:	99 83       	std	Y+1, r25	; 0x01
    5c32:	88 83       	st	Y, r24
    5c34:	c3 5f       	subi	r28, 0xF3	; 243
    5c36:	d7 40       	sbci	r29, 0x07	; 7
    5c38:	0f 2e       	mov	r0, r31
    5c3a:	fd ed       	ldi	r31, 0xDD	; 221
    5c3c:	2f 2e       	mov	r2, r31
    5c3e:	31 2c       	mov	r3, r1
    5c40:	f0 2d       	mov	r31, r0
    5c42:	cb 50       	subi	r28, 0x0B	; 11
    5c44:	d8 4f       	sbci	r29, 0xF8	; 248
    5c46:	39 82       	std	Y+1, r3	; 0x01
    5c48:	28 82       	st	Y, r2
    5c4a:	c5 5f       	subi	r28, 0xF5	; 245
    5c4c:	d7 40       	sbci	r29, 0x07	; 7
    5c4e:	0f 2e       	mov	r0, r31
    5c50:	ff ed       	ldi	r31, 0xDF	; 223
    5c52:	4f 2e       	mov	r4, r31
    5c54:	51 2c       	mov	r5, r1
    5c56:	f0 2d       	mov	r31, r0
    5c58:	c9 50       	subi	r28, 0x09	; 9
    5c5a:	d8 4f       	sbci	r29, 0xF8	; 248
    5c5c:	59 82       	std	Y+1, r5	; 0x01
    5c5e:	48 82       	st	Y, r4
    5c60:	c7 5f       	subi	r28, 0xF7	; 247
    5c62:	d7 40       	sbci	r29, 0x07	; 7
    5c64:	0f 2e       	mov	r0, r31
    5c66:	f1 ee       	ldi	r31, 0xE1	; 225
    5c68:	6f 2e       	mov	r6, r31
    5c6a:	71 2c       	mov	r7, r1
    5c6c:	f0 2d       	mov	r31, r0
    5c6e:	c7 50       	subi	r28, 0x07	; 7
    5c70:	d8 4f       	sbci	r29, 0xF8	; 248
    5c72:	79 82       	std	Y+1, r7	; 0x01
    5c74:	68 82       	st	Y, r6
    5c76:	c9 5f       	subi	r28, 0xF9	; 249
    5c78:	d7 40       	sbci	r29, 0x07	; 7
    5c7a:	83 ee       	ldi	r24, 0xE3	; 227
    5c7c:	90 e0       	ldi	r25, 0x00	; 0
    5c7e:	c5 50       	subi	r28, 0x05	; 5
    5c80:	d8 4f       	sbci	r29, 0xF8	; 248
    5c82:	99 83       	std	Y+1, r25	; 0x01
    5c84:	88 83       	st	Y, r24
    5c86:	cb 5f       	subi	r28, 0xFB	; 251
    5c88:	d7 40       	sbci	r29, 0x07	; 7
    5c8a:	85 ee       	ldi	r24, 0xE5	; 229
    5c8c:	90 e0       	ldi	r25, 0x00	; 0
    5c8e:	c3 50       	subi	r28, 0x03	; 3
    5c90:	d8 4f       	sbci	r29, 0xF8	; 248
    5c92:	99 83       	std	Y+1, r25	; 0x01
    5c94:	88 83       	st	Y, r24
    5c96:	cd 5f       	subi	r28, 0xFD	; 253
    5c98:	d7 40       	sbci	r29, 0x07	; 7
    5c9a:	87 ee       	ldi	r24, 0xE7	; 231
    5c9c:	90 e0       	ldi	r25, 0x00	; 0
    5c9e:	c1 50       	subi	r28, 0x01	; 1
    5ca0:	d8 4f       	sbci	r29, 0xF8	; 248
    5ca2:	99 83       	std	Y+1, r25	; 0x01
    5ca4:	88 83       	st	Y, r24
    5ca6:	cf 5f       	subi	r28, 0xFF	; 255
    5ca8:	d7 40       	sbci	r29, 0x07	; 7
    5caa:	89 ee       	ldi	r24, 0xE9	; 233
    5cac:	90 e0       	ldi	r25, 0x00	; 0
    5cae:	cf 5f       	subi	r28, 0xFF	; 255
    5cb0:	d7 4f       	sbci	r29, 0xF7	; 247
    5cb2:	99 83       	std	Y+1, r25	; 0x01
    5cb4:	88 83       	st	Y, r24
    5cb6:	c1 50       	subi	r28, 0x01	; 1
    5cb8:	d8 40       	sbci	r29, 0x08	; 8
    5cba:	8b ee       	ldi	r24, 0xEB	; 235
    5cbc:	90 e0       	ldi	r25, 0x00	; 0
    5cbe:	cd 5f       	subi	r28, 0xFD	; 253
    5cc0:	d7 4f       	sbci	r29, 0xF7	; 247
    5cc2:	99 83       	std	Y+1, r25	; 0x01
    5cc4:	88 83       	st	Y, r24
    5cc6:	c3 50       	subi	r28, 0x03	; 3
    5cc8:	d8 40       	sbci	r29, 0x08	; 8
    5cca:	0f 2e       	mov	r0, r31
    5ccc:	fd ee       	ldi	r31, 0xED	; 237
    5cce:	8f 2e       	mov	r8, r31
    5cd0:	91 2c       	mov	r9, r1
    5cd2:	f0 2d       	mov	r31, r0
    5cd4:	cb 5f       	subi	r28, 0xFB	; 251
    5cd6:	d7 4f       	sbci	r29, 0xF7	; 247
    5cd8:	99 82       	std	Y+1, r9	; 0x01
    5cda:	88 82       	st	Y, r8
    5cdc:	c5 50       	subi	r28, 0x05	; 5
    5cde:	d8 40       	sbci	r29, 0x08	; 8
    5ce0:	0f 2e       	mov	r0, r31
    5ce2:	ff ee       	ldi	r31, 0xEF	; 239
    5ce4:	af 2e       	mov	r10, r31
    5ce6:	b1 2c       	mov	r11, r1
    5ce8:	f0 2d       	mov	r31, r0
    5cea:	c9 5f       	subi	r28, 0xF9	; 249
    5cec:	d7 4f       	sbci	r29, 0xF7	; 247
    5cee:	b9 82       	std	Y+1, r11	; 0x01
    5cf0:	a8 82       	st	Y, r10
    5cf2:	c7 50       	subi	r28, 0x07	; 7
    5cf4:	d8 40       	sbci	r29, 0x08	; 8
    5cf6:	81 ef       	ldi	r24, 0xF1	; 241
    5cf8:	90 e0       	ldi	r25, 0x00	; 0
    5cfa:	c7 5f       	subi	r28, 0xF7	; 247
    5cfc:	d7 4f       	sbci	r29, 0xF7	; 247
    5cfe:	99 83       	std	Y+1, r25	; 0x01
    5d00:	88 83       	st	Y, r24
    5d02:	c9 50       	subi	r28, 0x09	; 9
    5d04:	d8 40       	sbci	r29, 0x08	; 8
    5d06:	23 ef       	ldi	r18, 0xF3	; 243
    5d08:	30 e0       	ldi	r19, 0x00	; 0
    5d0a:	c5 5f       	subi	r28, 0xF5	; 245
    5d0c:	d7 4f       	sbci	r29, 0xF7	; 247
    5d0e:	39 83       	std	Y+1, r19	; 0x01
    5d10:	28 83       	st	Y, r18
    5d12:	cb 50       	subi	r28, 0x0B	; 11
    5d14:	d8 40       	sbci	r29, 0x08	; 8
    5d16:	45 ef       	ldi	r20, 0xF5	; 245
    5d18:	50 e0       	ldi	r21, 0x00	; 0
    5d1a:	c3 5f       	subi	r28, 0xF3	; 243
    5d1c:	d7 4f       	sbci	r29, 0xF7	; 247
    5d1e:	59 83       	std	Y+1, r21	; 0x01
    5d20:	48 83       	st	Y, r20
    5d22:	cd 50       	subi	r28, 0x0D	; 13
    5d24:	d8 40       	sbci	r29, 0x08	; 8
    5d26:	67 ef       	ldi	r22, 0xF7	; 247
    5d28:	70 e0       	ldi	r23, 0x00	; 0
    5d2a:	c1 5f       	subi	r28, 0xF1	; 241
    5d2c:	d7 4f       	sbci	r29, 0xF7	; 247
    5d2e:	79 83       	std	Y+1, r23	; 0x01
    5d30:	68 83       	st	Y, r22
    5d32:	cf 50       	subi	r28, 0x0F	; 15
    5d34:	d8 40       	sbci	r29, 0x08	; 8
    5d36:	e9 ef       	ldi	r30, 0xF9	; 249
    5d38:	f0 e0       	ldi	r31, 0x00	; 0
    5d3a:	cf 5e       	subi	r28, 0xEF	; 239
    5d3c:	d7 4f       	sbci	r29, 0xF7	; 247
    5d3e:	f9 83       	std	Y+1, r31	; 0x01
    5d40:	e8 83       	st	Y, r30
    5d42:	c1 51       	subi	r28, 0x11	; 17
    5d44:	d8 40       	sbci	r29, 0x08	; 8
    5d46:	ab ef       	ldi	r26, 0xFB	; 251
    5d48:	b0 e0       	ldi	r27, 0x00	; 0
    5d4a:	cd 5e       	subi	r28, 0xED	; 237
    5d4c:	d7 4f       	sbci	r29, 0xF7	; 247
    5d4e:	b9 83       	std	Y+1, r27	; 0x01
    5d50:	a8 83       	st	Y, r26
    5d52:	c3 51       	subi	r28, 0x13	; 19
    5d54:	d8 40       	sbci	r29, 0x08	; 8
    5d56:	0d ef       	ldi	r16, 0xFD	; 253
    5d58:	10 e0       	ldi	r17, 0x00	; 0
    5d5a:	cb 5e       	subi	r28, 0xEB	; 235
    5d5c:	d7 4f       	sbci	r29, 0xF7	; 247
    5d5e:	19 83       	std	Y+1, r17	; 0x01
    5d60:	08 83       	st	Y, r16
    5d62:	c5 51       	subi	r28, 0x15	; 21
    5d64:	d8 40       	sbci	r29, 0x08	; 8
    5d66:	ee 24       	eor	r14, r14
    5d68:	ea 94       	dec	r14
    5d6a:	f1 2c       	mov	r15, r1
    5d6c:	c9 5e       	subi	r28, 0xE9	; 233
    5d6e:	d7 4f       	sbci	r29, 0xF7	; 247
    5d70:	f9 82       	std	Y+1, r15	; 0x01
    5d72:	e8 82       	st	Y, r14
    5d74:	c7 51       	subi	r28, 0x17	; 23
    5d76:	d8 40       	sbci	r29, 0x08	; 8
    5d78:	0f 2e       	mov	r0, r31
    5d7a:	fc e6       	ldi	r31, 0x6C	; 108
    5d7c:	cf 2e       	mov	r12, r31
    5d7e:	dd 24       	eor	r13, r13
    5d80:	d3 94       	inc	r13
    5d82:	f0 2d       	mov	r31, r0
    5d84:	c7 5e       	subi	r28, 0xE7	; 231
    5d86:	d7 4f       	sbci	r29, 0xF7	; 247
    5d88:	d9 82       	std	Y+1, r13	; 0x01
    5d8a:	c8 82       	st	Y, r12
    5d8c:	c9 51       	subi	r28, 0x19	; 25
    5d8e:	d8 40       	sbci	r29, 0x08	; 8
    5d90:	0f 2e       	mov	r0, r31
    5d92:	fa e6       	ldi	r31, 0x6A	; 106
    5d94:	cf 2e       	mov	r12, r31
    5d96:	dd 24       	eor	r13, r13
    5d98:	d3 94       	inc	r13
    5d9a:	f0 2d       	mov	r31, r0
    5d9c:	c5 5e       	subi	r28, 0xE5	; 229
    5d9e:	d7 4f       	sbci	r29, 0xF7	; 247
    5da0:	d9 82       	std	Y+1, r13	; 0x01
    5da2:	c8 82       	st	Y, r12
    5da4:	cb 51       	subi	r28, 0x1B	; 27
    5da6:	d8 40       	sbci	r29, 0x08	; 8
    5da8:	0f 2e       	mov	r0, r31
    5daa:	f9 e6       	ldi	r31, 0x69	; 105
    5dac:	cf 2e       	mov	r12, r31
    5dae:	dd 24       	eor	r13, r13
    5db0:	d3 94       	inc	r13
    5db2:	f0 2d       	mov	r31, r0
    5db4:	c3 5e       	subi	r28, 0xE3	; 227
    5db6:	d7 4f       	sbci	r29, 0xF7	; 247
    5db8:	d9 82       	std	Y+1, r13	; 0x01
    5dba:	c8 82       	st	Y, r12
    5dbc:	cd 51       	subi	r28, 0x1D	; 29
    5dbe:	d8 40       	sbci	r29, 0x08	; 8
    5dc0:	0f 2e       	mov	r0, r31
    5dc2:	f8 e6       	ldi	r31, 0x68	; 104
    5dc4:	cf 2e       	mov	r12, r31
    5dc6:	dd 24       	eor	r13, r13
    5dc8:	d3 94       	inc	r13
    5dca:	f0 2d       	mov	r31, r0
    5dcc:	c1 5e       	subi	r28, 0xE1	; 225
    5dce:	d7 4f       	sbci	r29, 0xF7	; 247
    5dd0:	d9 82       	std	Y+1, r13	; 0x01
    5dd2:	c8 82       	st	Y, r12
    5dd4:	cf 51       	subi	r28, 0x1F	; 31
    5dd6:	d8 40       	sbci	r29, 0x08	; 8
    5dd8:	0f 2e       	mov	r0, r31
    5dda:	f6 e6       	ldi	r31, 0x66	; 102
    5ddc:	cf 2e       	mov	r12, r31
    5dde:	dd 24       	eor	r13, r13
    5de0:	d3 94       	inc	r13
    5de2:	f0 2d       	mov	r31, r0
    5de4:	cf 5d       	subi	r28, 0xDF	; 223
    5de6:	d7 4f       	sbci	r29, 0xF7	; 247
    5de8:	d9 82       	std	Y+1, r13	; 0x01
    5dea:	c8 82       	st	Y, r12
    5dec:	c1 52       	subi	r28, 0x21	; 33
    5dee:	d8 40       	sbci	r29, 0x08	; 8
    5df0:	0f 2e       	mov	r0, r31
    5df2:	f5 e6       	ldi	r31, 0x65	; 101
    5df4:	cf 2e       	mov	r12, r31
    5df6:	dd 24       	eor	r13, r13
    5df8:	d3 94       	inc	r13
    5dfa:	f0 2d       	mov	r31, r0
    5dfc:	cd 5d       	subi	r28, 0xDD	; 221
    5dfe:	d7 4f       	sbci	r29, 0xF7	; 247
    5e00:	d9 82       	std	Y+1, r13	; 0x01
    5e02:	c8 82       	st	Y, r12
    5e04:	c3 52       	subi	r28, 0x23	; 35
    5e06:	d8 40       	sbci	r29, 0x08	; 8
    5e08:	0f 2e       	mov	r0, r31
    5e0a:	f4 e6       	ldi	r31, 0x64	; 100
    5e0c:	cf 2e       	mov	r12, r31
    5e0e:	dd 24       	eor	r13, r13
    5e10:	d3 94       	inc	r13
    5e12:	f0 2d       	mov	r31, r0
    5e14:	cb 5d       	subi	r28, 0xDB	; 219
    5e16:	d7 4f       	sbci	r29, 0xF7	; 247
    5e18:	d9 82       	std	Y+1, r13	; 0x01
    5e1a:	c8 82       	st	Y, r12
    5e1c:	c5 52       	subi	r28, 0x25	; 37
    5e1e:	d8 40       	sbci	r29, 0x08	; 8
    5e20:	0f 2e       	mov	r0, r31
    5e22:	f2 e6       	ldi	r31, 0x62	; 98
    5e24:	cf 2e       	mov	r12, r31
    5e26:	dd 24       	eor	r13, r13
    5e28:	d3 94       	inc	r13
    5e2a:	f0 2d       	mov	r31, r0
    5e2c:	c9 5d       	subi	r28, 0xD9	; 217
    5e2e:	d7 4f       	sbci	r29, 0xF7	; 247
    5e30:	d9 82       	std	Y+1, r13	; 0x01
    5e32:	c8 82       	st	Y, r12
    5e34:	c7 52       	subi	r28, 0x27	; 39
    5e36:	d8 40       	sbci	r29, 0x08	; 8
    5e38:	0f 2e       	mov	r0, r31
    5e3a:	f1 e6       	ldi	r31, 0x61	; 97
    5e3c:	cf 2e       	mov	r12, r31
    5e3e:	dd 24       	eor	r13, r13
    5e40:	d3 94       	inc	r13
    5e42:	f0 2d       	mov	r31, r0
    5e44:	c7 5d       	subi	r28, 0xD7	; 215
    5e46:	d7 4f       	sbci	r29, 0xF7	; 247
    5e48:	d9 82       	std	Y+1, r13	; 0x01
    5e4a:	c8 82       	st	Y, r12
    5e4c:	c9 52       	subi	r28, 0x29	; 41
    5e4e:	d8 40       	sbci	r29, 0x08	; 8
    5e50:	0f 2e       	mov	r0, r31
    5e52:	ff e5       	ldi	r31, 0x5F	; 95
    5e54:	cf 2e       	mov	r12, r31
    5e56:	dd 24       	eor	r13, r13
    5e58:	d3 94       	inc	r13
    5e5a:	f0 2d       	mov	r31, r0
    5e5c:	c5 5d       	subi	r28, 0xD5	; 213
    5e5e:	d7 4f       	sbci	r29, 0xF7	; 247
    5e60:	d9 82       	std	Y+1, r13	; 0x01
    5e62:	c8 82       	st	Y, r12
    5e64:	cb 52       	subi	r28, 0x2B	; 43
    5e66:	d8 40       	sbci	r29, 0x08	; 8
    5e68:	0f 2e       	mov	r0, r31
    5e6a:	fe e5       	ldi	r31, 0x5E	; 94
    5e6c:	cf 2e       	mov	r12, r31
    5e6e:	dd 24       	eor	r13, r13
    5e70:	d3 94       	inc	r13
    5e72:	f0 2d       	mov	r31, r0
    5e74:	c3 5d       	subi	r28, 0xD3	; 211
    5e76:	d7 4f       	sbci	r29, 0xF7	; 247
    5e78:	d9 82       	std	Y+1, r13	; 0x01
    5e7a:	c8 82       	st	Y, r12
    5e7c:	cd 52       	subi	r28, 0x2D	; 45
    5e7e:	d8 40       	sbci	r29, 0x08	; 8
    5e80:	0f 2e       	mov	r0, r31
    5e82:	fc e5       	ldi	r31, 0x5C	; 92
    5e84:	cf 2e       	mov	r12, r31
    5e86:	dd 24       	eor	r13, r13
    5e88:	d3 94       	inc	r13
    5e8a:	f0 2d       	mov	r31, r0
    5e8c:	c1 5d       	subi	r28, 0xD1	; 209
    5e8e:	d7 4f       	sbci	r29, 0xF7	; 247
    5e90:	d9 82       	std	Y+1, r13	; 0x01
    5e92:	c8 82       	st	Y, r12
    5e94:	cf 52       	subi	r28, 0x2F	; 47
    5e96:	d8 40       	sbci	r29, 0x08	; 8
    5e98:	0f 2e       	mov	r0, r31
    5e9a:	fb e5       	ldi	r31, 0x5B	; 91
    5e9c:	cf 2e       	mov	r12, r31
    5e9e:	dd 24       	eor	r13, r13
    5ea0:	d3 94       	inc	r13
    5ea2:	f0 2d       	mov	r31, r0
    5ea4:	cf 5c       	subi	r28, 0xCF	; 207
    5ea6:	d7 4f       	sbci	r29, 0xF7	; 247
    5ea8:	d9 82       	std	Y+1, r13	; 0x01
    5eaa:	c8 82       	st	Y, r12
    5eac:	c1 53       	subi	r28, 0x31	; 49
    5eae:	d8 40       	sbci	r29, 0x08	; 8
    5eb0:	0f 2e       	mov	r0, r31
    5eb2:	fa e5       	ldi	r31, 0x5A	; 90
    5eb4:	cf 2e       	mov	r12, r31
    5eb6:	dd 24       	eor	r13, r13
    5eb8:	d3 94       	inc	r13
    5eba:	f0 2d       	mov	r31, r0
    5ebc:	cd 5c       	subi	r28, 0xCD	; 205
    5ebe:	d7 4f       	sbci	r29, 0xF7	; 247
    5ec0:	d9 82       	std	Y+1, r13	; 0x01
    5ec2:	c8 82       	st	Y, r12
    5ec4:	c3 53       	subi	r28, 0x33	; 51
    5ec6:	d8 40       	sbci	r29, 0x08	; 8
    5ec8:	0f 2e       	mov	r0, r31
    5eca:	f8 e5       	ldi	r31, 0x58	; 88
    5ecc:	cf 2e       	mov	r12, r31
    5ece:	dd 24       	eor	r13, r13
    5ed0:	d3 94       	inc	r13
    5ed2:	f0 2d       	mov	r31, r0
    5ed4:	cb 5c       	subi	r28, 0xCB	; 203
    5ed6:	d7 4f       	sbci	r29, 0xF7	; 247
    5ed8:	d9 82       	std	Y+1, r13	; 0x01
    5eda:	c8 82       	st	Y, r12
    5edc:	c5 53       	subi	r28, 0x35	; 53
    5ede:	d8 40       	sbci	r29, 0x08	; 8
    5ee0:	0f 2e       	mov	r0, r31
    5ee2:	f7 e5       	ldi	r31, 0x57	; 87
    5ee4:	cf 2e       	mov	r12, r31
    5ee6:	dd 24       	eor	r13, r13
    5ee8:	d3 94       	inc	r13
    5eea:	f0 2d       	mov	r31, r0
    5eec:	c9 5c       	subi	r28, 0xC9	; 201
    5eee:	d7 4f       	sbci	r29, 0xF7	; 247
    5ef0:	d9 82       	std	Y+1, r13	; 0x01
    5ef2:	c8 82       	st	Y, r12
    5ef4:	c7 53       	subi	r28, 0x37	; 55
    5ef6:	d8 40       	sbci	r29, 0x08	; 8
    5ef8:	0f 2e       	mov	r0, r31
    5efa:	f5 e5       	ldi	r31, 0x55	; 85
    5efc:	cf 2e       	mov	r12, r31
    5efe:	dd 24       	eor	r13, r13
    5f00:	d3 94       	inc	r13
    5f02:	f0 2d       	mov	r31, r0
    5f04:	c7 5c       	subi	r28, 0xC7	; 199
    5f06:	d7 4f       	sbci	r29, 0xF7	; 247
    5f08:	d9 82       	std	Y+1, r13	; 0x01
    5f0a:	c8 82       	st	Y, r12
    5f0c:	c9 53       	subi	r28, 0x39	; 57
    5f0e:	d8 40       	sbci	r29, 0x08	; 8
    5f10:	0f 2e       	mov	r0, r31
    5f12:	f4 e5       	ldi	r31, 0x54	; 84
    5f14:	cf 2e       	mov	r12, r31
    5f16:	dd 24       	eor	r13, r13
    5f18:	d3 94       	inc	r13
    5f1a:	f0 2d       	mov	r31, r0
    5f1c:	c5 5c       	subi	r28, 0xC5	; 197
    5f1e:	d7 4f       	sbci	r29, 0xF7	; 247
    5f20:	d9 82       	std	Y+1, r13	; 0x01
    5f22:	c8 82       	st	Y, r12
    5f24:	cb 53       	subi	r28, 0x3B	; 59
    5f26:	d8 40       	sbci	r29, 0x08	; 8
    5f28:	0f 2e       	mov	r0, r31
    5f2a:	f2 e5       	ldi	r31, 0x52	; 82
    5f2c:	cf 2e       	mov	r12, r31
    5f2e:	dd 24       	eor	r13, r13
    5f30:	d3 94       	inc	r13
    5f32:	f0 2d       	mov	r31, r0
    5f34:	c3 5c       	subi	r28, 0xC3	; 195
    5f36:	d7 4f       	sbci	r29, 0xF7	; 247
    5f38:	d9 82       	std	Y+1, r13	; 0x01
    5f3a:	c8 82       	st	Y, r12
    5f3c:	cd 53       	subi	r28, 0x3D	; 61
    5f3e:	d8 40       	sbci	r29, 0x08	; 8
    5f40:	0f 2e       	mov	r0, r31
    5f42:	f1 e5       	ldi	r31, 0x51	; 81
    5f44:	cf 2e       	mov	r12, r31
    5f46:	dd 24       	eor	r13, r13
    5f48:	d3 94       	inc	r13
    5f4a:	f0 2d       	mov	r31, r0
    5f4c:	c1 5c       	subi	r28, 0xC1	; 193
    5f4e:	d7 4f       	sbci	r29, 0xF7	; 247
    5f50:	d9 82       	std	Y+1, r13	; 0x01
    5f52:	c8 82       	st	Y, r12
    5f54:	cf 53       	subi	r28, 0x3F	; 63
    5f56:	d8 40       	sbci	r29, 0x08	; 8
    5f58:	0f 2e       	mov	r0, r31
    5f5a:	ff e4       	ldi	r31, 0x4F	; 79
    5f5c:	cf 2e       	mov	r12, r31
    5f5e:	dd 24       	eor	r13, r13
    5f60:	d3 94       	inc	r13
    5f62:	f0 2d       	mov	r31, r0
    5f64:	cf 5b       	subi	r28, 0xBF	; 191
    5f66:	d7 4f       	sbci	r29, 0xF7	; 247
    5f68:	d9 82       	std	Y+1, r13	; 0x01
    5f6a:	c8 82       	st	Y, r12
    5f6c:	c1 54       	subi	r28, 0x41	; 65
    5f6e:	d8 40       	sbci	r29, 0x08	; 8
    5f70:	0f 2e       	mov	r0, r31
    5f72:	fe e4       	ldi	r31, 0x4E	; 78
    5f74:	cf 2e       	mov	r12, r31
    5f76:	dd 24       	eor	r13, r13
    5f78:	d3 94       	inc	r13
    5f7a:	f0 2d       	mov	r31, r0
    5f7c:	cd 5b       	subi	r28, 0xBD	; 189
    5f7e:	d7 4f       	sbci	r29, 0xF7	; 247
    5f80:	d9 82       	std	Y+1, r13	; 0x01
    5f82:	c8 82       	st	Y, r12
    5f84:	c3 54       	subi	r28, 0x43	; 67
    5f86:	d8 40       	sbci	r29, 0x08	; 8
    5f88:	0f 2e       	mov	r0, r31
    5f8a:	fc e4       	ldi	r31, 0x4C	; 76
    5f8c:	cf 2e       	mov	r12, r31
    5f8e:	dd 24       	eor	r13, r13
    5f90:	d3 94       	inc	r13
    5f92:	f0 2d       	mov	r31, r0
    5f94:	cb 5b       	subi	r28, 0xBB	; 187
    5f96:	d7 4f       	sbci	r29, 0xF7	; 247
    5f98:	d9 82       	std	Y+1, r13	; 0x01
    5f9a:	c8 82       	st	Y, r12
    5f9c:	c5 54       	subi	r28, 0x45	; 69
    5f9e:	d8 40       	sbci	r29, 0x08	; 8
    5fa0:	0f 2e       	mov	r0, r31
    5fa2:	fb e4       	ldi	r31, 0x4B	; 75
    5fa4:	cf 2e       	mov	r12, r31
    5fa6:	dd 24       	eor	r13, r13
    5fa8:	d3 94       	inc	r13
    5faa:	f0 2d       	mov	r31, r0
    5fac:	c9 5b       	subi	r28, 0xB9	; 185
    5fae:	d7 4f       	sbci	r29, 0xF7	; 247
    5fb0:	d9 82       	std	Y+1, r13	; 0x01
    5fb2:	c8 82       	st	Y, r12
    5fb4:	c7 54       	subi	r28, 0x47	; 71
    5fb6:	d8 40       	sbci	r29, 0x08	; 8
    5fb8:	0f 2e       	mov	r0, r31
    5fba:	f9 e4       	ldi	r31, 0x49	; 73
    5fbc:	cf 2e       	mov	r12, r31
    5fbe:	dd 24       	eor	r13, r13
    5fc0:	d3 94       	inc	r13
    5fc2:	f0 2d       	mov	r31, r0
    5fc4:	c7 5b       	subi	r28, 0xB7	; 183
    5fc6:	d7 4f       	sbci	r29, 0xF7	; 247
    5fc8:	d9 82       	std	Y+1, r13	; 0x01
    5fca:	c8 82       	st	Y, r12
    5fcc:	c9 54       	subi	r28, 0x49	; 73
    5fce:	d8 40       	sbci	r29, 0x08	; 8
    5fd0:	0f 2e       	mov	r0, r31
    5fd2:	f8 e4       	ldi	r31, 0x48	; 72
    5fd4:	cf 2e       	mov	r12, r31
    5fd6:	dd 24       	eor	r13, r13
    5fd8:	d3 94       	inc	r13
    5fda:	f0 2d       	mov	r31, r0
    5fdc:	c5 5b       	subi	r28, 0xB5	; 181
    5fde:	d7 4f       	sbci	r29, 0xF7	; 247
    5fe0:	d9 82       	std	Y+1, r13	; 0x01
    5fe2:	c8 82       	st	Y, r12
    5fe4:	cb 54       	subi	r28, 0x4B	; 75
    5fe6:	d8 40       	sbci	r29, 0x08	; 8
    5fe8:	0f 2e       	mov	r0, r31
    5fea:	f6 e4       	ldi	r31, 0x46	; 70
    5fec:	cf 2e       	mov	r12, r31
    5fee:	dd 24       	eor	r13, r13
    5ff0:	d3 94       	inc	r13
    5ff2:	f0 2d       	mov	r31, r0
    5ff4:	c3 5b       	subi	r28, 0xB3	; 179
    5ff6:	d7 4f       	sbci	r29, 0xF7	; 247
    5ff8:	d9 82       	std	Y+1, r13	; 0x01
    5ffa:	c8 82       	st	Y, r12
    5ffc:	cd 54       	subi	r28, 0x4D	; 77
    5ffe:	d8 40       	sbci	r29, 0x08	; 8
    6000:	0f 2e       	mov	r0, r31
    6002:	f5 e4       	ldi	r31, 0x45	; 69
    6004:	cf 2e       	mov	r12, r31
    6006:	dd 24       	eor	r13, r13
    6008:	d3 94       	inc	r13
    600a:	f0 2d       	mov	r31, r0
    600c:	c1 5b       	subi	r28, 0xB1	; 177
    600e:	d7 4f       	sbci	r29, 0xF7	; 247
    6010:	d9 82       	std	Y+1, r13	; 0x01
    6012:	c8 82       	st	Y, r12
    6014:	cf 54       	subi	r28, 0x4F	; 79
    6016:	d8 40       	sbci	r29, 0x08	; 8
    6018:	0f 2e       	mov	r0, r31
    601a:	f3 e4       	ldi	r31, 0x43	; 67
    601c:	cf 2e       	mov	r12, r31
    601e:	dd 24       	eor	r13, r13
    6020:	d3 94       	inc	r13
    6022:	f0 2d       	mov	r31, r0
    6024:	cf 5a       	subi	r28, 0xAF	; 175
    6026:	d7 4f       	sbci	r29, 0xF7	; 247
    6028:	d9 82       	std	Y+1, r13	; 0x01
    602a:	c8 82       	st	Y, r12
    602c:	c1 55       	subi	r28, 0x51	; 81
    602e:	d8 40       	sbci	r29, 0x08	; 8
    6030:	0f 2e       	mov	r0, r31
    6032:	f2 e4       	ldi	r31, 0x42	; 66
    6034:	cf 2e       	mov	r12, r31
    6036:	dd 24       	eor	r13, r13
    6038:	d3 94       	inc	r13
    603a:	f0 2d       	mov	r31, r0
    603c:	cd 5a       	subi	r28, 0xAD	; 173
    603e:	d7 4f       	sbci	r29, 0xF7	; 247
    6040:	d9 82       	std	Y+1, r13	; 0x01
    6042:	c8 82       	st	Y, r12
    6044:	c3 55       	subi	r28, 0x53	; 83
    6046:	d8 40       	sbci	r29, 0x08	; 8
    6048:	68 94       	set
    604a:	cc 24       	eor	r12, r12
    604c:	c6 f8       	bld	r12, 6
    604e:	dd 24       	eor	r13, r13
    6050:	d3 94       	inc	r13
    6052:	cb 5a       	subi	r28, 0xAB	; 171
    6054:	d7 4f       	sbci	r29, 0xF7	; 247
    6056:	d9 82       	std	Y+1, r13	; 0x01
    6058:	c8 82       	st	Y, r12
    605a:	c5 55       	subi	r28, 0x55	; 85
    605c:	d8 40       	sbci	r29, 0x08	; 8
    605e:	0f 2e       	mov	r0, r31
    6060:	ff e3       	ldi	r31, 0x3F	; 63
    6062:	cf 2e       	mov	r12, r31
    6064:	dd 24       	eor	r13, r13
    6066:	d3 94       	inc	r13
    6068:	f0 2d       	mov	r31, r0
    606a:	c9 5a       	subi	r28, 0xA9	; 169
    606c:	d7 4f       	sbci	r29, 0xF7	; 247
    606e:	d9 82       	std	Y+1, r13	; 0x01
    6070:	c8 82       	st	Y, r12
    6072:	c7 55       	subi	r28, 0x57	; 87
    6074:	d8 40       	sbci	r29, 0x08	; 8
    6076:	0f 2e       	mov	r0, r31
    6078:	fd e3       	ldi	r31, 0x3D	; 61
    607a:	cf 2e       	mov	r12, r31
    607c:	dd 24       	eor	r13, r13
    607e:	d3 94       	inc	r13
    6080:	f0 2d       	mov	r31, r0
    6082:	c7 5a       	subi	r28, 0xA7	; 167
    6084:	d7 4f       	sbci	r29, 0xF7	; 247
    6086:	d9 82       	std	Y+1, r13	; 0x01
    6088:	c8 82       	st	Y, r12
    608a:	c9 55       	subi	r28, 0x59	; 89
    608c:	d8 40       	sbci	r29, 0x08	; 8
    608e:	0f 2e       	mov	r0, r31
    6090:	fb e3       	ldi	r31, 0x3B	; 59
    6092:	cf 2e       	mov	r12, r31
    6094:	dd 24       	eor	r13, r13
    6096:	d3 94       	inc	r13
    6098:	f0 2d       	mov	r31, r0
    609a:	c5 5a       	subi	r28, 0xA5	; 165
    609c:	d7 4f       	sbci	r29, 0xF7	; 247
    609e:	d9 82       	std	Y+1, r13	; 0x01
    60a0:	c8 82       	st	Y, r12
    60a2:	cb 55       	subi	r28, 0x5B	; 91
    60a4:	d8 40       	sbci	r29, 0x08	; 8
    60a6:	0f 2e       	mov	r0, r31
    60a8:	fa e3       	ldi	r31, 0x3A	; 58
    60aa:	cf 2e       	mov	r12, r31
    60ac:	dd 24       	eor	r13, r13
    60ae:	d3 94       	inc	r13
    60b0:	f0 2d       	mov	r31, r0
    60b2:	c3 5a       	subi	r28, 0xA3	; 163
    60b4:	d7 4f       	sbci	r29, 0xF7	; 247
    60b6:	d9 82       	std	Y+1, r13	; 0x01
    60b8:	c8 82       	st	Y, r12
    60ba:	cd 55       	subi	r28, 0x5D	; 93
    60bc:	d8 40       	sbci	r29, 0x08	; 8
    60be:	0f 2e       	mov	r0, r31
    60c0:	f8 e3       	ldi	r31, 0x38	; 56
    60c2:	cf 2e       	mov	r12, r31
    60c4:	dd 24       	eor	r13, r13
    60c6:	d3 94       	inc	r13
    60c8:	f0 2d       	mov	r31, r0
    60ca:	c1 5a       	subi	r28, 0xA1	; 161
    60cc:	d7 4f       	sbci	r29, 0xF7	; 247
    60ce:	d9 82       	std	Y+1, r13	; 0x01
    60d0:	c8 82       	st	Y, r12
    60d2:	cf 55       	subi	r28, 0x5F	; 95
    60d4:	d8 40       	sbci	r29, 0x08	; 8
    60d6:	0f 2e       	mov	r0, r31
    60d8:	f7 e3       	ldi	r31, 0x37	; 55
    60da:	cf 2e       	mov	r12, r31
    60dc:	dd 24       	eor	r13, r13
    60de:	d3 94       	inc	r13
    60e0:	f0 2d       	mov	r31, r0
    60e2:	cf 59       	subi	r28, 0x9F	; 159
    60e4:	d7 4f       	sbci	r29, 0xF7	; 247
    60e6:	d9 82       	std	Y+1, r13	; 0x01
    60e8:	c8 82       	st	Y, r12
    60ea:	c1 56       	subi	r28, 0x61	; 97
    60ec:	d8 40       	sbci	r29, 0x08	; 8
    60ee:	0f 2e       	mov	r0, r31
    60f0:	f5 e3       	ldi	r31, 0x35	; 53
    60f2:	cf 2e       	mov	r12, r31
    60f4:	dd 24       	eor	r13, r13
    60f6:	d3 94       	inc	r13
    60f8:	f0 2d       	mov	r31, r0
    60fa:	cd 59       	subi	r28, 0x9D	; 157
    60fc:	d7 4f       	sbci	r29, 0xF7	; 247
    60fe:	d9 82       	std	Y+1, r13	; 0x01
    6100:	c8 82       	st	Y, r12
    6102:	c3 56       	subi	r28, 0x63	; 99
    6104:	d8 40       	sbci	r29, 0x08	; 8
    6106:	0f 2e       	mov	r0, r31
    6108:	f3 e3       	ldi	r31, 0x33	; 51
    610a:	cf 2e       	mov	r12, r31
    610c:	dd 24       	eor	r13, r13
    610e:	d3 94       	inc	r13
    6110:	f0 2d       	mov	r31, r0
    6112:	cb 59       	subi	r28, 0x9B	; 155
    6114:	d7 4f       	sbci	r29, 0xF7	; 247
    6116:	d9 82       	std	Y+1, r13	; 0x01
    6118:	c8 82       	st	Y, r12
    611a:	c5 56       	subi	r28, 0x65	; 101
    611c:	d8 40       	sbci	r29, 0x08	; 8
    611e:	0f 2e       	mov	r0, r31
    6120:	f2 e3       	ldi	r31, 0x32	; 50
    6122:	cf 2e       	mov	r12, r31
    6124:	dd 24       	eor	r13, r13
    6126:	d3 94       	inc	r13
    6128:	f0 2d       	mov	r31, r0
    612a:	c9 59       	subi	r28, 0x99	; 153
    612c:	d7 4f       	sbci	r29, 0xF7	; 247
    612e:	d9 82       	std	Y+1, r13	; 0x01
    6130:	c8 82       	st	Y, r12
    6132:	c7 56       	subi	r28, 0x67	; 103
    6134:	d8 40       	sbci	r29, 0x08	; 8
    6136:	0f 2e       	mov	r0, r31
    6138:	f0 e3       	ldi	r31, 0x30	; 48
    613a:	cf 2e       	mov	r12, r31
    613c:	dd 24       	eor	r13, r13
    613e:	d3 94       	inc	r13
    6140:	f0 2d       	mov	r31, r0
    6142:	c7 59       	subi	r28, 0x97	; 151
    6144:	d7 4f       	sbci	r29, 0xF7	; 247
    6146:	d9 82       	std	Y+1, r13	; 0x01
    6148:	c8 82       	st	Y, r12
    614a:	c9 56       	subi	r28, 0x69	; 105
    614c:	d8 40       	sbci	r29, 0x08	; 8
    614e:	0f 2e       	mov	r0, r31
    6150:	ff e2       	ldi	r31, 0x2F	; 47
    6152:	cf 2e       	mov	r12, r31
    6154:	dd 24       	eor	r13, r13
    6156:	d3 94       	inc	r13
    6158:	f0 2d       	mov	r31, r0
    615a:	c5 59       	subi	r28, 0x95	; 149
    615c:	d7 4f       	sbci	r29, 0xF7	; 247
    615e:	d9 82       	std	Y+1, r13	; 0x01
    6160:	c8 82       	st	Y, r12
    6162:	cb 56       	subi	r28, 0x6B	; 107
    6164:	d8 40       	sbci	r29, 0x08	; 8
    6166:	0f 2e       	mov	r0, r31
    6168:	fd e2       	ldi	r31, 0x2D	; 45
    616a:	cf 2e       	mov	r12, r31
    616c:	dd 24       	eor	r13, r13
    616e:	d3 94       	inc	r13
    6170:	f0 2d       	mov	r31, r0
    6172:	c3 59       	subi	r28, 0x93	; 147
    6174:	d7 4f       	sbci	r29, 0xF7	; 247
    6176:	d9 82       	std	Y+1, r13	; 0x01
    6178:	c8 82       	st	Y, r12
    617a:	cd 56       	subi	r28, 0x6D	; 109
    617c:	d8 40       	sbci	r29, 0x08	; 8
    617e:	0f 2e       	mov	r0, r31
    6180:	fb e2       	ldi	r31, 0x2B	; 43
    6182:	cf 2e       	mov	r12, r31
    6184:	dd 24       	eor	r13, r13
    6186:	d3 94       	inc	r13
    6188:	f0 2d       	mov	r31, r0
    618a:	c1 59       	subi	r28, 0x91	; 145
    618c:	d7 4f       	sbci	r29, 0xF7	; 247
    618e:	d9 82       	std	Y+1, r13	; 0x01
    6190:	c8 82       	st	Y, r12
    6192:	cf 56       	subi	r28, 0x6F	; 111
    6194:	d8 40       	sbci	r29, 0x08	; 8
    6196:	0f 2e       	mov	r0, r31
    6198:	f9 e2       	ldi	r31, 0x29	; 41
    619a:	cf 2e       	mov	r12, r31
    619c:	dd 24       	eor	r13, r13
    619e:	d3 94       	inc	r13
    61a0:	f0 2d       	mov	r31, r0
    61a2:	cf 58       	subi	r28, 0x8F	; 143
    61a4:	d7 4f       	sbci	r29, 0xF7	; 247
    61a6:	d9 82       	std	Y+1, r13	; 0x01
    61a8:	c8 82       	st	Y, r12
    61aa:	c1 57       	subi	r28, 0x71	; 113
    61ac:	d8 40       	sbci	r29, 0x08	; 8
    61ae:	0f 2e       	mov	r0, r31
    61b0:	f8 e2       	ldi	r31, 0x28	; 40
    61b2:	cf 2e       	mov	r12, r31
    61b4:	dd 24       	eor	r13, r13
    61b6:	d3 94       	inc	r13
    61b8:	f0 2d       	mov	r31, r0
    61ba:	cd 58       	subi	r28, 0x8D	; 141
    61bc:	d7 4f       	sbci	r29, 0xF7	; 247
    61be:	d9 82       	std	Y+1, r13	; 0x01
    61c0:	c8 82       	st	Y, r12
    61c2:	c3 57       	subi	r28, 0x73	; 115
    61c4:	d8 40       	sbci	r29, 0x08	; 8
    61c6:	0f 2e       	mov	r0, r31
    61c8:	f6 e2       	ldi	r31, 0x26	; 38
    61ca:	cf 2e       	mov	r12, r31
    61cc:	dd 24       	eor	r13, r13
    61ce:	d3 94       	inc	r13
    61d0:	f0 2d       	mov	r31, r0
    61d2:	cb 58       	subi	r28, 0x8B	; 139
    61d4:	d7 4f       	sbci	r29, 0xF7	; 247
    61d6:	d9 82       	std	Y+1, r13	; 0x01
    61d8:	c8 82       	st	Y, r12
    61da:	c5 57       	subi	r28, 0x75	; 117
    61dc:	d8 40       	sbci	r29, 0x08	; 8
    61de:	0f 2e       	mov	r0, r31
    61e0:	f4 e2       	ldi	r31, 0x24	; 36
    61e2:	cf 2e       	mov	r12, r31
    61e4:	dd 24       	eor	r13, r13
    61e6:	d3 94       	inc	r13
    61e8:	f0 2d       	mov	r31, r0
    61ea:	c9 58       	subi	r28, 0x89	; 137
    61ec:	d7 4f       	sbci	r29, 0xF7	; 247
    61ee:	d9 82       	std	Y+1, r13	; 0x01
    61f0:	c8 82       	st	Y, r12
    61f2:	c7 57       	subi	r28, 0x77	; 119
    61f4:	d8 40       	sbci	r29, 0x08	; 8
    61f6:	0f 2e       	mov	r0, r31
    61f8:	f3 e2       	ldi	r31, 0x23	; 35
    61fa:	cf 2e       	mov	r12, r31
    61fc:	dd 24       	eor	r13, r13
    61fe:	d3 94       	inc	r13
    6200:	f0 2d       	mov	r31, r0
    6202:	c7 58       	subi	r28, 0x87	; 135
    6204:	d7 4f       	sbci	r29, 0xF7	; 247
    6206:	d9 82       	std	Y+1, r13	; 0x01
    6208:	c8 82       	st	Y, r12
    620a:	c9 57       	subi	r28, 0x79	; 121
    620c:	d8 40       	sbci	r29, 0x08	; 8
    620e:	0f 2e       	mov	r0, r31
    6210:	f1 e2       	ldi	r31, 0x21	; 33
    6212:	cf 2e       	mov	r12, r31
    6214:	dd 24       	eor	r13, r13
    6216:	d3 94       	inc	r13
    6218:	f0 2d       	mov	r31, r0
    621a:	c5 58       	subi	r28, 0x85	; 133
    621c:	d7 4f       	sbci	r29, 0xF7	; 247
    621e:	d9 82       	std	Y+1, r13	; 0x01
    6220:	c8 82       	st	Y, r12
    6222:	cb 57       	subi	r28, 0x7B	; 123
    6224:	d8 40       	sbci	r29, 0x08	; 8
    6226:	0f 2e       	mov	r0, r31
    6228:	ff e1       	ldi	r31, 0x1F	; 31
    622a:	cf 2e       	mov	r12, r31
    622c:	dd 24       	eor	r13, r13
    622e:	d3 94       	inc	r13
    6230:	f0 2d       	mov	r31, r0
    6232:	c3 58       	subi	r28, 0x83	; 131
    6234:	d7 4f       	sbci	r29, 0xF7	; 247
    6236:	d9 82       	std	Y+1, r13	; 0x01
    6238:	c8 82       	st	Y, r12
    623a:	cd 57       	subi	r28, 0x7D	; 125
    623c:	d8 40       	sbci	r29, 0x08	; 8
    623e:	0f 2e       	mov	r0, r31
    6240:	fd e1       	ldi	r31, 0x1D	; 29
    6242:	cf 2e       	mov	r12, r31
    6244:	dd 24       	eor	r13, r13
    6246:	d3 94       	inc	r13
    6248:	f0 2d       	mov	r31, r0
    624a:	c1 58       	subi	r28, 0x81	; 129
    624c:	d7 4f       	sbci	r29, 0xF7	; 247
    624e:	d9 82       	std	Y+1, r13	; 0x01
    6250:	c8 82       	st	Y, r12
    6252:	cf 57       	subi	r28, 0x7F	; 127
    6254:	d8 40       	sbci	r29, 0x08	; 8
    6256:	0f 2e       	mov	r0, r31
    6258:	fc e1       	ldi	r31, 0x1C	; 28
    625a:	cf 2e       	mov	r12, r31
    625c:	dd 24       	eor	r13, r13
    625e:	d3 94       	inc	r13
    6260:	f0 2d       	mov	r31, r0
    6262:	cf 57       	subi	r28, 0x7F	; 127
    6264:	d7 4f       	sbci	r29, 0xF7	; 247
    6266:	d9 82       	std	Y+1, r13	; 0x01
    6268:	c8 82       	st	Y, r12
    626a:	c1 58       	subi	r28, 0x81	; 129
    626c:	d8 40       	sbci	r29, 0x08	; 8
    626e:	0f 2e       	mov	r0, r31
    6270:	fa e1       	ldi	r31, 0x1A	; 26
    6272:	cf 2e       	mov	r12, r31
    6274:	dd 24       	eor	r13, r13
    6276:	d3 94       	inc	r13
    6278:	f0 2d       	mov	r31, r0
    627a:	cd 57       	subi	r28, 0x7D	; 125
    627c:	d7 4f       	sbci	r29, 0xF7	; 247
    627e:	d9 82       	std	Y+1, r13	; 0x01
    6280:	c8 82       	st	Y, r12
    6282:	c3 58       	subi	r28, 0x83	; 131
    6284:	d8 40       	sbci	r29, 0x08	; 8
    6286:	0f 2e       	mov	r0, r31
    6288:	f8 e1       	ldi	r31, 0x18	; 24
    628a:	cf 2e       	mov	r12, r31
    628c:	dd 24       	eor	r13, r13
    628e:	d3 94       	inc	r13
    6290:	f0 2d       	mov	r31, r0
    6292:	cb 57       	subi	r28, 0x7B	; 123
    6294:	d7 4f       	sbci	r29, 0xF7	; 247
    6296:	d9 82       	std	Y+1, r13	; 0x01
    6298:	c8 82       	st	Y, r12
    629a:	c5 58       	subi	r28, 0x85	; 133
    629c:	d8 40       	sbci	r29, 0x08	; 8
    629e:	0f 2e       	mov	r0, r31
    62a0:	f6 e1       	ldi	r31, 0x16	; 22
    62a2:	cf 2e       	mov	r12, r31
    62a4:	dd 24       	eor	r13, r13
    62a6:	d3 94       	inc	r13
    62a8:	f0 2d       	mov	r31, r0
    62aa:	c9 57       	subi	r28, 0x79	; 121
    62ac:	d7 4f       	sbci	r29, 0xF7	; 247
    62ae:	d9 82       	std	Y+1, r13	; 0x01
    62b0:	c8 82       	st	Y, r12
    62b2:	c7 58       	subi	r28, 0x87	; 135
    62b4:	d8 40       	sbci	r29, 0x08	; 8
    62b6:	0f 2e       	mov	r0, r31
    62b8:	f4 e1       	ldi	r31, 0x14	; 20
    62ba:	cf 2e       	mov	r12, r31
    62bc:	dd 24       	eor	r13, r13
    62be:	d3 94       	inc	r13
    62c0:	f0 2d       	mov	r31, r0
    62c2:	c7 57       	subi	r28, 0x77	; 119
    62c4:	d7 4f       	sbci	r29, 0xF7	; 247
    62c6:	d9 82       	std	Y+1, r13	; 0x01
    62c8:	c8 82       	st	Y, r12
    62ca:	c9 58       	subi	r28, 0x89	; 137
    62cc:	d8 40       	sbci	r29, 0x08	; 8
    62ce:	0f 2e       	mov	r0, r31
    62d0:	f3 e1       	ldi	r31, 0x13	; 19
    62d2:	cf 2e       	mov	r12, r31
    62d4:	dd 24       	eor	r13, r13
    62d6:	d3 94       	inc	r13
    62d8:	f0 2d       	mov	r31, r0
    62da:	c5 57       	subi	r28, 0x75	; 117
    62dc:	d7 4f       	sbci	r29, 0xF7	; 247
    62de:	d9 82       	std	Y+1, r13	; 0x01
    62e0:	c8 82       	st	Y, r12
    62e2:	cb 58       	subi	r28, 0x8B	; 139
    62e4:	d8 40       	sbci	r29, 0x08	; 8
    62e6:	0f 2e       	mov	r0, r31
    62e8:	f1 e1       	ldi	r31, 0x11	; 17
    62ea:	cf 2e       	mov	r12, r31
    62ec:	dd 24       	eor	r13, r13
    62ee:	d3 94       	inc	r13
    62f0:	f0 2d       	mov	r31, r0
    62f2:	c3 57       	subi	r28, 0x73	; 115
    62f4:	d7 4f       	sbci	r29, 0xF7	; 247
    62f6:	d9 82       	std	Y+1, r13	; 0x01
    62f8:	c8 82       	st	Y, r12
    62fa:	cd 58       	subi	r28, 0x8D	; 141
    62fc:	d8 40       	sbci	r29, 0x08	; 8
    62fe:	0f 2e       	mov	r0, r31
    6300:	ff e0       	ldi	r31, 0x0F	; 15
    6302:	cf 2e       	mov	r12, r31
    6304:	dd 24       	eor	r13, r13
    6306:	d3 94       	inc	r13
    6308:	f0 2d       	mov	r31, r0
    630a:	c1 57       	subi	r28, 0x71	; 113
    630c:	d7 4f       	sbci	r29, 0xF7	; 247
    630e:	d9 82       	std	Y+1, r13	; 0x01
    6310:	c8 82       	st	Y, r12
    6312:	cf 58       	subi	r28, 0x8F	; 143
    6314:	d8 40       	sbci	r29, 0x08	; 8
    6316:	0f 2e       	mov	r0, r31
    6318:	fd e0       	ldi	r31, 0x0D	; 13
    631a:	cf 2e       	mov	r12, r31
    631c:	dd 24       	eor	r13, r13
    631e:	d3 94       	inc	r13
    6320:	f0 2d       	mov	r31, r0
    6322:	cf 56       	subi	r28, 0x6F	; 111
    6324:	d7 4f       	sbci	r29, 0xF7	; 247
    6326:	d9 82       	std	Y+1, r13	; 0x01
    6328:	c8 82       	st	Y, r12
    632a:	c1 59       	subi	r28, 0x91	; 145
    632c:	d8 40       	sbci	r29, 0x08	; 8
    632e:	0f 2e       	mov	r0, r31
    6330:	fb e0       	ldi	r31, 0x0B	; 11
    6332:	cf 2e       	mov	r12, r31
    6334:	dd 24       	eor	r13, r13
    6336:	d3 94       	inc	r13
    6338:	f0 2d       	mov	r31, r0
    633a:	cd 56       	subi	r28, 0x6D	; 109
    633c:	d7 4f       	sbci	r29, 0xF7	; 247
    633e:	d9 82       	std	Y+1, r13	; 0x01
    6340:	c8 82       	st	Y, r12
    6342:	c3 59       	subi	r28, 0x93	; 147
    6344:	d8 40       	sbci	r29, 0x08	; 8
    6346:	0f 2e       	mov	r0, r31
    6348:	f9 e0       	ldi	r31, 0x09	; 9
    634a:	cf 2e       	mov	r12, r31
    634c:	dd 24       	eor	r13, r13
    634e:	d3 94       	inc	r13
    6350:	f0 2d       	mov	r31, r0
    6352:	cb 56       	subi	r28, 0x6B	; 107
    6354:	d7 4f       	sbci	r29, 0xF7	; 247
    6356:	d9 82       	std	Y+1, r13	; 0x01
    6358:	c8 82       	st	Y, r12
    635a:	c5 59       	subi	r28, 0x95	; 149
    635c:	d8 40       	sbci	r29, 0x08	; 8
    635e:	0f 2e       	mov	r0, r31
    6360:	f7 e0       	ldi	r31, 0x07	; 7
    6362:	cf 2e       	mov	r12, r31
    6364:	dd 24       	eor	r13, r13
    6366:	d3 94       	inc	r13
    6368:	f0 2d       	mov	r31, r0
    636a:	c9 56       	subi	r28, 0x69	; 105
    636c:	d7 4f       	sbci	r29, 0xF7	; 247
    636e:	d9 82       	std	Y+1, r13	; 0x01
    6370:	c8 82       	st	Y, r12
    6372:	c7 59       	subi	r28, 0x97	; 151
    6374:	d8 40       	sbci	r29, 0x08	; 8
    6376:	0f 2e       	mov	r0, r31
    6378:	f5 e0       	ldi	r31, 0x05	; 5
    637a:	cf 2e       	mov	r12, r31
    637c:	dd 24       	eor	r13, r13
    637e:	d3 94       	inc	r13
    6380:	f0 2d       	mov	r31, r0
    6382:	c7 56       	subi	r28, 0x67	; 103
    6384:	d7 4f       	sbci	r29, 0xF7	; 247
    6386:	d9 82       	std	Y+1, r13	; 0x01
    6388:	c8 82       	st	Y, r12
    638a:	c9 59       	subi	r28, 0x99	; 153
    638c:	d8 40       	sbci	r29, 0x08	; 8
    638e:	0f 2e       	mov	r0, r31
    6390:	f3 e0       	ldi	r31, 0x03	; 3
    6392:	cf 2e       	mov	r12, r31
    6394:	dd 24       	eor	r13, r13
    6396:	d3 94       	inc	r13
    6398:	f0 2d       	mov	r31, r0
    639a:	c5 56       	subi	r28, 0x65	; 101
    639c:	d7 4f       	sbci	r29, 0xF7	; 247
    639e:	d9 82       	std	Y+1, r13	; 0x01
    63a0:	c8 82       	st	Y, r12
    63a2:	cb 59       	subi	r28, 0x9B	; 155
    63a4:	d8 40       	sbci	r29, 0x08	; 8
    63a6:	cc 24       	eor	r12, r12
    63a8:	c3 94       	inc	r12
    63aa:	dc 2c       	mov	r13, r12
    63ac:	c3 56       	subi	r28, 0x63	; 99
    63ae:	d7 4f       	sbci	r29, 0xF7	; 247
    63b0:	d9 82       	std	Y+1, r13	; 0x01
    63b2:	c8 82       	st	Y, r12
    63b4:	cd 59       	subi	r28, 0x9D	; 157
    63b6:	d8 40       	sbci	r29, 0x08	; 8
    63b8:	c1 56       	subi	r28, 0x61	; 97
    63ba:	d7 4f       	sbci	r29, 0xF7	; 247
    63bc:	f9 82       	std	Y+1, r15	; 0x01
    63be:	e8 82       	st	Y, r14
    63c0:	cf 59       	subi	r28, 0x9F	; 159
    63c2:	d8 40       	sbci	r29, 0x08	; 8
    63c4:	cf 55       	subi	r28, 0x5F	; 95
    63c6:	d7 4f       	sbci	r29, 0xF7	; 247
    63c8:	19 83       	std	Y+1, r17	; 0x01
    63ca:	08 83       	st	Y, r16
    63cc:	c1 5a       	subi	r28, 0xA1	; 161
    63ce:	d8 40       	sbci	r29, 0x08	; 8
    63d0:	cd 55       	subi	r28, 0x5D	; 93
    63d2:	d7 4f       	sbci	r29, 0xF7	; 247
    63d4:	b9 83       	std	Y+1, r27	; 0x01
    63d6:	a8 83       	st	Y, r26
    63d8:	c3 5a       	subi	r28, 0xA3	; 163
    63da:	d8 40       	sbci	r29, 0x08	; 8
    63dc:	cb 55       	subi	r28, 0x5B	; 91
    63de:	d7 4f       	sbci	r29, 0xF7	; 247
    63e0:	f9 83       	std	Y+1, r31	; 0x01
    63e2:	e8 83       	st	Y, r30
    63e4:	c5 5a       	subi	r28, 0xA5	; 165
    63e6:	d8 40       	sbci	r29, 0x08	; 8
    63e8:	c9 55       	subi	r28, 0x59	; 89
    63ea:	d7 4f       	sbci	r29, 0xF7	; 247
    63ec:	79 83       	std	Y+1, r23	; 0x01
    63ee:	68 83       	st	Y, r22
    63f0:	c7 5a       	subi	r28, 0xA7	; 167
    63f2:	d8 40       	sbci	r29, 0x08	; 8
    63f4:	c7 55       	subi	r28, 0x57	; 87
    63f6:	d7 4f       	sbci	r29, 0xF7	; 247
    63f8:	59 83       	std	Y+1, r21	; 0x01
    63fa:	48 83       	st	Y, r20
    63fc:	c9 5a       	subi	r28, 0xA9	; 169
    63fe:	d8 40       	sbci	r29, 0x08	; 8
    6400:	c5 55       	subi	r28, 0x55	; 85
    6402:	d7 4f       	sbci	r29, 0xF7	; 247
    6404:	39 83       	std	Y+1, r19	; 0x01
    6406:	28 83       	st	Y, r18
    6408:	cb 5a       	subi	r28, 0xAB	; 171
    640a:	d8 40       	sbci	r29, 0x08	; 8
    640c:	c3 55       	subi	r28, 0x53	; 83
    640e:	d7 4f       	sbci	r29, 0xF7	; 247
    6410:	99 83       	std	Y+1, r25	; 0x01
    6412:	88 83       	st	Y, r24
    6414:	cd 5a       	subi	r28, 0xAD	; 173
    6416:	d8 40       	sbci	r29, 0x08	; 8
    6418:	c1 55       	subi	r28, 0x51	; 81
    641a:	d7 4f       	sbci	r29, 0xF7	; 247
    641c:	b9 82       	std	Y+1, r11	; 0x01
    641e:	a8 82       	st	Y, r10
    6420:	cf 5a       	subi	r28, 0xAF	; 175
    6422:	d8 40       	sbci	r29, 0x08	; 8
    6424:	cf 54       	subi	r28, 0x4F	; 79
    6426:	d7 4f       	sbci	r29, 0xF7	; 247
    6428:	99 82       	std	Y+1, r9	; 0x01
    642a:	88 82       	st	Y, r8
    642c:	c1 5b       	subi	r28, 0xB1	; 177
    642e:	d8 40       	sbci	r29, 0x08	; 8
    6430:	8a ee       	ldi	r24, 0xEA	; 234
    6432:	90 e0       	ldi	r25, 0x00	; 0
    6434:	cd 54       	subi	r28, 0x4D	; 77
    6436:	d7 4f       	sbci	r29, 0xF7	; 247
    6438:	99 83       	std	Y+1, r25	; 0x01
    643a:	88 83       	st	Y, r24
    643c:	c3 5b       	subi	r28, 0xB3	; 179
    643e:	d8 40       	sbci	r29, 0x08	; 8
    6440:	88 ee       	ldi	r24, 0xE8	; 232
    6442:	90 e0       	ldi	r25, 0x00	; 0
    6444:	cb 54       	subi	r28, 0x4B	; 75
    6446:	d7 4f       	sbci	r29, 0xF7	; 247
    6448:	99 83       	std	Y+1, r25	; 0x01
    644a:	88 83       	st	Y, r24
    644c:	c5 5b       	subi	r28, 0xB5	; 181
    644e:	d8 40       	sbci	r29, 0x08	; 8
    6450:	86 ee       	ldi	r24, 0xE6	; 230
    6452:	90 e0       	ldi	r25, 0x00	; 0
    6454:	c9 54       	subi	r28, 0x49	; 73
    6456:	d7 4f       	sbci	r29, 0xF7	; 247
    6458:	99 83       	std	Y+1, r25	; 0x01
    645a:	88 83       	st	Y, r24
    645c:	c7 5b       	subi	r28, 0xB7	; 183
    645e:	d8 40       	sbci	r29, 0x08	; 8
    6460:	84 ee       	ldi	r24, 0xE4	; 228
    6462:	90 e0       	ldi	r25, 0x00	; 0
    6464:	c7 54       	subi	r28, 0x47	; 71
    6466:	d7 4f       	sbci	r29, 0xF7	; 247
    6468:	99 83       	std	Y+1, r25	; 0x01
    646a:	88 83       	st	Y, r24
    646c:	c9 5b       	subi	r28, 0xB9	; 185
    646e:	d8 40       	sbci	r29, 0x08	; 8
    6470:	c5 54       	subi	r28, 0x45	; 69
    6472:	d7 4f       	sbci	r29, 0xF7	; 247
    6474:	79 82       	std	Y+1, r7	; 0x01
    6476:	68 82       	st	Y, r6
    6478:	cb 5b       	subi	r28, 0xBB	; 187
    647a:	d8 40       	sbci	r29, 0x08	; 8
    647c:	c3 54       	subi	r28, 0x43	; 67
    647e:	d7 4f       	sbci	r29, 0xF7	; 247
    6480:	59 82       	std	Y+1, r5	; 0x01
    6482:	48 82       	st	Y, r4
    6484:	cd 5b       	subi	r28, 0xBD	; 189
    6486:	d8 40       	sbci	r29, 0x08	; 8
    6488:	c1 54       	subi	r28, 0x41	; 65
    648a:	d7 4f       	sbci	r29, 0xF7	; 247
    648c:	39 82       	std	Y+1, r3	; 0x01
    648e:	28 82       	st	Y, r2
    6490:	cf 5b       	subi	r28, 0xBF	; 191
    6492:	d8 40       	sbci	r29, 0x08	; 8
    6494:	8a ed       	ldi	r24, 0xDA	; 218
    6496:	90 e0       	ldi	r25, 0x00	; 0
    6498:	cf 53       	subi	r28, 0x3F	; 63
    649a:	d7 4f       	sbci	r29, 0xF7	; 247
    649c:	99 83       	std	Y+1, r25	; 0x01
    649e:	88 83       	st	Y, r24
    64a0:	c1 5c       	subi	r28, 0xC1	; 193
    64a2:	d8 40       	sbci	r29, 0x08	; 8
    64a4:	88 ed       	ldi	r24, 0xD8	; 216
    64a6:	90 e0       	ldi	r25, 0x00	; 0
    64a8:	cd 53       	subi	r28, 0x3D	; 61
    64aa:	d7 4f       	sbci	r29, 0xF7	; 247
    64ac:	99 83       	std	Y+1, r25	; 0x01
    64ae:	88 83       	st	Y, r24
    64b0:	c3 5c       	subi	r28, 0xC3	; 195
    64b2:	d8 40       	sbci	r29, 0x08	; 8
    64b4:	86 ed       	ldi	r24, 0xD6	; 214
    64b6:	90 e0       	ldi	r25, 0x00	; 0
    64b8:	cb 53       	subi	r28, 0x3B	; 59
    64ba:	d7 4f       	sbci	r29, 0xF7	; 247
    64bc:	99 83       	std	Y+1, r25	; 0x01
    64be:	88 83       	st	Y, r24
    64c0:	c5 5c       	subi	r28, 0xC5	; 197
    64c2:	d8 40       	sbci	r29, 0x08	; 8
    64c4:	23 ed       	ldi	r18, 0xD3	; 211
    64c6:	30 e0       	ldi	r19, 0x00	; 0
    64c8:	c9 53       	subi	r28, 0x39	; 57
    64ca:	d7 4f       	sbci	r29, 0xF7	; 247
    64cc:	39 83       	std	Y+1, r19	; 0x01
    64ce:	28 83       	st	Y, r18
    64d0:	c7 5c       	subi	r28, 0xC7	; 199
    64d2:	d8 40       	sbci	r29, 0x08	; 8
    64d4:	81 ed       	ldi	r24, 0xD1	; 209
    64d6:	90 e0       	ldi	r25, 0x00	; 0
    64d8:	c7 53       	subi	r28, 0x37	; 55
    64da:	d7 4f       	sbci	r29, 0xF7	; 247
    64dc:	99 83       	std	Y+1, r25	; 0x01
    64de:	88 83       	st	Y, r24
    64e0:	c9 5c       	subi	r28, 0xC9	; 201
    64e2:	d8 40       	sbci	r29, 0x08	; 8
    64e4:	8e ec       	ldi	r24, 0xCE	; 206
    64e6:	90 e0       	ldi	r25, 0x00	; 0
    64e8:	c5 53       	subi	r28, 0x35	; 53
    64ea:	d7 4f       	sbci	r29, 0xF7	; 247
    64ec:	99 83       	std	Y+1, r25	; 0x01
    64ee:	88 83       	st	Y, r24
    64f0:	cb 5c       	subi	r28, 0xCB	; 203
    64f2:	d8 40       	sbci	r29, 0x08	; 8
    64f4:	8c ec       	ldi	r24, 0xCC	; 204
    64f6:	90 e0       	ldi	r25, 0x00	; 0
    64f8:	c3 53       	subi	r28, 0x33	; 51
    64fa:	d7 4f       	sbci	r29, 0xF7	; 247
    64fc:	99 83       	std	Y+1, r25	; 0x01
    64fe:	88 83       	st	Y, r24
    6500:	cd 5c       	subi	r28, 0xCD	; 205
    6502:	d8 40       	sbci	r29, 0x08	; 8
    6504:	89 ec       	ldi	r24, 0xC9	; 201
    6506:	90 e0       	ldi	r25, 0x00	; 0
    6508:	c1 53       	subi	r28, 0x31	; 49
    650a:	d7 4f       	sbci	r29, 0xF7	; 247
    650c:	99 83       	std	Y+1, r25	; 0x01
    650e:	88 83       	st	Y, r24
    6510:	cf 5c       	subi	r28, 0xCF	; 207
    6512:	d8 40       	sbci	r29, 0x08	; 8
    6514:	86 ec       	ldi	r24, 0xC6	; 198
    6516:	90 e0       	ldi	r25, 0x00	; 0
    6518:	cf 52       	subi	r28, 0x2F	; 47
    651a:	d7 4f       	sbci	r29, 0xF7	; 247
    651c:	99 83       	std	Y+1, r25	; 0x01
    651e:	88 83       	st	Y, r24
    6520:	c1 5d       	subi	r28, 0xD1	; 209
    6522:	d8 40       	sbci	r29, 0x08	; 8
    6524:	84 ec       	ldi	r24, 0xC4	; 196
    6526:	90 e0       	ldi	r25, 0x00	; 0
    6528:	cd 52       	subi	r28, 0x2D	; 45
    652a:	d7 4f       	sbci	r29, 0xF7	; 247
    652c:	99 83       	std	Y+1, r25	; 0x01
    652e:	88 83       	st	Y, r24
    6530:	c3 5d       	subi	r28, 0xD3	; 211
    6532:	d8 40       	sbci	r29, 0x08	; 8
    6534:	81 ec       	ldi	r24, 0xC1	; 193
    6536:	90 e0       	ldi	r25, 0x00	; 0
    6538:	cb 52       	subi	r28, 0x2B	; 43
    653a:	d7 4f       	sbci	r29, 0xF7	; 247
    653c:	99 83       	std	Y+1, r25	; 0x01
    653e:	88 83       	st	Y, r24
    6540:	c5 5d       	subi	r28, 0xD5	; 213
    6542:	d8 40       	sbci	r29, 0x08	; 8
    6544:	8e eb       	ldi	r24, 0xBE	; 190
    6546:	90 e0       	ldi	r25, 0x00	; 0
    6548:	c9 52       	subi	r28, 0x29	; 41
    654a:	d7 4f       	sbci	r29, 0xF7	; 247
    654c:	99 83       	std	Y+1, r25	; 0x01
    654e:	88 83       	st	Y, r24
    6550:	c7 5d       	subi	r28, 0xD7	; 215
    6552:	d8 40       	sbci	r29, 0x08	; 8
    6554:	8c eb       	ldi	r24, 0xBC	; 188
    6556:	90 e0       	ldi	r25, 0x00	; 0
    6558:	c7 52       	subi	r28, 0x27	; 39
    655a:	d7 4f       	sbci	r29, 0xF7	; 247
    655c:	99 83       	std	Y+1, r25	; 0x01
    655e:	88 83       	st	Y, r24
    6560:	c9 5d       	subi	r28, 0xD9	; 217
    6562:	d8 40       	sbci	r29, 0x08	; 8
    6564:	89 eb       	ldi	r24, 0xB9	; 185
    6566:	90 e0       	ldi	r25, 0x00	; 0
    6568:	c5 52       	subi	r28, 0x25	; 37
    656a:	d7 4f       	sbci	r29, 0xF7	; 247
    656c:	99 83       	std	Y+1, r25	; 0x01
    656e:	88 83       	st	Y, r24
    6570:	cb 5d       	subi	r28, 0xDB	; 219
    6572:	d8 40       	sbci	r29, 0x08	; 8
    6574:	86 eb       	ldi	r24, 0xB6	; 182
    6576:	90 e0       	ldi	r25, 0x00	; 0
    6578:	c3 52       	subi	r28, 0x23	; 35
    657a:	d7 4f       	sbci	r29, 0xF7	; 247
    657c:	99 83       	std	Y+1, r25	; 0x01
    657e:	88 83       	st	Y, r24
    6580:	cd 5d       	subi	r28, 0xDD	; 221
    6582:	d8 40       	sbci	r29, 0x08	; 8
    6584:	83 eb       	ldi	r24, 0xB3	; 179
    6586:	90 e0       	ldi	r25, 0x00	; 0
    6588:	c1 52       	subi	r28, 0x21	; 33
    658a:	d7 4f       	sbci	r29, 0xF7	; 247
    658c:	99 83       	std	Y+1, r25	; 0x01
    658e:	88 83       	st	Y, r24
    6590:	cf 5d       	subi	r28, 0xDF	; 223
    6592:	d8 40       	sbci	r29, 0x08	; 8
    6594:	80 eb       	ldi	r24, 0xB0	; 176
    6596:	90 e0       	ldi	r25, 0x00	; 0
    6598:	cf 51       	subi	r28, 0x1F	; 31
    659a:	d7 4f       	sbci	r29, 0xF7	; 247
    659c:	99 83       	std	Y+1, r25	; 0x01
    659e:	88 83       	st	Y, r24
    65a0:	c1 5e       	subi	r28, 0xE1	; 225
    65a2:	d8 40       	sbci	r29, 0x08	; 8
    65a4:	8d ea       	ldi	r24, 0xAD	; 173
    65a6:	90 e0       	ldi	r25, 0x00	; 0
    65a8:	cd 51       	subi	r28, 0x1D	; 29
    65aa:	d7 4f       	sbci	r29, 0xF7	; 247
    65ac:	99 83       	std	Y+1, r25	; 0x01
    65ae:	88 83       	st	Y, r24
    65b0:	c3 5e       	subi	r28, 0xE3	; 227
    65b2:	d8 40       	sbci	r29, 0x08	; 8
    65b4:	8a ea       	ldi	r24, 0xAA	; 170
    65b6:	90 e0       	ldi	r25, 0x00	; 0
    65b8:	cb 51       	subi	r28, 0x1B	; 27
    65ba:	d7 4f       	sbci	r29, 0xF7	; 247
    65bc:	99 83       	std	Y+1, r25	; 0x01
    65be:	88 83       	st	Y, r24
    65c0:	c5 5e       	subi	r28, 0xE5	; 229
    65c2:	d8 40       	sbci	r29, 0x08	; 8
    65c4:	87 ea       	ldi	r24, 0xA7	; 167
    65c6:	90 e0       	ldi	r25, 0x00	; 0
    65c8:	c9 51       	subi	r28, 0x19	; 25
    65ca:	d7 4f       	sbci	r29, 0xF7	; 247
    65cc:	99 83       	std	Y+1, r25	; 0x01
    65ce:	88 83       	st	Y, r24
    65d0:	c7 5e       	subi	r28, 0xE7	; 231
    65d2:	d8 40       	sbci	r29, 0x08	; 8
    65d4:	83 ea       	ldi	r24, 0xA3	; 163
    65d6:	90 e0       	ldi	r25, 0x00	; 0
    65d8:	c7 51       	subi	r28, 0x17	; 23
    65da:	d7 4f       	sbci	r29, 0xF7	; 247
    65dc:	99 83       	std	Y+1, r25	; 0x01
    65de:	88 83       	st	Y, r24
    65e0:	c9 5e       	subi	r28, 0xE9	; 233
    65e2:	d8 40       	sbci	r29, 0x08	; 8
    65e4:	80 ea       	ldi	r24, 0xA0	; 160
    65e6:	90 e0       	ldi	r25, 0x00	; 0
    65e8:	c5 51       	subi	r28, 0x15	; 21
    65ea:	d7 4f       	sbci	r29, 0xF7	; 247
    65ec:	99 83       	std	Y+1, r25	; 0x01
    65ee:	88 83       	st	Y, r24
    65f0:	cb 5e       	subi	r28, 0xEB	; 235
    65f2:	d8 40       	sbci	r29, 0x08	; 8
    65f4:	8d e9       	ldi	r24, 0x9D	; 157
    65f6:	90 e0       	ldi	r25, 0x00	; 0
    65f8:	c3 51       	subi	r28, 0x13	; 19
    65fa:	d7 4f       	sbci	r29, 0xF7	; 247
    65fc:	99 83       	std	Y+1, r25	; 0x01
    65fe:	88 83       	st	Y, r24
    6600:	cd 5e       	subi	r28, 0xED	; 237
    6602:	d8 40       	sbci	r29, 0x08	; 8
    6604:	89 e9       	ldi	r24, 0x99	; 153
    6606:	90 e0       	ldi	r25, 0x00	; 0
    6608:	c1 51       	subi	r28, 0x11	; 17
    660a:	d7 4f       	sbci	r29, 0xF7	; 247
    660c:	99 83       	std	Y+1, r25	; 0x01
    660e:	88 83       	st	Y, r24
    6610:	cf 5e       	subi	r28, 0xEF	; 239
    6612:	d8 40       	sbci	r29, 0x08	; 8
    6614:	86 e9       	ldi	r24, 0x96	; 150
    6616:	90 e0       	ldi	r25, 0x00	; 0
    6618:	cf 50       	subi	r28, 0x0F	; 15
    661a:	d7 4f       	sbci	r29, 0xF7	; 247
    661c:	99 83       	std	Y+1, r25	; 0x01
    661e:	88 83       	st	Y, r24
    6620:	c1 5f       	subi	r28, 0xF1	; 241
    6622:	d8 40       	sbci	r29, 0x08	; 8
    6624:	82 e9       	ldi	r24, 0x92	; 146
    6626:	90 e0       	ldi	r25, 0x00	; 0
    6628:	cd 50       	subi	r28, 0x0D	; 13
    662a:	d7 4f       	sbci	r29, 0xF7	; 247
    662c:	99 83       	std	Y+1, r25	; 0x01
    662e:	88 83       	st	Y, r24
    6630:	c3 5f       	subi	r28, 0xF3	; 243
    6632:	d8 40       	sbci	r29, 0x08	; 8
    6634:	8e e8       	ldi	r24, 0x8E	; 142
    6636:	90 e0       	ldi	r25, 0x00	; 0
    6638:	cb 50       	subi	r28, 0x0B	; 11
    663a:	d7 4f       	sbci	r29, 0xF7	; 247
    663c:	99 83       	std	Y+1, r25	; 0x01
    663e:	88 83       	st	Y, r24
    6640:	c5 5f       	subi	r28, 0xF5	; 245
    6642:	d8 40       	sbci	r29, 0x08	; 8
    6644:	8b e8       	ldi	r24, 0x8B	; 139
    6646:	90 e0       	ldi	r25, 0x00	; 0
    6648:	c9 50       	subi	r28, 0x09	; 9
    664a:	d7 4f       	sbci	r29, 0xF7	; 247
    664c:	99 83       	std	Y+1, r25	; 0x01
    664e:	88 83       	st	Y, r24
    6650:	c7 5f       	subi	r28, 0xF7	; 247
    6652:	d8 40       	sbci	r29, 0x08	; 8
    6654:	87 e8       	ldi	r24, 0x87	; 135
    6656:	90 e0       	ldi	r25, 0x00	; 0
    6658:	c7 50       	subi	r28, 0x07	; 7
    665a:	d7 4f       	sbci	r29, 0xF7	; 247
    665c:	99 83       	std	Y+1, r25	; 0x01
    665e:	88 83       	st	Y, r24
    6660:	c9 5f       	subi	r28, 0xF9	; 249
    6662:	d8 40       	sbci	r29, 0x08	; 8
    6664:	83 e8       	ldi	r24, 0x83	; 131
    6666:	90 e0       	ldi	r25, 0x00	; 0
    6668:	c5 50       	subi	r28, 0x05	; 5
    666a:	d7 4f       	sbci	r29, 0xF7	; 247
    666c:	99 83       	std	Y+1, r25	; 0x01
    666e:	88 83       	st	Y, r24
    6670:	cb 5f       	subi	r28, 0xFB	; 251
    6672:	d8 40       	sbci	r29, 0x08	; 8
    6674:	0f 2e       	mov	r0, r31
    6676:	fe e7       	ldi	r31, 0x7E	; 126
    6678:	ef 2e       	mov	r14, r31
    667a:	f1 2c       	mov	r15, r1
    667c:	f0 2d       	mov	r31, r0
    667e:	c3 50       	subi	r28, 0x03	; 3
    6680:	d7 4f       	sbci	r29, 0xF7	; 247
    6682:	f9 82       	std	Y+1, r15	; 0x01
    6684:	e8 82       	st	Y, r14
    6686:	cd 5f       	subi	r28, 0xFD	; 253
    6688:	d8 40       	sbci	r29, 0x08	; 8
    668a:	0a e7       	ldi	r16, 0x7A	; 122
    668c:	10 e0       	ldi	r17, 0x00	; 0
    668e:	c1 50       	subi	r28, 0x01	; 1
    6690:	d7 4f       	sbci	r29, 0xF7	; 247
    6692:	19 83       	std	Y+1, r17	; 0x01
    6694:	08 83       	st	Y, r16
    6696:	cf 5f       	subi	r28, 0xFF	; 255
    6698:	d8 40       	sbci	r29, 0x08	; 8
    669a:	a5 e7       	ldi	r26, 0x75	; 117
    669c:	b0 e0       	ldi	r27, 0x00	; 0
    669e:	cf 5f       	subi	r28, 0xFF	; 255
    66a0:	d6 4f       	sbci	r29, 0xF6	; 246
    66a2:	b9 83       	std	Y+1, r27	; 0x01
    66a4:	a8 83       	st	Y, r26
    66a6:	c1 50       	subi	r28, 0x01	; 1
    66a8:	d9 40       	sbci	r29, 0x09	; 9
    66aa:	e1 e7       	ldi	r30, 0x71	; 113
    66ac:	f0 e0       	ldi	r31, 0x00	; 0
    66ae:	cd 5f       	subi	r28, 0xFD	; 253
    66b0:	d6 4f       	sbci	r29, 0xF6	; 246
    66b2:	f9 83       	std	Y+1, r31	; 0x01
    66b4:	e8 83       	st	Y, r30
    66b6:	c3 50       	subi	r28, 0x03	; 3
    66b8:	d9 40       	sbci	r29, 0x09	; 9
    66ba:	6c e6       	ldi	r22, 0x6C	; 108
    66bc:	70 e0       	ldi	r23, 0x00	; 0
    66be:	cb 5f       	subi	r28, 0xFB	; 251
    66c0:	d6 4f       	sbci	r29, 0xF6	; 246
    66c2:	79 83       	std	Y+1, r23	; 0x01
    66c4:	68 83       	st	Y, r22
    66c6:	c5 50       	subi	r28, 0x05	; 5
    66c8:	d9 40       	sbci	r29, 0x09	; 9
    66ca:	46 e6       	ldi	r20, 0x66	; 102
    66cc:	50 e0       	ldi	r21, 0x00	; 0
    66ce:	c9 5f       	subi	r28, 0xF9	; 249
    66d0:	d6 4f       	sbci	r29, 0xF6	; 246
    66d2:	59 83       	std	Y+1, r21	; 0x01
    66d4:	48 83       	st	Y, r20
    66d6:	c7 50       	subi	r28, 0x07	; 7
    66d8:	d9 40       	sbci	r29, 0x09	; 9
    66da:	21 e6       	ldi	r18, 0x61	; 97
    66dc:	30 e0       	ldi	r19, 0x00	; 0
    66de:	c7 5f       	subi	r28, 0xF7	; 247
    66e0:	d6 4f       	sbci	r29, 0xF6	; 246
    66e2:	39 83       	std	Y+1, r19	; 0x01
    66e4:	28 83       	st	Y, r18
    66e6:	c9 50       	subi	r28, 0x09	; 9
    66e8:	d9 40       	sbci	r29, 0x09	; 9
    66ea:	8b e5       	ldi	r24, 0x5B	; 91
    66ec:	90 e0       	ldi	r25, 0x00	; 0
    66ee:	c5 5f       	subi	r28, 0xF5	; 245
    66f0:	d6 4f       	sbci	r29, 0xF6	; 246
    66f2:	99 83       	std	Y+1, r25	; 0x01
    66f4:	88 83       	st	Y, r24
    66f6:	cb 50       	subi	r28, 0x0B	; 11
    66f8:	d9 40       	sbci	r29, 0x09	; 9
    66fa:	0f 2e       	mov	r0, r31
    66fc:	f4 e5       	ldi	r31, 0x54	; 84
    66fe:	af 2e       	mov	r10, r31
    6700:	b1 2c       	mov	r11, r1
    6702:	f0 2d       	mov	r31, r0
    6704:	c3 5f       	subi	r28, 0xF3	; 243
    6706:	d6 4f       	sbci	r29, 0xF6	; 246
    6708:	b9 82       	std	Y+1, r11	; 0x01
    670a:	a8 82       	st	Y, r10
    670c:	cd 50       	subi	r28, 0x0D	; 13
    670e:	d9 40       	sbci	r29, 0x09	; 9
    6710:	0f 2e       	mov	r0, r31
    6712:	fd e4       	ldi	r31, 0x4D	; 77
    6714:	8f 2e       	mov	r8, r31
    6716:	91 2c       	mov	r9, r1
    6718:	f0 2d       	mov	r31, r0
    671a:	c1 5f       	subi	r28, 0xF1	; 241
    671c:	d6 4f       	sbci	r29, 0xF6	; 246
    671e:	99 82       	std	Y+1, r9	; 0x01
    6720:	88 82       	st	Y, r8
    6722:	cf 50       	subi	r28, 0x0F	; 15
    6724:	d9 40       	sbci	r29, 0x09	; 9
    6726:	0f 2e       	mov	r0, r31
    6728:	f5 e4       	ldi	r31, 0x45	; 69
    672a:	6f 2e       	mov	r6, r31
    672c:	71 2c       	mov	r7, r1
    672e:	f0 2d       	mov	r31, r0
    6730:	cf 5e       	subi	r28, 0xEF	; 239
    6732:	d6 4f       	sbci	r29, 0xF6	; 246
    6734:	79 82       	std	Y+1, r7	; 0x01
    6736:	68 82       	st	Y, r6
    6738:	c1 51       	subi	r28, 0x11	; 17
    673a:	d9 40       	sbci	r29, 0x09	; 9
    673c:	0f 2e       	mov	r0, r31
    673e:	fc e3       	ldi	r31, 0x3C	; 60
    6740:	4f 2e       	mov	r4, r31
    6742:	51 2c       	mov	r5, r1
    6744:	f0 2d       	mov	r31, r0
    6746:	cd 5e       	subi	r28, 0xED	; 237
    6748:	d6 4f       	sbci	r29, 0xF6	; 246
    674a:	59 82       	std	Y+1, r5	; 0x01
    674c:	48 82       	st	Y, r4
    674e:	c3 51       	subi	r28, 0x13	; 19
    6750:	d9 40       	sbci	r29, 0x09	; 9
    6752:	0f 2e       	mov	r0, r31
    6754:	f2 e3       	ldi	r31, 0x32	; 50
    6756:	2f 2e       	mov	r2, r31
    6758:	31 2c       	mov	r3, r1
    675a:	f0 2d       	mov	r31, r0
    675c:	cb 5e       	subi	r28, 0xEB	; 235
    675e:	d6 4f       	sbci	r29, 0xF6	; 246
    6760:	39 82       	std	Y+1, r3	; 0x01
    6762:	28 82       	st	Y, r2
    6764:	c5 51       	subi	r28, 0x15	; 21
    6766:	d9 40       	sbci	r29, 0x09	; 9
    6768:	0f 2e       	mov	r0, r31
    676a:	f4 e2       	ldi	r31, 0x24	; 36
    676c:	cf 2e       	mov	r12, r31
    676e:	d1 2c       	mov	r13, r1
    6770:	f0 2d       	mov	r31, r0
    6772:	c9 5e       	subi	r28, 0xE9	; 233
    6774:	d6 4f       	sbci	r29, 0xF6	; 246
    6776:	d9 82       	std	Y+1, r13	; 0x01
    6778:	c8 82       	st	Y, r12
    677a:	c7 51       	subi	r28, 0x17	; 23
    677c:	d9 40       	sbci	r29, 0x09	; 9
    677e:	68 94       	set
    6780:	cc 24       	eor	r12, r12
    6782:	c7 f8       	bld	r12, 7
    6784:	d1 2c       	mov	r13, r1
    6786:	c7 5e       	subi	r28, 0xE7	; 231
    6788:	d6 4f       	sbci	r29, 0xF6	; 246
    678a:	d9 82       	std	Y+1, r13	; 0x01
    678c:	c8 82       	st	Y, r12
    678e:	c9 51       	subi	r28, 0x19	; 25
    6790:	d9 40       	sbci	r29, 0x09	; 9
    6792:	0f 2e       	mov	r0, r31
    6794:	ff e7       	ldi	r31, 0x7F	; 127
    6796:	cf 2e       	mov	r12, r31
    6798:	d1 2c       	mov	r13, r1
    679a:	f0 2d       	mov	r31, r0
    679c:	c5 5e       	subi	r28, 0xE5	; 229
    679e:	d6 4f       	sbci	r29, 0xF6	; 246
    67a0:	d9 82       	std	Y+1, r13	; 0x01
    67a2:	c8 82       	st	Y, r12
    67a4:	cb 51       	subi	r28, 0x1B	; 27
    67a6:	d9 40       	sbci	r29, 0x09	; 9
    67a8:	c3 5e       	subi	r28, 0xE3	; 227
    67aa:	d6 4f       	sbci	r29, 0xF6	; 246
    67ac:	f9 82       	std	Y+1, r15	; 0x01
    67ae:	e8 82       	st	Y, r14
    67b0:	cd 51       	subi	r28, 0x1D	; 29
    67b2:	d9 40       	sbci	r29, 0x09	; 9
    67b4:	0f 2e       	mov	r0, r31
    67b6:	fd e7       	ldi	r31, 0x7D	; 125
    67b8:	ef 2e       	mov	r14, r31
    67ba:	f1 2c       	mov	r15, r1
    67bc:	f0 2d       	mov	r31, r0
    67be:	c1 5e       	subi	r28, 0xE1	; 225
    67c0:	d6 4f       	sbci	r29, 0xF6	; 246
    67c2:	f9 82       	std	Y+1, r15	; 0x01
    67c4:	e8 82       	st	Y, r14
    67c6:	cf 51       	subi	r28, 0x1F	; 31
    67c8:	d9 40       	sbci	r29, 0x09	; 9
    67ca:	0f 2e       	mov	r0, r31
    67cc:	fc e7       	ldi	r31, 0x7C	; 124
    67ce:	ef 2e       	mov	r14, r31
    67d0:	f1 2c       	mov	r15, r1
    67d2:	f0 2d       	mov	r31, r0
    67d4:	cf 5d       	subi	r28, 0xDF	; 223
    67d6:	d6 4f       	sbci	r29, 0xF6	; 246
    67d8:	f9 82       	std	Y+1, r15	; 0x01
    67da:	e8 82       	st	Y, r14
    67dc:	c1 52       	subi	r28, 0x21	; 33
    67de:	d9 40       	sbci	r29, 0x09	; 9
    67e0:	0f 2e       	mov	r0, r31
    67e2:	fb e7       	ldi	r31, 0x7B	; 123
    67e4:	ef 2e       	mov	r14, r31
    67e6:	f1 2c       	mov	r15, r1
    67e8:	f0 2d       	mov	r31, r0
    67ea:	cd 5d       	subi	r28, 0xDD	; 221
    67ec:	d6 4f       	sbci	r29, 0xF6	; 246
    67ee:	f9 82       	std	Y+1, r15	; 0x01
    67f0:	e8 82       	st	Y, r14
    67f2:	c3 52       	subi	r28, 0x23	; 35
    67f4:	d9 40       	sbci	r29, 0x09	; 9
    67f6:	cb 5d       	subi	r28, 0xDB	; 219
    67f8:	d6 4f       	sbci	r29, 0xF6	; 246
    67fa:	19 83       	std	Y+1, r17	; 0x01
    67fc:	08 83       	st	Y, r16
    67fe:	c5 52       	subi	r28, 0x25	; 37
    6800:	d9 40       	sbci	r29, 0x09	; 9
    6802:	09 e7       	ldi	r16, 0x79	; 121
    6804:	10 e0       	ldi	r17, 0x00	; 0
    6806:	c9 5d       	subi	r28, 0xD9	; 217
    6808:	d6 4f       	sbci	r29, 0xF6	; 246
    680a:	19 83       	std	Y+1, r17	; 0x01
    680c:	08 83       	st	Y, r16
    680e:	c7 52       	subi	r28, 0x27	; 39
    6810:	d9 40       	sbci	r29, 0x09	; 9
    6812:	08 e7       	ldi	r16, 0x78	; 120
    6814:	10 e0       	ldi	r17, 0x00	; 0
    6816:	c7 5d       	subi	r28, 0xD7	; 215
    6818:	d6 4f       	sbci	r29, 0xF6	; 246
    681a:	19 83       	std	Y+1, r17	; 0x01
    681c:	08 83       	st	Y, r16
    681e:	c9 52       	subi	r28, 0x29	; 41
    6820:	d9 40       	sbci	r29, 0x09	; 9
    6822:	07 e7       	ldi	r16, 0x77	; 119
    6824:	10 e0       	ldi	r17, 0x00	; 0
    6826:	c5 5d       	subi	r28, 0xD5	; 213
    6828:	d6 4f       	sbci	r29, 0xF6	; 246
    682a:	19 83       	std	Y+1, r17	; 0x01
    682c:	08 83       	st	Y, r16
    682e:	cb 52       	subi	r28, 0x2B	; 43
    6830:	d9 40       	sbci	r29, 0x09	; 9
    6832:	06 e7       	ldi	r16, 0x76	; 118
    6834:	10 e0       	ldi	r17, 0x00	; 0
    6836:	c3 5d       	subi	r28, 0xD3	; 211
    6838:	d6 4f       	sbci	r29, 0xF6	; 246
    683a:	19 83       	std	Y+1, r17	; 0x01
    683c:	08 83       	st	Y, r16
    683e:	cd 52       	subi	r28, 0x2D	; 45
    6840:	d9 40       	sbci	r29, 0x09	; 9
    6842:	c1 5d       	subi	r28, 0xD1	; 209
    6844:	d6 4f       	sbci	r29, 0xF6	; 246
    6846:	b9 83       	std	Y+1, r27	; 0x01
    6848:	a8 83       	st	Y, r26
    684a:	cf 52       	subi	r28, 0x2F	; 47
    684c:	d9 40       	sbci	r29, 0x09	; 9
    684e:	a4 e7       	ldi	r26, 0x74	; 116
    6850:	b0 e0       	ldi	r27, 0x00	; 0
    6852:	cf 5c       	subi	r28, 0xCF	; 207
    6854:	d6 4f       	sbci	r29, 0xF6	; 246
    6856:	b9 83       	std	Y+1, r27	; 0x01
    6858:	a8 83       	st	Y, r26
    685a:	c1 53       	subi	r28, 0x31	; 49
    685c:	d9 40       	sbci	r29, 0x09	; 9
    685e:	a3 e7       	ldi	r26, 0x73	; 115
    6860:	b0 e0       	ldi	r27, 0x00	; 0
    6862:	cd 5c       	subi	r28, 0xCD	; 205
    6864:	d6 4f       	sbci	r29, 0xF6	; 246
    6866:	b9 83       	std	Y+1, r27	; 0x01
    6868:	a8 83       	st	Y, r26
    686a:	c3 53       	subi	r28, 0x33	; 51
    686c:	d9 40       	sbci	r29, 0x09	; 9
    686e:	a2 e7       	ldi	r26, 0x72	; 114
    6870:	b0 e0       	ldi	r27, 0x00	; 0
    6872:	cb 5c       	subi	r28, 0xCB	; 203
    6874:	d6 4f       	sbci	r29, 0xF6	; 246
    6876:	b9 83       	std	Y+1, r27	; 0x01
    6878:	a8 83       	st	Y, r26
    687a:	c5 53       	subi	r28, 0x35	; 53
    687c:	d9 40       	sbci	r29, 0x09	; 9
    687e:	c9 5c       	subi	r28, 0xC9	; 201
    6880:	d6 4f       	sbci	r29, 0xF6	; 246
    6882:	f9 83       	std	Y+1, r31	; 0x01
    6884:	e8 83       	st	Y, r30
    6886:	c7 53       	subi	r28, 0x37	; 55
    6888:	d9 40       	sbci	r29, 0x09	; 9
    688a:	e0 e7       	ldi	r30, 0x70	; 112
    688c:	f0 e0       	ldi	r31, 0x00	; 0
    688e:	c7 5c       	subi	r28, 0xC7	; 199
    6890:	d6 4f       	sbci	r29, 0xF6	; 246
    6892:	f9 83       	std	Y+1, r31	; 0x01
    6894:	e8 83       	st	Y, r30
    6896:	c9 53       	subi	r28, 0x39	; 57
    6898:	d9 40       	sbci	r29, 0x09	; 9
    689a:	ef e6       	ldi	r30, 0x6F	; 111
    689c:	f0 e0       	ldi	r31, 0x00	; 0
    689e:	c5 5c       	subi	r28, 0xC5	; 197
    68a0:	d6 4f       	sbci	r29, 0xF6	; 246
    68a2:	f9 83       	std	Y+1, r31	; 0x01
    68a4:	e8 83       	st	Y, r30
    68a6:	cb 53       	subi	r28, 0x3B	; 59
    68a8:	d9 40       	sbci	r29, 0x09	; 9
    68aa:	ee e6       	ldi	r30, 0x6E	; 110
    68ac:	f0 e0       	ldi	r31, 0x00	; 0
    68ae:	c3 5c       	subi	r28, 0xC3	; 195
    68b0:	d6 4f       	sbci	r29, 0xF6	; 246
    68b2:	f9 83       	std	Y+1, r31	; 0x01
    68b4:	e8 83       	st	Y, r30
    68b6:	cd 53       	subi	r28, 0x3D	; 61
    68b8:	d9 40       	sbci	r29, 0x09	; 9
    68ba:	ed e6       	ldi	r30, 0x6D	; 109
    68bc:	f0 e0       	ldi	r31, 0x00	; 0
    68be:	c1 5c       	subi	r28, 0xC1	; 193
    68c0:	d6 4f       	sbci	r29, 0xF6	; 246
    68c2:	f9 83       	std	Y+1, r31	; 0x01
    68c4:	e8 83       	st	Y, r30
    68c6:	cf 53       	subi	r28, 0x3F	; 63
    68c8:	d9 40       	sbci	r29, 0x09	; 9
    68ca:	cf 5b       	subi	r28, 0xBF	; 191
    68cc:	d6 4f       	sbci	r29, 0xF6	; 246
    68ce:	79 83       	std	Y+1, r23	; 0x01
    68d0:	68 83       	st	Y, r22
    68d2:	c1 54       	subi	r28, 0x41	; 65
    68d4:	d9 40       	sbci	r29, 0x09	; 9
    68d6:	6b e6       	ldi	r22, 0x6B	; 107
    68d8:	70 e0       	ldi	r23, 0x00	; 0
    68da:	cd 5b       	subi	r28, 0xBD	; 189
    68dc:	d6 4f       	sbci	r29, 0xF6	; 246
    68de:	79 83       	std	Y+1, r23	; 0x01
    68e0:	68 83       	st	Y, r22
    68e2:	c3 54       	subi	r28, 0x43	; 67
    68e4:	d9 40       	sbci	r29, 0x09	; 9
    68e6:	6a e6       	ldi	r22, 0x6A	; 106
    68e8:	70 e0       	ldi	r23, 0x00	; 0
    68ea:	cb 5b       	subi	r28, 0xBB	; 187
    68ec:	d6 4f       	sbci	r29, 0xF6	; 246
    68ee:	79 83       	std	Y+1, r23	; 0x01
    68f0:	68 83       	st	Y, r22
    68f2:	c5 54       	subi	r28, 0x45	; 69
    68f4:	d9 40       	sbci	r29, 0x09	; 9
    68f6:	69 e6       	ldi	r22, 0x69	; 105
    68f8:	70 e0       	ldi	r23, 0x00	; 0
    68fa:	c9 5b       	subi	r28, 0xB9	; 185
    68fc:	d6 4f       	sbci	r29, 0xF6	; 246
    68fe:	79 83       	std	Y+1, r23	; 0x01
    6900:	68 83       	st	Y, r22
    6902:	c7 54       	subi	r28, 0x47	; 71
    6904:	d9 40       	sbci	r29, 0x09	; 9
    6906:	68 e6       	ldi	r22, 0x68	; 104
    6908:	70 e0       	ldi	r23, 0x00	; 0
    690a:	c7 5b       	subi	r28, 0xB7	; 183
    690c:	d6 4f       	sbci	r29, 0xF6	; 246
    690e:	79 83       	std	Y+1, r23	; 0x01
    6910:	68 83       	st	Y, r22
    6912:	c9 54       	subi	r28, 0x49	; 73
    6914:	d9 40       	sbci	r29, 0x09	; 9
    6916:	67 e6       	ldi	r22, 0x67	; 103
    6918:	70 e0       	ldi	r23, 0x00	; 0
    691a:	c5 5b       	subi	r28, 0xB5	; 181
    691c:	d6 4f       	sbci	r29, 0xF6	; 246
    691e:	79 83       	std	Y+1, r23	; 0x01
    6920:	68 83       	st	Y, r22
    6922:	cb 54       	subi	r28, 0x4B	; 75
    6924:	d9 40       	sbci	r29, 0x09	; 9
    6926:	c3 5b       	subi	r28, 0xB3	; 179
    6928:	d6 4f       	sbci	r29, 0xF6	; 246
    692a:	59 83       	std	Y+1, r21	; 0x01
    692c:	48 83       	st	Y, r20
    692e:	cd 54       	subi	r28, 0x4D	; 77
    6930:	d9 40       	sbci	r29, 0x09	; 9
    6932:	45 e6       	ldi	r20, 0x65	; 101
    6934:	50 e0       	ldi	r21, 0x00	; 0
    6936:	c1 5b       	subi	r28, 0xB1	; 177
    6938:	d6 4f       	sbci	r29, 0xF6	; 246
    693a:	59 83       	std	Y+1, r21	; 0x01
    693c:	48 83       	st	Y, r20
    693e:	cf 54       	subi	r28, 0x4F	; 79
    6940:	d9 40       	sbci	r29, 0x09	; 9
    6942:	44 e6       	ldi	r20, 0x64	; 100
    6944:	50 e0       	ldi	r21, 0x00	; 0
    6946:	cf 5a       	subi	r28, 0xAF	; 175
    6948:	d6 4f       	sbci	r29, 0xF6	; 246
    694a:	59 83       	std	Y+1, r21	; 0x01
    694c:	48 83       	st	Y, r20
    694e:	c1 55       	subi	r28, 0x51	; 81
    6950:	d9 40       	sbci	r29, 0x09	; 9
    6952:	43 e6       	ldi	r20, 0x63	; 99
    6954:	50 e0       	ldi	r21, 0x00	; 0
    6956:	cd 5a       	subi	r28, 0xAD	; 173
    6958:	d6 4f       	sbci	r29, 0xF6	; 246
    695a:	59 83       	std	Y+1, r21	; 0x01
    695c:	48 83       	st	Y, r20
    695e:	c3 55       	subi	r28, 0x53	; 83
    6960:	d9 40       	sbci	r29, 0x09	; 9
    6962:	42 e6       	ldi	r20, 0x62	; 98
    6964:	50 e0       	ldi	r21, 0x00	; 0
    6966:	cb 5a       	subi	r28, 0xAB	; 171
    6968:	d6 4f       	sbci	r29, 0xF6	; 246
    696a:	59 83       	std	Y+1, r21	; 0x01
    696c:	48 83       	st	Y, r20
    696e:	c5 55       	subi	r28, 0x55	; 85
    6970:	d9 40       	sbci	r29, 0x09	; 9
    6972:	c9 5a       	subi	r28, 0xA9	; 169
    6974:	d6 4f       	sbci	r29, 0xF6	; 246
    6976:	39 83       	std	Y+1, r19	; 0x01
    6978:	28 83       	st	Y, r18
    697a:	c7 55       	subi	r28, 0x57	; 87
    697c:	d9 40       	sbci	r29, 0x09	; 9
    697e:	20 e6       	ldi	r18, 0x60	; 96
    6980:	30 e0       	ldi	r19, 0x00	; 0
    6982:	c7 5a       	subi	r28, 0xA7	; 167
    6984:	d6 4f       	sbci	r29, 0xF6	; 246
    6986:	39 83       	std	Y+1, r19	; 0x01
    6988:	28 83       	st	Y, r18
    698a:	c9 55       	subi	r28, 0x59	; 89
    698c:	d9 40       	sbci	r29, 0x09	; 9
    698e:	2f e5       	ldi	r18, 0x5F	; 95
    6990:	30 e0       	ldi	r19, 0x00	; 0
    6992:	c5 5a       	subi	r28, 0xA5	; 165
    6994:	d6 4f       	sbci	r29, 0xF6	; 246
    6996:	39 83       	std	Y+1, r19	; 0x01
    6998:	28 83       	st	Y, r18
    699a:	cb 55       	subi	r28, 0x5B	; 91
    699c:	d9 40       	sbci	r29, 0x09	; 9
    699e:	2e e5       	ldi	r18, 0x5E	; 94
    69a0:	30 e0       	ldi	r19, 0x00	; 0
    69a2:	c3 5a       	subi	r28, 0xA3	; 163
    69a4:	d6 4f       	sbci	r29, 0xF6	; 246
    69a6:	39 83       	std	Y+1, r19	; 0x01
    69a8:	28 83       	st	Y, r18
    69aa:	cd 55       	subi	r28, 0x5D	; 93
    69ac:	d9 40       	sbci	r29, 0x09	; 9
    69ae:	2d e5       	ldi	r18, 0x5D	; 93
    69b0:	30 e0       	ldi	r19, 0x00	; 0
    69b2:	c1 5a       	subi	r28, 0xA1	; 161
    69b4:	d6 4f       	sbci	r29, 0xF6	; 246
    69b6:	39 83       	std	Y+1, r19	; 0x01
    69b8:	28 83       	st	Y, r18
    69ba:	cf 55       	subi	r28, 0x5F	; 95
    69bc:	d9 40       	sbci	r29, 0x09	; 9
    69be:	2c e5       	ldi	r18, 0x5C	; 92
    69c0:	30 e0       	ldi	r19, 0x00	; 0
    69c2:	cf 59       	subi	r28, 0x9F	; 159
    69c4:	d6 4f       	sbci	r29, 0xF6	; 246
    69c6:	39 83       	std	Y+1, r19	; 0x01
    69c8:	28 83       	st	Y, r18
    69ca:	c1 56       	subi	r28, 0x61	; 97
    69cc:	d9 40       	sbci	r29, 0x09	; 9
    69ce:	cd 59       	subi	r28, 0x9D	; 157
    69d0:	d6 4f       	sbci	r29, 0xF6	; 246
    69d2:	99 83       	std	Y+1, r25	; 0x01
    69d4:	88 83       	st	Y, r24
    69d6:	c3 56       	subi	r28, 0x63	; 99
    69d8:	d9 40       	sbci	r29, 0x09	; 9
    69da:	8a e5       	ldi	r24, 0x5A	; 90
    69dc:	90 e0       	ldi	r25, 0x00	; 0
    69de:	cb 59       	subi	r28, 0x9B	; 155
    69e0:	d6 4f       	sbci	r29, 0xF6	; 246
    69e2:	99 83       	std	Y+1, r25	; 0x01
    69e4:	88 83       	st	Y, r24
    69e6:	c5 56       	subi	r28, 0x65	; 101
    69e8:	d9 40       	sbci	r29, 0x09	; 9
    69ea:	89 e5       	ldi	r24, 0x59	; 89
    69ec:	90 e0       	ldi	r25, 0x00	; 0
    69ee:	c9 59       	subi	r28, 0x99	; 153
    69f0:	d6 4f       	sbci	r29, 0xF6	; 246
    69f2:	99 83       	std	Y+1, r25	; 0x01
    69f4:	88 83       	st	Y, r24
    69f6:	c7 56       	subi	r28, 0x67	; 103
    69f8:	d9 40       	sbci	r29, 0x09	; 9
    69fa:	88 e5       	ldi	r24, 0x58	; 88
    69fc:	90 e0       	ldi	r25, 0x00	; 0
    69fe:	c7 59       	subi	r28, 0x97	; 151
    6a00:	d6 4f       	sbci	r29, 0xF6	; 246
    6a02:	99 83       	std	Y+1, r25	; 0x01
    6a04:	88 83       	st	Y, r24
    6a06:	c9 56       	subi	r28, 0x69	; 105
    6a08:	d9 40       	sbci	r29, 0x09	; 9
    6a0a:	87 e5       	ldi	r24, 0x57	; 87
    6a0c:	90 e0       	ldi	r25, 0x00	; 0
    6a0e:	c5 59       	subi	r28, 0x95	; 149
    6a10:	d6 4f       	sbci	r29, 0xF6	; 246
    6a12:	99 83       	std	Y+1, r25	; 0x01
    6a14:	88 83       	st	Y, r24
    6a16:	cb 56       	subi	r28, 0x6B	; 107
    6a18:	d9 40       	sbci	r29, 0x09	; 9
    6a1a:	86 e5       	ldi	r24, 0x56	; 86
    6a1c:	90 e0       	ldi	r25, 0x00	; 0
    6a1e:	c3 59       	subi	r28, 0x93	; 147
    6a20:	d6 4f       	sbci	r29, 0xF6	; 246
    6a22:	99 83       	std	Y+1, r25	; 0x01
    6a24:	88 83       	st	Y, r24
    6a26:	cd 56       	subi	r28, 0x6D	; 109
    6a28:	d9 40       	sbci	r29, 0x09	; 9
    6a2a:	85 e5       	ldi	r24, 0x55	; 85
    6a2c:	90 e0       	ldi	r25, 0x00	; 0
    6a2e:	c1 59       	subi	r28, 0x91	; 145
    6a30:	d6 4f       	sbci	r29, 0xF6	; 246
    6a32:	99 83       	std	Y+1, r25	; 0x01
    6a34:	88 83       	st	Y, r24
    6a36:	cf 56       	subi	r28, 0x6F	; 111
    6a38:	d9 40       	sbci	r29, 0x09	; 9
    6a3a:	cf 58       	subi	r28, 0x8F	; 143
    6a3c:	d6 4f       	sbci	r29, 0xF6	; 246
    6a3e:	b9 82       	std	Y+1, r11	; 0x01
    6a40:	a8 82       	st	Y, r10
    6a42:	c1 57       	subi	r28, 0x71	; 113
    6a44:	d9 40       	sbci	r29, 0x09	; 9
    6a46:	83 e5       	ldi	r24, 0x53	; 83
    6a48:	90 e0       	ldi	r25, 0x00	; 0
    6a4a:	cd 58       	subi	r28, 0x8D	; 141
    6a4c:	d6 4f       	sbci	r29, 0xF6	; 246
    6a4e:	99 83       	std	Y+1, r25	; 0x01
    6a50:	88 83       	st	Y, r24
    6a52:	c3 57       	subi	r28, 0x73	; 115
    6a54:	d9 40       	sbci	r29, 0x09	; 9
    6a56:	82 e5       	ldi	r24, 0x52	; 82
    6a58:	90 e0       	ldi	r25, 0x00	; 0
    6a5a:	cb 58       	subi	r28, 0x8B	; 139
    6a5c:	d6 4f       	sbci	r29, 0xF6	; 246
    6a5e:	99 83       	std	Y+1, r25	; 0x01
    6a60:	88 83       	st	Y, r24
    6a62:	c5 57       	subi	r28, 0x75	; 117
    6a64:	d9 40       	sbci	r29, 0x09	; 9
    6a66:	81 e5       	ldi	r24, 0x51	; 81
    6a68:	90 e0       	ldi	r25, 0x00	; 0
    6a6a:	c9 58       	subi	r28, 0x89	; 137
    6a6c:	d6 4f       	sbci	r29, 0xF6	; 246
    6a6e:	99 83       	std	Y+1, r25	; 0x01
    6a70:	88 83       	st	Y, r24
    6a72:	c7 57       	subi	r28, 0x77	; 119
    6a74:	d9 40       	sbci	r29, 0x09	; 9
    6a76:	80 e5       	ldi	r24, 0x50	; 80
    6a78:	90 e0       	ldi	r25, 0x00	; 0
    6a7a:	c7 58       	subi	r28, 0x87	; 135
    6a7c:	d6 4f       	sbci	r29, 0xF6	; 246
    6a7e:	99 83       	std	Y+1, r25	; 0x01
    6a80:	88 83       	st	Y, r24
    6a82:	c9 57       	subi	r28, 0x79	; 121
    6a84:	d9 40       	sbci	r29, 0x09	; 9
    6a86:	8f e4       	ldi	r24, 0x4F	; 79
    6a88:	90 e0       	ldi	r25, 0x00	; 0
    6a8a:	c5 58       	subi	r28, 0x85	; 133
    6a8c:	d6 4f       	sbci	r29, 0xF6	; 246
    6a8e:	99 83       	std	Y+1, r25	; 0x01
    6a90:	88 83       	st	Y, r24
    6a92:	cb 57       	subi	r28, 0x7B	; 123
    6a94:	d9 40       	sbci	r29, 0x09	; 9
    6a96:	8e e4       	ldi	r24, 0x4E	; 78
    6a98:	90 e0       	ldi	r25, 0x00	; 0
    6a9a:	c3 58       	subi	r28, 0x83	; 131
    6a9c:	d6 4f       	sbci	r29, 0xF6	; 246
    6a9e:	99 83       	std	Y+1, r25	; 0x01
    6aa0:	88 83       	st	Y, r24
    6aa2:	cd 57       	subi	r28, 0x7D	; 125
    6aa4:	d9 40       	sbci	r29, 0x09	; 9
    6aa6:	c1 58       	subi	r28, 0x81	; 129
    6aa8:	d6 4f       	sbci	r29, 0xF6	; 246
    6aaa:	99 82       	std	Y+1, r9	; 0x01
    6aac:	88 82       	st	Y, r8
    6aae:	cf 57       	subi	r28, 0x7F	; 127
    6ab0:	d9 40       	sbci	r29, 0x09	; 9
    6ab2:	8c e4       	ldi	r24, 0x4C	; 76
    6ab4:	90 e0       	ldi	r25, 0x00	; 0
    6ab6:	cf 57       	subi	r28, 0x7F	; 127
    6ab8:	d6 4f       	sbci	r29, 0xF6	; 246
    6aba:	99 83       	std	Y+1, r25	; 0x01
    6abc:	88 83       	st	Y, r24
    6abe:	c1 58       	subi	r28, 0x81	; 129
    6ac0:	d9 40       	sbci	r29, 0x09	; 9
    6ac2:	8b e4       	ldi	r24, 0x4B	; 75
    6ac4:	90 e0       	ldi	r25, 0x00	; 0
    6ac6:	cd 57       	subi	r28, 0x7D	; 125
    6ac8:	d6 4f       	sbci	r29, 0xF6	; 246
    6aca:	99 83       	std	Y+1, r25	; 0x01
    6acc:	88 83       	st	Y, r24
    6ace:	c3 58       	subi	r28, 0x83	; 131
    6ad0:	d9 40       	sbci	r29, 0x09	; 9
    6ad2:	8a e4       	ldi	r24, 0x4A	; 74
    6ad4:	90 e0       	ldi	r25, 0x00	; 0
    6ad6:	cb 57       	subi	r28, 0x7B	; 123
    6ad8:	d6 4f       	sbci	r29, 0xF6	; 246
    6ada:	99 83       	std	Y+1, r25	; 0x01
    6adc:	88 83       	st	Y, r24
    6ade:	c5 58       	subi	r28, 0x85	; 133
    6ae0:	d9 40       	sbci	r29, 0x09	; 9
    6ae2:	89 e4       	ldi	r24, 0x49	; 73
    6ae4:	90 e0       	ldi	r25, 0x00	; 0
    6ae6:	c9 57       	subi	r28, 0x79	; 121
    6ae8:	d6 4f       	sbci	r29, 0xF6	; 246
    6aea:	99 83       	std	Y+1, r25	; 0x01
    6aec:	88 83       	st	Y, r24
    6aee:	c7 58       	subi	r28, 0x87	; 135
    6af0:	d9 40       	sbci	r29, 0x09	; 9
    6af2:	88 e4       	ldi	r24, 0x48	; 72
    6af4:	90 e0       	ldi	r25, 0x00	; 0
    6af6:	c7 57       	subi	r28, 0x77	; 119
    6af8:	d6 4f       	sbci	r29, 0xF6	; 246
    6afa:	99 83       	std	Y+1, r25	; 0x01
    6afc:	88 83       	st	Y, r24
    6afe:	c9 58       	subi	r28, 0x89	; 137
    6b00:	d9 40       	sbci	r29, 0x09	; 9
    6b02:	87 e4       	ldi	r24, 0x47	; 71
    6b04:	90 e0       	ldi	r25, 0x00	; 0
    6b06:	c5 57       	subi	r28, 0x75	; 117
    6b08:	d6 4f       	sbci	r29, 0xF6	; 246
    6b0a:	99 83       	std	Y+1, r25	; 0x01
    6b0c:	88 83       	st	Y, r24
    6b0e:	cb 58       	subi	r28, 0x8B	; 139
    6b10:	d9 40       	sbci	r29, 0x09	; 9
    6b12:	86 e4       	ldi	r24, 0x46	; 70
    6b14:	90 e0       	ldi	r25, 0x00	; 0
    6b16:	c3 57       	subi	r28, 0x73	; 115
    6b18:	d6 4f       	sbci	r29, 0xF6	; 246
    6b1a:	99 83       	std	Y+1, r25	; 0x01
    6b1c:	88 83       	st	Y, r24
    6b1e:	cd 58       	subi	r28, 0x8D	; 141
    6b20:	d9 40       	sbci	r29, 0x09	; 9
    6b22:	c1 57       	subi	r28, 0x71	; 113
    6b24:	d6 4f       	sbci	r29, 0xF6	; 246
    6b26:	79 82       	std	Y+1, r7	; 0x01
    6b28:	68 82       	st	Y, r6
    6b2a:	cf 58       	subi	r28, 0x8F	; 143
    6b2c:	d9 40       	sbci	r29, 0x09	; 9
    6b2e:	84 e4       	ldi	r24, 0x44	; 68
    6b30:	90 e0       	ldi	r25, 0x00	; 0
    6b32:	cf 56       	subi	r28, 0x6F	; 111
    6b34:	d6 4f       	sbci	r29, 0xF6	; 246
    6b36:	99 83       	std	Y+1, r25	; 0x01
    6b38:	88 83       	st	Y, r24
    6b3a:	c1 59       	subi	r28, 0x91	; 145
    6b3c:	d9 40       	sbci	r29, 0x09	; 9
    6b3e:	83 e4       	ldi	r24, 0x43	; 67
    6b40:	90 e0       	ldi	r25, 0x00	; 0
    6b42:	cd 56       	subi	r28, 0x6D	; 109
    6b44:	d6 4f       	sbci	r29, 0xF6	; 246
    6b46:	99 83       	std	Y+1, r25	; 0x01
    6b48:	88 83       	st	Y, r24
    6b4a:	c3 59       	subi	r28, 0x93	; 147
    6b4c:	d9 40       	sbci	r29, 0x09	; 9
    6b4e:	82 e4       	ldi	r24, 0x42	; 66
    6b50:	90 e0       	ldi	r25, 0x00	; 0
    6b52:	cb 56       	subi	r28, 0x6B	; 107
    6b54:	d6 4f       	sbci	r29, 0xF6	; 246
    6b56:	99 83       	std	Y+1, r25	; 0x01
    6b58:	88 83       	st	Y, r24
    6b5a:	c5 59       	subi	r28, 0x95	; 149
    6b5c:	d9 40       	sbci	r29, 0x09	; 9
    6b5e:	81 e4       	ldi	r24, 0x41	; 65
    6b60:	90 e0       	ldi	r25, 0x00	; 0
    6b62:	c9 56       	subi	r28, 0x69	; 105
    6b64:	d6 4f       	sbci	r29, 0xF6	; 246
    6b66:	99 83       	std	Y+1, r25	; 0x01
    6b68:	88 83       	st	Y, r24
    6b6a:	c7 59       	subi	r28, 0x97	; 151
    6b6c:	d9 40       	sbci	r29, 0x09	; 9
    6b6e:	80 e4       	ldi	r24, 0x40	; 64
    6b70:	90 e0       	ldi	r25, 0x00	; 0
    6b72:	c7 56       	subi	r28, 0x67	; 103
    6b74:	d6 4f       	sbci	r29, 0xF6	; 246
    6b76:	99 83       	std	Y+1, r25	; 0x01
    6b78:	88 83       	st	Y, r24
    6b7a:	c9 59       	subi	r28, 0x99	; 153
    6b7c:	d9 40       	sbci	r29, 0x09	; 9
    6b7e:	8f e3       	ldi	r24, 0x3F	; 63
    6b80:	90 e0       	ldi	r25, 0x00	; 0
    6b82:	c5 56       	subi	r28, 0x65	; 101
    6b84:	d6 4f       	sbci	r29, 0xF6	; 246
    6b86:	99 83       	std	Y+1, r25	; 0x01
    6b88:	88 83       	st	Y, r24
    6b8a:	cb 59       	subi	r28, 0x9B	; 155
    6b8c:	d9 40       	sbci	r29, 0x09	; 9
    6b8e:	8e e3       	ldi	r24, 0x3E	; 62
    6b90:	90 e0       	ldi	r25, 0x00	; 0
    6b92:	c3 56       	subi	r28, 0x63	; 99
    6b94:	d6 4f       	sbci	r29, 0xF6	; 246
    6b96:	99 83       	std	Y+1, r25	; 0x01
    6b98:	88 83       	st	Y, r24
    6b9a:	cd 59       	subi	r28, 0x9D	; 157
    6b9c:	d9 40       	sbci	r29, 0x09	; 9
    6b9e:	8d e3       	ldi	r24, 0x3D	; 61
    6ba0:	90 e0       	ldi	r25, 0x00	; 0
    6ba2:	c1 56       	subi	r28, 0x61	; 97
    6ba4:	d6 4f       	sbci	r29, 0xF6	; 246
    6ba6:	99 83       	std	Y+1, r25	; 0x01
    6ba8:	88 83       	st	Y, r24
    6baa:	cf 59       	subi	r28, 0x9F	; 159
    6bac:	d9 40       	sbci	r29, 0x09	; 9
    6bae:	cf 55       	subi	r28, 0x5F	; 95
    6bb0:	d6 4f       	sbci	r29, 0xF6	; 246
    6bb2:	59 82       	std	Y+1, r5	; 0x01
    6bb4:	48 82       	st	Y, r4
    6bb6:	c1 5a       	subi	r28, 0xA1	; 161
    6bb8:	d9 40       	sbci	r29, 0x09	; 9
    6bba:	8b e3       	ldi	r24, 0x3B	; 59
    6bbc:	90 e0       	ldi	r25, 0x00	; 0
    6bbe:	cd 55       	subi	r28, 0x5D	; 93
    6bc0:	d6 4f       	sbci	r29, 0xF6	; 246
    6bc2:	99 83       	std	Y+1, r25	; 0x01
    6bc4:	88 83       	st	Y, r24
    6bc6:	c3 5a       	subi	r28, 0xA3	; 163
    6bc8:	d9 40       	sbci	r29, 0x09	; 9
    6bca:	8a e3       	ldi	r24, 0x3A	; 58
    6bcc:	90 e0       	ldi	r25, 0x00	; 0
    6bce:	cb 55       	subi	r28, 0x5B	; 91
    6bd0:	d6 4f       	sbci	r29, 0xF6	; 246
    6bd2:	99 83       	std	Y+1, r25	; 0x01
    6bd4:	88 83       	st	Y, r24
    6bd6:	c5 5a       	subi	r28, 0xA5	; 165
    6bd8:	d9 40       	sbci	r29, 0x09	; 9
    6bda:	89 e3       	ldi	r24, 0x39	; 57
    6bdc:	90 e0       	ldi	r25, 0x00	; 0
    6bde:	c9 55       	subi	r28, 0x59	; 89
    6be0:	d6 4f       	sbci	r29, 0xF6	; 246
    6be2:	99 83       	std	Y+1, r25	; 0x01
    6be4:	88 83       	st	Y, r24
    6be6:	c7 5a       	subi	r28, 0xA7	; 167
    6be8:	d9 40       	sbci	r29, 0x09	; 9
    6bea:	88 e3       	ldi	r24, 0x38	; 56
    6bec:	90 e0       	ldi	r25, 0x00	; 0
    6bee:	c7 55       	subi	r28, 0x57	; 87
    6bf0:	d6 4f       	sbci	r29, 0xF6	; 246
    6bf2:	99 83       	std	Y+1, r25	; 0x01
    6bf4:	88 83       	st	Y, r24
    6bf6:	c9 5a       	subi	r28, 0xA9	; 169
    6bf8:	d9 40       	sbci	r29, 0x09	; 9
    6bfa:	87 e3       	ldi	r24, 0x37	; 55
    6bfc:	90 e0       	ldi	r25, 0x00	; 0
    6bfe:	c5 55       	subi	r28, 0x55	; 85
    6c00:	d6 4f       	sbci	r29, 0xF6	; 246
    6c02:	99 83       	std	Y+1, r25	; 0x01
    6c04:	88 83       	st	Y, r24
    6c06:	cb 5a       	subi	r28, 0xAB	; 171
    6c08:	d9 40       	sbci	r29, 0x09	; 9
    6c0a:	86 e3       	ldi	r24, 0x36	; 54
    6c0c:	90 e0       	ldi	r25, 0x00	; 0
    6c0e:	c3 55       	subi	r28, 0x53	; 83
    6c10:	d6 4f       	sbci	r29, 0xF6	; 246
    6c12:	99 83       	std	Y+1, r25	; 0x01
    6c14:	88 83       	st	Y, r24
    6c16:	cd 5a       	subi	r28, 0xAD	; 173
    6c18:	d9 40       	sbci	r29, 0x09	; 9
    6c1a:	85 e3       	ldi	r24, 0x35	; 53
    6c1c:	90 e0       	ldi	r25, 0x00	; 0
    6c1e:	c1 55       	subi	r28, 0x51	; 81
    6c20:	d6 4f       	sbci	r29, 0xF6	; 246
    6c22:	99 83       	std	Y+1, r25	; 0x01
    6c24:	88 83       	st	Y, r24
    6c26:	cf 5a       	subi	r28, 0xAF	; 175
    6c28:	d9 40       	sbci	r29, 0x09	; 9
    6c2a:	84 e3       	ldi	r24, 0x34	; 52
    6c2c:	90 e0       	ldi	r25, 0x00	; 0
    6c2e:	cf 54       	subi	r28, 0x4F	; 79
    6c30:	d6 4f       	sbci	r29, 0xF6	; 246
    6c32:	99 83       	std	Y+1, r25	; 0x01
    6c34:	88 83       	st	Y, r24
    6c36:	c1 5b       	subi	r28, 0xB1	; 177
    6c38:	d9 40       	sbci	r29, 0x09	; 9
    6c3a:	83 e3       	ldi	r24, 0x33	; 51
    6c3c:	90 e0       	ldi	r25, 0x00	; 0
    6c3e:	cd 54       	subi	r28, 0x4D	; 77
    6c40:	d6 4f       	sbci	r29, 0xF6	; 246
    6c42:	99 83       	std	Y+1, r25	; 0x01
    6c44:	88 83       	st	Y, r24
    6c46:	c3 5b       	subi	r28, 0xB3	; 179
    6c48:	d9 40       	sbci	r29, 0x09	; 9
    6c4a:	cb 54       	subi	r28, 0x4B	; 75
    6c4c:	d6 4f       	sbci	r29, 0xF6	; 246
    6c4e:	39 82       	std	Y+1, r3	; 0x01
    6c50:	28 82       	st	Y, r2
    6c52:	c5 5b       	subi	r28, 0xB5	; 181
    6c54:	d9 40       	sbci	r29, 0x09	; 9
    6c56:	81 e3       	ldi	r24, 0x31	; 49
    6c58:	90 e0       	ldi	r25, 0x00	; 0
    6c5a:	c9 54       	subi	r28, 0x49	; 73
    6c5c:	d6 4f       	sbci	r29, 0xF6	; 246
    6c5e:	99 83       	std	Y+1, r25	; 0x01
    6c60:	88 83       	st	Y, r24
    6c62:	c7 5b       	subi	r28, 0xB7	; 183
    6c64:	d9 40       	sbci	r29, 0x09	; 9
    6c66:	80 e3       	ldi	r24, 0x30	; 48
    6c68:	90 e0       	ldi	r25, 0x00	; 0
    6c6a:	c7 54       	subi	r28, 0x47	; 71
    6c6c:	d6 4f       	sbci	r29, 0xF6	; 246
    6c6e:	99 83       	std	Y+1, r25	; 0x01
    6c70:	88 83       	st	Y, r24
    6c72:	c9 5b       	subi	r28, 0xB9	; 185
    6c74:	d9 40       	sbci	r29, 0x09	; 9
    6c76:	8f e2       	ldi	r24, 0x2F	; 47
    6c78:	90 e0       	ldi	r25, 0x00	; 0
    6c7a:	c5 54       	subi	r28, 0x45	; 69
    6c7c:	d6 4f       	sbci	r29, 0xF6	; 246
    6c7e:	99 83       	std	Y+1, r25	; 0x01
    6c80:	88 83       	st	Y, r24
    6c82:	cb 5b       	subi	r28, 0xBB	; 187
    6c84:	d9 40       	sbci	r29, 0x09	; 9
    6c86:	8e e2       	ldi	r24, 0x2E	; 46
    6c88:	90 e0       	ldi	r25, 0x00	; 0
    6c8a:	c3 54       	subi	r28, 0x43	; 67
    6c8c:	d6 4f       	sbci	r29, 0xF6	; 246
    6c8e:	99 83       	std	Y+1, r25	; 0x01
    6c90:	88 83       	st	Y, r24
    6c92:	cd 5b       	subi	r28, 0xBD	; 189
    6c94:	d9 40       	sbci	r29, 0x09	; 9
    6c96:	8d e2       	ldi	r24, 0x2D	; 45
    6c98:	90 e0       	ldi	r25, 0x00	; 0
    6c9a:	c1 54       	subi	r28, 0x41	; 65
    6c9c:	d6 4f       	sbci	r29, 0xF6	; 246
    6c9e:	99 83       	std	Y+1, r25	; 0x01
    6ca0:	88 83       	st	Y, r24
    6ca2:	cf 5b       	subi	r28, 0xBF	; 191
    6ca4:	d9 40       	sbci	r29, 0x09	; 9
    6ca6:	8c e2       	ldi	r24, 0x2C	; 44
    6ca8:	90 e0       	ldi	r25, 0x00	; 0
    6caa:	cf 53       	subi	r28, 0x3F	; 63
    6cac:	d6 4f       	sbci	r29, 0xF6	; 246
    6cae:	99 83       	std	Y+1, r25	; 0x01
    6cb0:	88 83       	st	Y, r24
    6cb2:	c1 5c       	subi	r28, 0xC1	; 193
    6cb4:	d9 40       	sbci	r29, 0x09	; 9
    6cb6:	8b e2       	ldi	r24, 0x2B	; 43
    6cb8:	90 e0       	ldi	r25, 0x00	; 0
    6cba:	cd 53       	subi	r28, 0x3D	; 61
    6cbc:	d6 4f       	sbci	r29, 0xF6	; 246
    6cbe:	99 83       	std	Y+1, r25	; 0x01
    6cc0:	88 83       	st	Y, r24
    6cc2:	c3 5c       	subi	r28, 0xC3	; 195
    6cc4:	d9 40       	sbci	r29, 0x09	; 9
    6cc6:	8a e2       	ldi	r24, 0x2A	; 42
    6cc8:	90 e0       	ldi	r25, 0x00	; 0
    6cca:	cb 53       	subi	r28, 0x3B	; 59
    6ccc:	d6 4f       	sbci	r29, 0xF6	; 246
    6cce:	99 83       	std	Y+1, r25	; 0x01
    6cd0:	88 83       	st	Y, r24
    6cd2:	c5 5c       	subi	r28, 0xC5	; 197
    6cd4:	d9 40       	sbci	r29, 0x09	; 9
    6cd6:	89 e2       	ldi	r24, 0x29	; 41
    6cd8:	90 e0       	ldi	r25, 0x00	; 0
    6cda:	c9 53       	subi	r28, 0x39	; 57
    6cdc:	d6 4f       	sbci	r29, 0xF6	; 246
    6cde:	99 83       	std	Y+1, r25	; 0x01
    6ce0:	88 83       	st	Y, r24
    6ce2:	c7 5c       	subi	r28, 0xC7	; 199
    6ce4:	d9 40       	sbci	r29, 0x09	; 9
    6ce6:	88 e2       	ldi	r24, 0x28	; 40
    6ce8:	90 e0       	ldi	r25, 0x00	; 0
    6cea:	c7 53       	subi	r28, 0x37	; 55
    6cec:	d6 4f       	sbci	r29, 0xF6	; 246
    6cee:	99 83       	std	Y+1, r25	; 0x01
    6cf0:	88 83       	st	Y, r24
    6cf2:	c9 5c       	subi	r28, 0xC9	; 201
    6cf4:	d9 40       	sbci	r29, 0x09	; 9
    6cf6:	87 e2       	ldi	r24, 0x27	; 39
    6cf8:	90 e0       	ldi	r25, 0x00	; 0
    6cfa:	c5 53       	subi	r28, 0x35	; 53
    6cfc:	d6 4f       	sbci	r29, 0xF6	; 246
    6cfe:	99 83       	std	Y+1, r25	; 0x01
    6d00:	88 83       	st	Y, r24
    6d02:	cb 5c       	subi	r28, 0xCB	; 203
    6d04:	d9 40       	sbci	r29, 0x09	; 9
    6d06:	86 e2       	ldi	r24, 0x26	; 38
    6d08:	90 e0       	ldi	r25, 0x00	; 0
    6d0a:	c3 53       	subi	r28, 0x33	; 51
    6d0c:	d6 4f       	sbci	r29, 0xF6	; 246
    6d0e:	99 83       	std	Y+1, r25	; 0x01
    6d10:	88 83       	st	Y, r24
    6d12:	cd 5c       	subi	r28, 0xCD	; 205
    6d14:	d9 40       	sbci	r29, 0x09	; 9
    6d16:	85 e2       	ldi	r24, 0x25	; 37
    6d18:	90 e0       	ldi	r25, 0x00	; 0
    6d1a:	c1 53       	subi	r28, 0x31	; 49
    6d1c:	d6 4f       	sbci	r29, 0xF6	; 246
    6d1e:	99 83       	std	Y+1, r25	; 0x01
    6d20:	88 83       	st	Y, r24
    6d22:	cf 5c       	subi	r28, 0xCF	; 207
    6d24:	d9 40       	sbci	r29, 0x09	; 9
    6d26:	04 e2       	ldi	r16, 0x24	; 36
    6d28:	10 e0       	ldi	r17, 0x00	; 0
    6d2a:	cf 52       	subi	r28, 0x2F	; 47
    6d2c:	d6 4f       	sbci	r29, 0xF6	; 246
    6d2e:	19 83       	std	Y+1, r17	; 0x01
    6d30:	08 83       	st	Y, r16
    6d32:	c1 5d       	subi	r28, 0xD1	; 209
    6d34:	d9 40       	sbci	r29, 0x09	; 9
    6d36:	83 e2       	ldi	r24, 0x23	; 35
    6d38:	90 e0       	ldi	r25, 0x00	; 0
    6d3a:	cd 52       	subi	r28, 0x2D	; 45
    6d3c:	d6 4f       	sbci	r29, 0xF6	; 246
    6d3e:	99 83       	std	Y+1, r25	; 0x01
    6d40:	88 83       	st	Y, r24
    6d42:	c3 5d       	subi	r28, 0xD3	; 211
    6d44:	d9 40       	sbci	r29, 0x09	; 9
    6d46:	82 e2       	ldi	r24, 0x22	; 34
    6d48:	90 e0       	ldi	r25, 0x00	; 0
    6d4a:	cb 52       	subi	r28, 0x2B	; 43
    6d4c:	d6 4f       	sbci	r29, 0xF6	; 246
    6d4e:	99 83       	std	Y+1, r25	; 0x01
    6d50:	88 83       	st	Y, r24
    6d52:	c5 5d       	subi	r28, 0xD5	; 213
    6d54:	d9 40       	sbci	r29, 0x09	; 9
    6d56:	81 e2       	ldi	r24, 0x21	; 33
    6d58:	90 e0       	ldi	r25, 0x00	; 0
    6d5a:	c9 52       	subi	r28, 0x29	; 41
    6d5c:	d6 4f       	sbci	r29, 0xF6	; 246
    6d5e:	99 83       	std	Y+1, r25	; 0x01
    6d60:	88 83       	st	Y, r24
    6d62:	c7 5d       	subi	r28, 0xD7	; 215
    6d64:	d9 40       	sbci	r29, 0x09	; 9
    6d66:	80 e2       	ldi	r24, 0x20	; 32
    6d68:	90 e0       	ldi	r25, 0x00	; 0
    6d6a:	c7 52       	subi	r28, 0x27	; 39
    6d6c:	d6 4f       	sbci	r29, 0xF6	; 246
    6d6e:	99 83       	std	Y+1, r25	; 0x01
    6d70:	88 83       	st	Y, r24
    6d72:	c9 5d       	subi	r28, 0xD9	; 217
    6d74:	d9 40       	sbci	r29, 0x09	; 9
    6d76:	8f e1       	ldi	r24, 0x1F	; 31
    6d78:	90 e0       	ldi	r25, 0x00	; 0
    6d7a:	c5 52       	subi	r28, 0x25	; 37
    6d7c:	d6 4f       	sbci	r29, 0xF6	; 246
    6d7e:	99 83       	std	Y+1, r25	; 0x01
    6d80:	88 83       	st	Y, r24
    6d82:	cb 5d       	subi	r28, 0xDB	; 219
    6d84:	d9 40       	sbci	r29, 0x09	; 9
    6d86:	8e e1       	ldi	r24, 0x1E	; 30
    6d88:	90 e0       	ldi	r25, 0x00	; 0
    6d8a:	c3 52       	subi	r28, 0x23	; 35
    6d8c:	d6 4f       	sbci	r29, 0xF6	; 246
    6d8e:	99 83       	std	Y+1, r25	; 0x01
    6d90:	88 83       	st	Y, r24
    6d92:	cd 5d       	subi	r28, 0xDD	; 221
    6d94:	d9 40       	sbci	r29, 0x09	; 9
    6d96:	8d e1       	ldi	r24, 0x1D	; 29
    6d98:	90 e0       	ldi	r25, 0x00	; 0
    6d9a:	c1 52       	subi	r28, 0x21	; 33
    6d9c:	d6 4f       	sbci	r29, 0xF6	; 246
    6d9e:	99 83       	std	Y+1, r25	; 0x01
    6da0:	88 83       	st	Y, r24
    6da2:	cf 5d       	subi	r28, 0xDF	; 223
    6da4:	d9 40       	sbci	r29, 0x09	; 9
    6da6:	8c e1       	ldi	r24, 0x1C	; 28
    6da8:	90 e0       	ldi	r25, 0x00	; 0
    6daa:	cf 51       	subi	r28, 0x1F	; 31
    6dac:	d6 4f       	sbci	r29, 0xF6	; 246
    6dae:	99 83       	std	Y+1, r25	; 0x01
    6db0:	88 83       	st	Y, r24
    6db2:	c1 5e       	subi	r28, 0xE1	; 225
    6db4:	d9 40       	sbci	r29, 0x09	; 9
    6db6:	8b e1       	ldi	r24, 0x1B	; 27
    6db8:	90 e0       	ldi	r25, 0x00	; 0
    6dba:	cd 51       	subi	r28, 0x1D	; 29
    6dbc:	d6 4f       	sbci	r29, 0xF6	; 246
    6dbe:	99 83       	std	Y+1, r25	; 0x01
    6dc0:	88 83       	st	Y, r24
    6dc2:	c3 5e       	subi	r28, 0xE3	; 227
    6dc4:	d9 40       	sbci	r29, 0x09	; 9
    6dc6:	8a e1       	ldi	r24, 0x1A	; 26
    6dc8:	90 e0       	ldi	r25, 0x00	; 0
    6dca:	cb 51       	subi	r28, 0x1B	; 27
    6dcc:	d6 4f       	sbci	r29, 0xF6	; 246
    6dce:	99 83       	std	Y+1, r25	; 0x01
    6dd0:	88 83       	st	Y, r24
    6dd2:	c5 5e       	subi	r28, 0xE5	; 229
    6dd4:	d9 40       	sbci	r29, 0x09	; 9
    6dd6:	89 e1       	ldi	r24, 0x19	; 25
    6dd8:	90 e0       	ldi	r25, 0x00	; 0
    6dda:	c9 51       	subi	r28, 0x19	; 25
    6ddc:	d6 4f       	sbci	r29, 0xF6	; 246
    6dde:	99 83       	std	Y+1, r25	; 0x01
    6de0:	88 83       	st	Y, r24
    6de2:	c7 5e       	subi	r28, 0xE7	; 231
    6de4:	d9 40       	sbci	r29, 0x09	; 9
    6de6:	88 e1       	ldi	r24, 0x18	; 24
    6de8:	90 e0       	ldi	r25, 0x00	; 0
    6dea:	c7 51       	subi	r28, 0x17	; 23
    6dec:	d6 4f       	sbci	r29, 0xF6	; 246
    6dee:	99 83       	std	Y+1, r25	; 0x01
    6df0:	88 83       	st	Y, r24
    6df2:	c9 5e       	subi	r28, 0xE9	; 233
    6df4:	d9 40       	sbci	r29, 0x09	; 9
    6df6:	87 e1       	ldi	r24, 0x17	; 23
    6df8:	90 e0       	ldi	r25, 0x00	; 0
    6dfa:	c5 51       	subi	r28, 0x15	; 21
    6dfc:	d6 4f       	sbci	r29, 0xF6	; 246
    6dfe:	99 83       	std	Y+1, r25	; 0x01
    6e00:	88 83       	st	Y, r24
    6e02:	cb 5e       	subi	r28, 0xEB	; 235
    6e04:	d9 40       	sbci	r29, 0x09	; 9
    6e06:	86 e1       	ldi	r24, 0x16	; 22
    6e08:	90 e0       	ldi	r25, 0x00	; 0
    6e0a:	c3 51       	subi	r28, 0x13	; 19
    6e0c:	d6 4f       	sbci	r29, 0xF6	; 246
    6e0e:	99 83       	std	Y+1, r25	; 0x01
    6e10:	88 83       	st	Y, r24
    6e12:	cd 5e       	subi	r28, 0xED	; 237
    6e14:	d9 40       	sbci	r29, 0x09	; 9
    6e16:	85 e1       	ldi	r24, 0x15	; 21
    6e18:	90 e0       	ldi	r25, 0x00	; 0
    6e1a:	c1 51       	subi	r28, 0x11	; 17
    6e1c:	d6 4f       	sbci	r29, 0xF6	; 246
    6e1e:	99 83       	std	Y+1, r25	; 0x01
    6e20:	88 83       	st	Y, r24
    6e22:	cf 5e       	subi	r28, 0xEF	; 239
    6e24:	d9 40       	sbci	r29, 0x09	; 9
    6e26:	84 e1       	ldi	r24, 0x14	; 20
    6e28:	90 e0       	ldi	r25, 0x00	; 0
    6e2a:	cf 50       	subi	r28, 0x0F	; 15
    6e2c:	d6 4f       	sbci	r29, 0xF6	; 246
    6e2e:	99 83       	std	Y+1, r25	; 0x01
    6e30:	88 83       	st	Y, r24
    6e32:	c1 5f       	subi	r28, 0xF1	; 241
    6e34:	d9 40       	sbci	r29, 0x09	; 9
    6e36:	83 e1       	ldi	r24, 0x13	; 19
    6e38:	90 e0       	ldi	r25, 0x00	; 0
    6e3a:	cd 50       	subi	r28, 0x0D	; 13
    6e3c:	d6 4f       	sbci	r29, 0xF6	; 246
    6e3e:	99 83       	std	Y+1, r25	; 0x01
    6e40:	88 83       	st	Y, r24
    6e42:	c3 5f       	subi	r28, 0xF3	; 243
    6e44:	d9 40       	sbci	r29, 0x09	; 9
    6e46:	82 e1       	ldi	r24, 0x12	; 18
    6e48:	90 e0       	ldi	r25, 0x00	; 0
    6e4a:	cb 50       	subi	r28, 0x0B	; 11
    6e4c:	d6 4f       	sbci	r29, 0xF6	; 246
    6e4e:	99 83       	std	Y+1, r25	; 0x01
    6e50:	88 83       	st	Y, r24
    6e52:	c5 5f       	subi	r28, 0xF5	; 245
    6e54:	d9 40       	sbci	r29, 0x09	; 9
    6e56:	81 e1       	ldi	r24, 0x11	; 17
    6e58:	90 e0       	ldi	r25, 0x00	; 0
    6e5a:	c9 50       	subi	r28, 0x09	; 9
    6e5c:	d6 4f       	sbci	r29, 0xF6	; 246
    6e5e:	99 83       	std	Y+1, r25	; 0x01
    6e60:	88 83       	st	Y, r24
    6e62:	c7 5f       	subi	r28, 0xF7	; 247
    6e64:	d9 40       	sbci	r29, 0x09	; 9
    6e66:	80 e1       	ldi	r24, 0x10	; 16
    6e68:	90 e0       	ldi	r25, 0x00	; 0
    6e6a:	c7 50       	subi	r28, 0x07	; 7
    6e6c:	d6 4f       	sbci	r29, 0xF6	; 246
    6e6e:	99 83       	std	Y+1, r25	; 0x01
    6e70:	88 83       	st	Y, r24
    6e72:	c9 5f       	subi	r28, 0xF9	; 249
    6e74:	d9 40       	sbci	r29, 0x09	; 9
    6e76:	8f e0       	ldi	r24, 0x0F	; 15
    6e78:	90 e0       	ldi	r25, 0x00	; 0
    6e7a:	c5 50       	subi	r28, 0x05	; 5
    6e7c:	d6 4f       	sbci	r29, 0xF6	; 246
    6e7e:	99 83       	std	Y+1, r25	; 0x01
    6e80:	88 83       	st	Y, r24
    6e82:	cb 5f       	subi	r28, 0xFB	; 251
    6e84:	d9 40       	sbci	r29, 0x09	; 9
    6e86:	8e e0       	ldi	r24, 0x0E	; 14
    6e88:	90 e0       	ldi	r25, 0x00	; 0
    6e8a:	c3 50       	subi	r28, 0x03	; 3
    6e8c:	d6 4f       	sbci	r29, 0xF6	; 246
    6e8e:	99 83       	std	Y+1, r25	; 0x01
    6e90:	88 83       	st	Y, r24
    6e92:	cd 5f       	subi	r28, 0xFD	; 253
    6e94:	d9 40       	sbci	r29, 0x09	; 9
    6e96:	8d e0       	ldi	r24, 0x0D	; 13
    6e98:	90 e0       	ldi	r25, 0x00	; 0
    6e9a:	c1 50       	subi	r28, 0x01	; 1
    6e9c:	d6 4f       	sbci	r29, 0xF6	; 246
    6e9e:	99 83       	std	Y+1, r25	; 0x01
    6ea0:	88 83       	st	Y, r24
    6ea2:	cf 5f       	subi	r28, 0xFF	; 255
    6ea4:	d9 40       	sbci	r29, 0x09	; 9
    6ea6:	8c e0       	ldi	r24, 0x0C	; 12
    6ea8:	90 e0       	ldi	r25, 0x00	; 0
    6eaa:	cf 5f       	subi	r28, 0xFF	; 255
    6eac:	d5 4f       	sbci	r29, 0xF5	; 245
    6eae:	99 83       	std	Y+1, r25	; 0x01
    6eb0:	88 83       	st	Y, r24
    6eb2:	c1 50       	subi	r28, 0x01	; 1
    6eb4:	da 40       	sbci	r29, 0x0A	; 10
    6eb6:	8b e0       	ldi	r24, 0x0B	; 11
    6eb8:	90 e0       	ldi	r25, 0x00	; 0
    6eba:	cd 5f       	subi	r28, 0xFD	; 253
    6ebc:	d5 4f       	sbci	r29, 0xF5	; 245
    6ebe:	99 83       	std	Y+1, r25	; 0x01
    6ec0:	88 83       	st	Y, r24
    6ec2:	c3 50       	subi	r28, 0x03	; 3
    6ec4:	da 40       	sbci	r29, 0x0A	; 10
    6ec6:	8a e0       	ldi	r24, 0x0A	; 10
    6ec8:	90 e0       	ldi	r25, 0x00	; 0
    6eca:	cb 5f       	subi	r28, 0xFB	; 251
    6ecc:	d5 4f       	sbci	r29, 0xF5	; 245
    6ece:	99 83       	std	Y+1, r25	; 0x01
    6ed0:	88 83       	st	Y, r24
    6ed2:	c5 50       	subi	r28, 0x05	; 5
    6ed4:	da 40       	sbci	r29, 0x0A	; 10
    6ed6:	89 e0       	ldi	r24, 0x09	; 9
    6ed8:	90 e0       	ldi	r25, 0x00	; 0
    6eda:	c9 5f       	subi	r28, 0xF9	; 249
    6edc:	d5 4f       	sbci	r29, 0xF5	; 245
    6ede:	99 83       	std	Y+1, r25	; 0x01
    6ee0:	88 83       	st	Y, r24
    6ee2:	c7 50       	subi	r28, 0x07	; 7
    6ee4:	da 40       	sbci	r29, 0x0A	; 10
    6ee6:	88 e0       	ldi	r24, 0x08	; 8
    6ee8:	90 e0       	ldi	r25, 0x00	; 0
    6eea:	c7 5f       	subi	r28, 0xF7	; 247
    6eec:	d5 4f       	sbci	r29, 0xF5	; 245
    6eee:	99 83       	std	Y+1, r25	; 0x01
    6ef0:	88 83       	st	Y, r24
    6ef2:	c9 50       	subi	r28, 0x09	; 9
    6ef4:	da 40       	sbci	r29, 0x0A	; 10
    6ef6:	87 e0       	ldi	r24, 0x07	; 7
    6ef8:	90 e0       	ldi	r25, 0x00	; 0
    6efa:	c5 5f       	subi	r28, 0xF5	; 245
    6efc:	d5 4f       	sbci	r29, 0xF5	; 245
    6efe:	99 83       	std	Y+1, r25	; 0x01
    6f00:	88 83       	st	Y, r24
    6f02:	cb 50       	subi	r28, 0x0B	; 11
    6f04:	da 40       	sbci	r29, 0x0A	; 10
    6f06:	86 e0       	ldi	r24, 0x06	; 6
    6f08:	90 e0       	ldi	r25, 0x00	; 0
    6f0a:	c3 5f       	subi	r28, 0xF3	; 243
    6f0c:	d5 4f       	sbci	r29, 0xF5	; 245
    6f0e:	99 83       	std	Y+1, r25	; 0x01
    6f10:	88 83       	st	Y, r24
    6f12:	cd 50       	subi	r28, 0x0D	; 13
    6f14:	da 40       	sbci	r29, 0x0A	; 10
    6f16:	85 e0       	ldi	r24, 0x05	; 5
    6f18:	90 e0       	ldi	r25, 0x00	; 0
    6f1a:	c1 5f       	subi	r28, 0xF1	; 241
    6f1c:	d5 4f       	sbci	r29, 0xF5	; 245
    6f1e:	99 83       	std	Y+1, r25	; 0x01
    6f20:	88 83       	st	Y, r24
    6f22:	cf 50       	subi	r28, 0x0F	; 15
    6f24:	da 40       	sbci	r29, 0x0A	; 10
    6f26:	84 e0       	ldi	r24, 0x04	; 4
    6f28:	90 e0       	ldi	r25, 0x00	; 0
    6f2a:	cf 5e       	subi	r28, 0xEF	; 239
    6f2c:	d5 4f       	sbci	r29, 0xF5	; 245
    6f2e:	99 83       	std	Y+1, r25	; 0x01
    6f30:	88 83       	st	Y, r24
    6f32:	c1 51       	subi	r28, 0x11	; 17
    6f34:	da 40       	sbci	r29, 0x0A	; 10
    6f36:	83 e0       	ldi	r24, 0x03	; 3
    6f38:	90 e0       	ldi	r25, 0x00	; 0
    6f3a:	cd 5e       	subi	r28, 0xED	; 237
    6f3c:	d5 4f       	sbci	r29, 0xF5	; 245
    6f3e:	99 83       	std	Y+1, r25	; 0x01
    6f40:	88 83       	st	Y, r24
    6f42:	c3 51       	subi	r28, 0x13	; 19
    6f44:	da 40       	sbci	r29, 0x0A	; 10
    6f46:	82 e0       	ldi	r24, 0x02	; 2
    6f48:	90 e0       	ldi	r25, 0x00	; 0
    6f4a:	cb 5e       	subi	r28, 0xEB	; 235
    6f4c:	d5 4f       	sbci	r29, 0xF5	; 245
    6f4e:	99 83       	std	Y+1, r25	; 0x01
    6f50:	88 83       	st	Y, r24
    6f52:	c5 51       	subi	r28, 0x15	; 21
    6f54:	da 40       	sbci	r29, 0x0A	; 10
    6f56:	21 e0       	ldi	r18, 0x01	; 1
    6f58:	30 e0       	ldi	r19, 0x00	; 0
    6f5a:	c9 5e       	subi	r28, 0xE9	; 233
    6f5c:	d5 4f       	sbci	r29, 0xF5	; 245
    6f5e:	39 83       	std	Y+1, r19	; 0x01
    6f60:	28 83       	st	Y, r18
    6f62:	c7 51       	subi	r28, 0x17	; 23
    6f64:	da 40       	sbci	r29, 0x0A	; 10
			{1,4,7,10,13,16,19,22,25,28,31,34,37,40,43,46,49,52,55,58,61,64,67,70,73,76,79,82,85,94,97,100,103,106,109,112,115,118,121,124,127,130,133,136,139,142,145,148,151,154,157,160,163,166,169,172,175,178,181,184,187,190,193,196,199,202,205,208,211,214,217,220,223,226,229,232,235,238,241,244,247,250,253,256,259,262,265,268,271,274,277,280,283,286,289,292,295,298,301,304,307,310,313,316,319,322,325,328,331,334,337,340,343,346,349,352,355,358,361,364,367,370,373,376,379,382,385,388}}, // ppm NH3
		{{2889,1966,1644,1462,1338,1248,1177,1119,1071,1030,995,964,936,911,888,868,849,832,816,801,787,774,762,750,739,729,719,710,701,693,685,677,670,663,656,649,643,637,631,625,620,615,610,605,600,595,591,586,582,578,574,570,566,562,559,555,552,548,545,542,539,536,533,530,527,524,521,518,516,513,511,508,506,503,501,498,496,494,492,490,487,485,483,481,479,477,475,473,471,470,468,466,464,462,461,459,457,456,454,453,451,449,448,446,445,443,442,440,439,438,436,435,433,432,431,429,428,427,426,424,423,422,421,420,418,417,416,415}, // ratios CH4
			{1,3,5,7,9,11,13,15,17,19,21,23,25,27,29,31,33,35,37,39,41,43,45,47,49,51,53,55,57,59,61,63,65,67,69,71,73,75,77,79,81,83,85,87,89,91,93,95,97,99,101,103,105,107,109,111,113,115,117,119,121,123,125,127,129,131,133,135,137,139,141,143,145,147,149,151,153,155,157,159,161,163,165,167,169,171,173,175,177,179,181,183,185,187,189,191,193,195,197,199,201,203,205,207,209,211,213,215,217,219,221,223,225,227,229,231,233,235,237,239,241,243,245,247,249,251,253,255}}, // ppm CH4
		{{364,362,361,360,358,357,356,354,353,351,350,348,347,346,344,343,341,340,338,337,335,334,332,331,329,328,326,325,323,322,320,319,317,315,314,312,311,309,307,306,304,303,301,299,297,296,294,292,291,289,287,285,284,282,280,278,276,275,273,271,269,267,265,263,261,259,257,255,253,251,249,247,245,243,241,239,237,234,232,230,228,225,223,221,218,216,214,211,209,206,204,201,198,196,193,190,188,185,182,179,176,173,170,167,163,160,157,153,150,146,142,139,135,131,126,122,117,113,108,102,97,91,84,77,69,60,50,36}, // ratios O3
			{128,127,126,125,124,123,122,121,120,119,118,117,116,115,114,113,112,111,110,109,108,107,106,105,104,103,102,101,100,99,98,97,96,95,94,93,92,91,90,89,88,87,86,85,84,83,82,81,80,79,78,77,76,75,74,73,72,71,70,69,68,67,66,65,64,63,62,61,60,59,58,57,56,55,54,53,52,51,50,49,48,47,46,45,44,43,42,41,40,39,38,37,36,35,34,33,32,31,30,29,28,27,26,25,24,23,22,21,20,19,18,17,16,15,14,13,12,11,10,9,8,7,6,5,4,3,2,1}}}; // ppm O3
	baseIndexToTable = 0;
    6f66:	10 92 3e 04 	sts	0x043E, r1	; 0x80043e <baseIndexToTable+0x1>
    6f6a:	10 92 3d 04 	sts	0x043D, r1	; 0x80043d <baseIndexToTable>
	interpolationNum = 0;
    6f6e:	10 92 1a 04 	sts	0x041A, r1	; 0x80041a <interpolationNum+0x1>
    6f72:	10 92 19 04 	sts	0x0419, r1	; 0x800419 <interpolationNum>
	numTimes256 = 0;
    6f76:	10 92 38 04 	sts	0x0438, r1	; 0x800438 <numTimes256+0x1>
    6f7a:	10 92 37 04 	sts	0x0437, r1	; 0x800437 <numTimes256>
	valueOfIndex = 0;
    6f7e:	10 92 c2 04 	sts	0x04C2, r1	; 0x8004c2 <valueOfIndex+0x1>
    6f82:	10 92 c1 04 	sts	0x04C1, r1	; 0x8004c1 <valueOfIndex>
	
	//Per sensor - make look-up table w/ values corresponding to out put. 
	//Get approx ppm
	//write equation
	//First sensor is CO
	numTimes256 = (raw_gas_vector[0]<<VALS_TO_MULTIPLY[valueOfIndex])/(R0_VALS_GAS_SENSORS[sensor_id]); //temporary routine while there is only 1 sensor, will be put into a loop later
    6f86:	e0 91 c1 04 	lds	r30, 0x04C1	; 0x8004c1 <valueOfIndex>
    6f8a:	f0 91 c2 04 	lds	r31, 0x04C2	; 0x8004c2 <valueOfIndex+0x1>
    6f8e:	c7 5e       	subi	r28, 0xE7	; 231
    6f90:	d3 4f       	sbci	r29, 0xF3	; 243
    6f92:	18 81       	ld	r17, Y
    6f94:	c9 51       	subi	r28, 0x19	; 25
    6f96:	dc 40       	sbci	r29, 0x0C	; 12
    6f98:	c1 2e       	mov	r12, r17
    6f9a:	d1 2c       	mov	r13, r1
    6f9c:	ee 0f       	add	r30, r30
    6f9e:	ff 1f       	adc	r31, r31
    6fa0:	41 e0       	ldi	r20, 0x01	; 1
    6fa2:	50 e0       	ldi	r21, 0x00	; 0
    6fa4:	4c 0f       	add	r20, r28
    6fa6:	5d 1f       	adc	r21, r29
    6fa8:	e4 0f       	add	r30, r20
    6faa:	f5 1f       	adc	r31, r21
    6fac:	80 91 48 04 	lds	r24, 0x0448	; 0x800448 <raw_gas_vector>
    6fb0:	90 91 49 04 	lds	r25, 0x0449	; 0x800449 <raw_gas_vector+0x1>
    6fb4:	00 80       	ld	r0, Z
    6fb6:	02 c0       	rjmp	.+4      	; 0x6fbc <__stack+0x2ebd>
    6fb8:	88 0f       	add	r24, r24
    6fba:	99 1f       	adc	r25, r25
    6fbc:	0a 94       	dec	r0
    6fbe:	e2 f7       	brpl	.-8      	; 0x6fb8 <__stack+0x2eb9>
    6fc0:	86 01       	movw	r16, r12
    6fc2:	00 0f       	add	r16, r16
    6fc4:	11 1f       	adc	r17, r17
    6fc6:	fa 01       	movw	r30, r20
    6fc8:	e0 0f       	add	r30, r16
    6fca:	f1 1f       	adc	r31, r17
    6fcc:	64 85       	ldd	r22, Z+12	; 0x0c
    6fce:	75 85       	ldd	r23, Z+13	; 0x0d
    6fd0:	b8 d5       	rcall	.+2928   	; 0x7b42 <__udivmodhi4>
    6fd2:	70 93 38 04 	sts	0x0438, r23	; 0x800438 <numTimes256+0x1>
    6fd6:	60 93 37 04 	sts	0x0437, r22	; 0x800437 <numTimes256>
	interpolationNum = 0x03 || numTimes256;
    6fda:	30 93 1a 04 	sts	0x041A, r19	; 0x80041a <interpolationNum+0x1>
    6fde:	20 93 19 04 	sts	0x0419, r18	; 0x800419 <interpolationNum>
	baseIndexToTable = numTimes256 >> 2;
    6fe2:	80 91 37 04 	lds	r24, 0x0437	; 0x800437 <numTimes256>
    6fe6:	90 91 38 04 	lds	r25, 0x0438	; 0x800438 <numTimes256+0x1>
    6fea:	95 95       	asr	r25
    6fec:	87 95       	ror	r24
    6fee:	95 95       	asr	r25
    6ff0:	87 95       	ror	r24
    6ff2:	90 93 3e 04 	sts	0x043E, r25	; 0x80043e <baseIndexToTable+0x1>
    6ff6:	80 93 3d 04 	sts	0x043D, r24	; 0x80043d <baseIndexToTable>
	binary_search(R0_RATIOS_CO[sensor_id][0], 0, 63, baseIndexToTable);
    6ffa:	20 91 3d 04 	lds	r18, 0x043D	; 0x80043d <baseIndexToTable>
    6ffe:	30 91 3e 04 	lds	r19, 0x043E	; 0x80043e <baseIndexToTable+0x1>
    7002:	c6 01       	movw	r24, r12
    7004:	98 2f       	mov	r25, r24
    7006:	88 27       	eor	r24, r24
    7008:	99 0f       	add	r25, r25
    700a:	4f e3       	ldi	r20, 0x3F	; 63
    700c:	50 e0       	ldi	r21, 0x00	; 0
    700e:	60 e0       	ldi	r22, 0x00	; 0
    7010:	70 e0       	ldi	r23, 0x00	; 0
    7012:	a9 e1       	ldi	r26, 0x19	; 25
    7014:	b0 e0       	ldi	r27, 0x00	; 0
    7016:	ac 0f       	add	r26, r28
    7018:	bd 1f       	adc	r27, r29
    701a:	8a 0f       	add	r24, r26
    701c:	9b 1f       	adc	r25, r27
    701e:	0e 94 46 0a 	call	0x148c	; 0x148c <binary_search>
	ppmValue[sensor_id] = (((R0_RATIOS_CO[sensor_id][1][valueOfIndex] - R0_RATIOS_CO[sensor_id][1][valueOfIndex-1])*interpolationNum)>>(VALS_TO_MULTIPLY[valueOfIndex]-2)) + R0_RATIOS_CO[sensor_id][1][valueOfIndex-1];
    7022:	40 91 c1 04 	lds	r20, 0x04C1	; 0x8004c1 <valueOfIndex>
    7026:	50 91 c2 04 	lds	r21, 0x04C2	; 0x8004c2 <valueOfIndex+0x1>
    702a:	a0 91 c1 04 	lds	r26, 0x04C1	; 0x8004c1 <valueOfIndex>
    702e:	b0 91 c2 04 	lds	r27, 0x04C2	; 0x8004c2 <valueOfIndex+0x1>
    7032:	e0 90 19 04 	lds	r14, 0x0419	; 0x800419 <interpolationNum>
    7036:	f0 90 1a 04 	lds	r15, 0x041A	; 0x80041a <interpolationNum+0x1>
    703a:	60 91 c1 04 	lds	r22, 0x04C1	; 0x8004c1 <valueOfIndex>
    703e:	70 91 c2 04 	lds	r23, 0x04C2	; 0x8004c2 <valueOfIndex+0x1>
    7042:	20 91 c1 04 	lds	r18, 0x04C1	; 0x8004c1 <valueOfIndex>
    7046:	30 91 c2 04 	lds	r19, 0x04C2	; 0x8004c2 <valueOfIndex+0x1>
    704a:	fc 2d       	mov	r31, r12
    704c:	ee 27       	eor	r30, r30
    704e:	4e 0f       	add	r20, r30
    7050:	5f 1f       	adc	r21, r31
    7052:	40 58       	subi	r20, 0x80	; 128
    7054:	5f 4f       	sbci	r21, 0xFF	; 255
    7056:	44 0f       	add	r20, r20
    7058:	55 1f       	adc	r21, r21
    705a:	cc 24       	eor	r12, r12
    705c:	c3 94       	inc	r12
    705e:	d1 2c       	mov	r13, r1
    7060:	cc 0e       	add	r12, r28
    7062:	dd 1e       	adc	r13, r29
    7064:	4c 0d       	add	r20, r12
    7066:	5d 1d       	adc	r21, r13
    7068:	ae 0f       	add	r26, r30
    706a:	bf 1f       	adc	r27, r31
    706c:	a1 58       	subi	r26, 0x81	; 129
    706e:	bf 4f       	sbci	r27, 0xFF	; 255
    7070:	aa 0f       	add	r26, r26
    7072:	bb 1f       	adc	r27, r27
    7074:	cc 24       	eor	r12, r12
    7076:	c3 94       	inc	r12
    7078:	d1 2c       	mov	r13, r1
    707a:	cc 0e       	add	r12, r28
    707c:	dd 1e       	adc	r13, r29
    707e:	ca 0e       	add	r12, r26
    7080:	db 1e       	adc	r13, r27
    7082:	da 01       	movw	r26, r20
    7084:	58 96       	adiw	r26, 0x18	; 24
    7086:	4d 91       	ld	r20, X+
    7088:	5c 91       	ld	r21, X
    708a:	59 97       	sbiw	r26, 0x19	; 25
    708c:	d6 01       	movw	r26, r12
    708e:	58 96       	adiw	r26, 0x18	; 24
    7090:	8d 91       	ld	r24, X+
    7092:	9c 91       	ld	r25, X
    7094:	59 97       	sbiw	r26, 0x19	; 25
    7096:	48 1b       	sub	r20, r24
    7098:	59 0b       	sbc	r21, r25
    709a:	4e 9d       	mul	r20, r14
    709c:	c0 01       	movw	r24, r0
    709e:	4f 9d       	mul	r20, r15
    70a0:	90 0d       	add	r25, r0
    70a2:	5e 9d       	mul	r21, r14
    70a4:	90 0d       	add	r25, r0
    70a6:	11 24       	eor	r1, r1
    70a8:	66 0f       	add	r22, r22
    70aa:	77 1f       	adc	r23, r23
    70ac:	a1 e0       	ldi	r26, 0x01	; 1
    70ae:	b0 e0       	ldi	r27, 0x00	; 0
    70b0:	ac 0f       	add	r26, r28
    70b2:	bd 1f       	adc	r27, r29
    70b4:	a6 0f       	add	r26, r22
    70b6:	b7 1f       	adc	r27, r23
    70b8:	4d 91       	ld	r20, X+
    70ba:	5c 91       	ld	r21, X
    70bc:	42 50       	subi	r20, 0x02	; 2
    70be:	51 09       	sbc	r21, r1
    70c0:	02 c0       	rjmp	.+4      	; 0x70c6 <__stack+0x2fc7>
    70c2:	95 95       	asr	r25
    70c4:	87 95       	ror	r24
    70c6:	4a 95       	dec	r20
    70c8:	e2 f7       	brpl	.-8      	; 0x70c2 <__stack+0x2fc3>
    70ca:	e2 0f       	add	r30, r18
    70cc:	f3 1f       	adc	r31, r19
    70ce:	e1 58       	subi	r30, 0x81	; 129
    70d0:	ff 4f       	sbci	r31, 0xFF	; 255
    70d2:	ee 0f       	add	r30, r30
    70d4:	ff 1f       	adc	r31, r31
    70d6:	cc 24       	eor	r12, r12
    70d8:	c3 94       	inc	r12
    70da:	d1 2c       	mov	r13, r1
    70dc:	cc 0e       	add	r12, r28
    70de:	dd 1e       	adc	r13, r29
    70e0:	ec 0d       	add	r30, r12
    70e2:	fd 1d       	adc	r31, r13
    70e4:	20 8d       	ldd	r18, Z+24	; 0x18
    70e6:	31 8d       	ldd	r19, Z+25	; 0x19
    70e8:	82 0f       	add	r24, r18
    70ea:	93 1f       	adc	r25, r19
    70ec:	f8 01       	movw	r30, r16
    70ee:	ea 5d       	subi	r30, 0xDA	; 218
    70f0:	fb 4f       	sbci	r31, 0xFB	; 251
    70f2:	91 83       	std	Z+1, r25	; 0x01
    70f4:	80 83       	st	Z, r24

}
    70f6:	c7 5e       	subi	r28, 0xE7	; 231
    70f8:	d3 4f       	sbci	r29, 0xF3	; 243
    70fa:	0f b6       	in	r0, 0x3f	; 63
    70fc:	f8 94       	cli
    70fe:	de bf       	out	0x3e, r29	; 62
    7100:	0f be       	out	0x3f, r0	; 63
    7102:	cd bf       	out	0x3d, r28	; 61
    7104:	df 91       	pop	r29
    7106:	cf 91       	pop	r28
    7108:	1f 91       	pop	r17
    710a:	0f 91       	pop	r16
    710c:	ff 90       	pop	r15
    710e:	ef 90       	pop	r14
    7110:	df 90       	pop	r13
    7112:	cf 90       	pop	r12
    7114:	bf 90       	pop	r11
    7116:	af 90       	pop	r10
    7118:	9f 90       	pop	r9
    711a:	8f 90       	pop	r8
    711c:	7f 90       	pop	r7
    711e:	6f 90       	pop	r6
    7120:	5f 90       	pop	r5
    7122:	4f 90       	pop	r4
    7124:	3f 90       	pop	r3
    7126:	2f 90       	pop	r2
    7128:	08 95       	ret

0000712a <LIDAR_distance>:

/********************************************************************************
						Functions
********************************************************************************/

uint16_t LIDAR_distance(void) {
    712a:	1f 93       	push	r17
    712c:	cf 93       	push	r28
    712e:	df 93       	push	r29
	uint16_t Ldistance;
	// From the LIDAR datasheet page 4, simplest way to use the LIDAR:
	// Step 1: Write bias correction use (0x04) to register 0
	messageBuf[0] = LIDAR_WRITE; // LIDAR slave address +W.
    7130:	e1 eb       	ldi	r30, 0xB1	; 177
    7132:	f4 e0       	ldi	r31, 0x04	; 4
    7134:	84 ec       	ldi	r24, 0xC4	; 196
    7136:	80 83       	st	Z, r24
	messageBuf[1] = 0x00; // Select register 0x00
    7138:	11 82       	std	Z+1, r1	; 0x01
	messageBuf[2] = LIDAR_USE_BIAS_CORRECTION; // What we're gonna write
    713a:	84 e0       	ldi	r24, 0x04	; 4
    713c:	82 83       	std	Z+2, r24	; 0x02
	TWI_Start_Transceiver_With_Data( messageBuf, 3);
    713e:	63 e0       	ldi	r22, 0x03	; 3
    7140:	cf 01       	movw	r24, r30
    7142:	ca d2       	rcall	.+1428   	; 0x76d8 <TWI_Start_Transceiver_With_Data>
	// Let initialization transaction complete...
	while ( TWI_Transceiver_Busy() );
    7144:	c5 d2       	rcall	.+1418   	; 0x76d0 <TWI_Transceiver_Busy>
    7146:	81 11       	cpse	r24, r1
    7148:	fd cf       	rjmp	.-6      	; 0x7144 <LIDAR_distance+0x1a>
	//
	// Step 2: read register 0x01 and watch the low bit.  
	// From page 6, we have to write the address we want to read first...
	messageBuf[0] = LIDAR_WRITE; // LIDAR slave address +W.
    714a:	e1 eb       	ldi	r30, 0xB1	; 177
    714c:	f4 e0       	ldi	r31, 0x04	; 4
    714e:	84 ec       	ldi	r24, 0xC4	; 196
    7150:	80 83       	st	Z, r24
	messageBuf[1] = 0x01; // Select register 0x01
    7152:	81 e0       	ldi	r24, 0x01	; 1
    7154:	81 83       	std	Z+1, r24	; 0x01
	TWI_Start_Transceiver_With_Data( messageBuf, 2);
    7156:	62 e0       	ldi	r22, 0x02	; 2
    7158:	cf 01       	movw	r24, r30
    715a:	be d2       	rcall	.+1404   	; 0x76d8 <TWI_Start_Transceiver_With_Data>
	// Let initialization transaction complete...
	while ( TWI_Transceiver_Busy() );	
    715c:	b9 d2       	rcall	.+1394   	; 0x76d0 <TWI_Transceiver_Busy>
    715e:	81 11       	cpse	r24, r1
    7160:	fd cf       	rjmp	.-6      	; 0x715c <LIDAR_distance+0x32>
	// Now verify we're talking to the right device...set up a read of the chip ID:
	messageBuf[1] = 0x01; // Set up to wait for 0x01 LSB to go low...
	while (messageBuf[1] & 0x01)
	{
		messageBuf[0] = LIDAR_READ; // LIDAR slave address +R.
    7162:	c1 eb       	ldi	r28, 0xB1	; 177
    7164:	d4 e0       	ldi	r29, 0x04	; 4
    7166:	15 ec       	ldi	r17, 0xC5	; 197
    7168:	18 83       	st	Y, r17
		messageBuf[1] = 0x00; // Clear the field where reg 0x01 will be written
    716a:	19 82       	std	Y+1, r1	; 0x01
		TWI_Start_Transceiver_With_Data( messageBuf, 2);
    716c:	62 e0       	ldi	r22, 0x02	; 2
    716e:	ce 01       	movw	r24, r28
    7170:	b3 d2       	rcall	.+1382   	; 0x76d8 <TWI_Start_Transceiver_With_Data>
		while ( TWI_Transceiver_Busy() );	
    7172:	ae d2       	rcall	.+1372   	; 0x76d0 <TWI_Transceiver_Busy>
    7174:	81 11       	cpse	r24, r1
    7176:	fd cf       	rjmp	.-6      	; 0x7172 <LIDAR_distance+0x48>
		// Now get the data we just read...note that it starts in messageBuf[1], not [0]
		TWI_XFER_STATUS = TWI_Get_Data_From_Transceiver(messageBuf, 2);
    7178:	62 e0       	ldi	r22, 0x02	; 2
    717a:	ce 01       	movw	r24, r28
    717c:	d9 d2       	rcall	.+1458   	; 0x7730 <TWI_Get_Data_From_Transceiver>
    717e:	80 93 c3 04 	sts	0x04C3, r24	; 0x8004c3 <TWI_XFER_STATUS>
		testing = messageBuf[1]; //This is here for debug purposes
    7182:	89 81       	ldd	r24, Y+1	; 0x01
    7184:	80 93 c4 04 	sts	0x04C4, r24	; 0x8004c4 <testing>
	TWI_Start_Transceiver_With_Data( messageBuf, 2);
	// Let initialization transaction complete...
	while ( TWI_Transceiver_Busy() );	
	// Now verify we're talking to the right device...set up a read of the chip ID:
	messageBuf[1] = 0x01; // Set up to wait for 0x01 LSB to go low...
	while (messageBuf[1] & 0x01)
    7188:	80 fd       	sbrc	r24, 0
    718a:	ee cf       	rjmp	.-36     	; 0x7168 <LIDAR_distance+0x3e>
	}
	// return;
	// LSB must now be low, so...
	// Step 3: Read two bytes from 0x8f (distance reg high byte, low byte)
	// First, WRITE the read-from address...
	messageBuf[0] = LIDAR_WRITE; // LIDAR slave address +W.
    718c:	e1 eb       	ldi	r30, 0xB1	; 177
    718e:	f4 e0       	ldi	r31, 0x04	; 4
    7190:	84 ec       	ldi	r24, 0xC4	; 196
    7192:	80 83       	st	Z, r24
	messageBuf[1] = LIDAR_AUTO_INCREMENT_ON_READ | LIDAR_DISTANCE_HIGH_BYTE;
    7194:	8f e8       	ldi	r24, 0x8F	; 143
    7196:	81 83       	std	Z+1, r24	; 0x01
	TWI_Start_Transceiver_With_Data( messageBuf, 2);
    7198:	62 e0       	ldi	r22, 0x02	; 2
    719a:	cf 01       	movw	r24, r30
    719c:	9d d2       	rcall	.+1338   	; 0x76d8 <TWI_Start_Transceiver_With_Data>
	// Let initialization transaction complete...
	while (TWI_Transceiver_Busy());
    719e:	98 d2       	rcall	.+1328   	; 0x76d0 <TWI_Transceiver_Busy>
    71a0:	81 11       	cpse	r24, r1
    71a2:	fd cf       	rjmp	.-6      	; 0x719e <LIDAR_distance+0x74>
	// Now READ from that address
	messageBuf[0] = LIDAR_READ; // LIDAR slave address +R.
    71a4:	e1 eb       	ldi	r30, 0xB1	; 177
    71a6:	f4 e0       	ldi	r31, 0x04	; 4
    71a8:	85 ec       	ldi	r24, 0xC5	; 197
    71aa:	80 83       	st	Z, r24
	messageBuf[1] = 0x00; //clear the receive area to see if it gets written
    71ac:	11 82       	std	Z+1, r1	; 0x01
	messageBuf[2] = 0x00; //clear the receive area to see if it gets written	
    71ae:	12 82       	std	Z+2, r1	; 0x02
	TWI_Start_Transceiver_With_Data( messageBuf, 3);
    71b0:	63 e0       	ldi	r22, 0x03	; 3
    71b2:	cf 01       	movw	r24, r30
    71b4:	91 d2       	rcall	.+1314   	; 0x76d8 <TWI_Start_Transceiver_With_Data>
	while ( TWI_Transceiver_Busy() );	
    71b6:	8c d2       	rcall	.+1304   	; 0x76d0 <TWI_Transceiver_Busy>
    71b8:	81 11       	cpse	r24, r1
    71ba:	fd cf       	rjmp	.-6      	; 0x71b6 <LIDAR_distance+0x8c>
	// Now transfer the data into our buffer
	TWI_XFER_STATUS = TWI_Get_Data_From_Transceiver(messageBuf, 3);
    71bc:	63 e0       	ldi	r22, 0x03	; 3
    71be:	81 eb       	ldi	r24, 0xB1	; 177
    71c0:	94 e0       	ldi	r25, 0x04	; 4
    71c2:	b6 d2       	rcall	.+1388   	; 0x7730 <TWI_Get_Data_From_Transceiver>
    71c4:	80 93 c3 04 	sts	0x04C3, r24	; 0x8004c3 <TWI_XFER_STATUS>
	Ldistance = (messageBuf[1]<<8) + messageBuf[2];
    71c8:	e1 eb       	ldi	r30, 0xB1	; 177
    71ca:	f4 e0       	ldi	r31, 0x04	; 4
    71cc:	81 81       	ldd	r24, Z+1	; 0x01
    71ce:	90 e0       	ldi	r25, 0x00	; 0
    71d0:	98 2f       	mov	r25, r24
    71d2:	88 27       	eor	r24, r24
    71d4:	22 81       	ldd	r18, Z+2	; 0x02
	// That's all, folks...
	return(Ldistance);
}
    71d6:	82 0f       	add	r24, r18
    71d8:	91 1d       	adc	r25, r1
    71da:	df 91       	pop	r29
    71dc:	cf 91       	pop	r28
    71de:	1f 91       	pop	r17
    71e0:	08 95       	ret

000071e2 <main>:
	// *************************************************************************
	//        Initialization code & device configuration
	// *************************************************************************
 	//
	// Set the I/O pins
	canary_io_pin_initialization();
    71e2:	0e 94 d8 08 	call	0x11b0	; 0x11b0 <canary_io_pin_initialization>
	//
	// Turn on the RED LED until we have finished initialization
	SetBit(PORTB, PORTB0);
    71e6:	28 9a       	sbi	0x05, 0	; 5
	// Set a simple counter for the loop below.  Debug only.
	seconds=0;
    71e8:	10 92 c9 04 	sts	0x04C9, r1	; 0x8004c9 <seconds+0x1>
    71ec:	10 92 c8 04 	sts	0x04C8, r1	; 0x8004c8 <seconds>
	ItsTime=0;
    71f0:	10 92 d1 03 	sts	0x03D1, r1	; 0x8003d1 <ItsTime>
	GPSlock=0;
    71f4:	10 92 72 04 	sts	0x0472, r1	; 0x800472 <GPSlock>
	//
	// set up our output for handling printf and string operations,,,
	stdout = &mystdout;
    71f8:	82 e0       	ldi	r24, 0x02	; 2
    71fa:	91 e0       	ldi	r25, 0x01	; 1
    71fc:	90 93 cd 06 	sts	0x06CD, r25	; 0x8006cd <__iob+0x3>
    7200:	80 93 cc 06 	sts	0x06CC, r24	; 0x8006cc <__iob+0x2>
	//
	// Initialize the timer counter 1 for 1Hz interrupt
	// This interrupt is only enabled if we don't have the GPS sensor connected.
	initialize_timer_counter_1();
    7204:	3b d2       	rcall	.+1142   	; 0x767c <initialize_timer_counter_1>
	//
	// Initialize our main communication to the ground (UART0)
	USART0_init(MYUBRR0);
    7206:	81 e8       	ldi	r24, 0x81	; 129
    7208:	90 e0       	ldi	r25, 0x00	; 0
    720a:	35 d3       	rcall	.+1642   	; 0x7876 <USART0_init>
	//
	// Initialize the connection to the GPS sensor (UART1)
	USART1_init(MYUBRR1);
    720c:	81 e8       	ldi	r24, 0x81	; 129
    720e:	90 e0       	ldi	r25, 0x00	; 0
    7210:	8d d3       	rcall	.+1818   	; 0x792c <USART1_init>
	//
	// Initialize the TWI peripheral
	TWI_Master_Initialise();
    7212:	54 d2       	rcall	.+1192   	; 0x76bc <TWI_Master_Initialise>
	//
	// Initialize the Analog to digital hardware - and test the I/F.
	ADC_init();
    7214:	0e 94 c1 00 	call	0x182	; 0x182 <ADC_init>
	//
	// initialize the gas sensors
	gas_sensors_init();
    7218:	0e 94 25 09 	call	0x124a	; 0x124a <gas_sensors_init>
	// 
	// Start all interrupts
	sei();
    721c:	78 94       	sei
	//
	// Initialize and check the BME interface...
	bme280basic_init();
    721e:	0e 94 aa 02 	call	0x554	; 0x554 <bme280basic_init>
	// Now that we've tried to initialize everything, we need to report status to the three LEDs sitting on
	// the circuit board...the current placeholder routine does not do this so well.  Need to rethink this.
	// display_status(gas_sensors, gas_sensor_initialization_errors);
	//
	// Clear the Red LED to indicate all things are initialized.
	ClearBit(PORTB, PORTB0);
    7222:	28 98       	cbi	0x05, 0	; 5
	//
	// ***modify UART1 interrupt code to set the GPSlock flag is distance data is detected ***
	// *** (and turn on the BLUE LED so the operator knows when it is locked).***
	//
	// Wait here for the start/standby button to be selected.. (PORTB pin 3).
	while(BitIsSet(PINB,PINB3)) {}//makes program wait until everything is ready(button is pushed) //not working we don't know why
    7224:	83 b1       	in	r24, 0x03	; 3
    7226:	08 2f       	mov	r16, r24
    7228:	08 70       	andi	r16, 0x08	; 8
    722a:	83 fd       	sbrc	r24, 3
    722c:	fb cf       	rjmp	.-10     	; 0x7224 <main+0x42>
	//
	//Proceed to main loop with warning to ground system re: GPSlock
	if (GPSlock==1) 
    722e:	80 91 72 04 	lds	r24, 0x0472	; 0x800472 <GPSlock>
    7232:	81 30       	cpi	r24, 0x01	; 1
    7234:	71 f5       	brne	.+92     	; 0x7292 <main+0xb0>
		{
			printf("\n%s", "Proceeding with GPS lock");
    7236:	8d e1       	ldi	r24, 0x1D	; 29
    7238:	91 e0       	ldi	r25, 0x01	; 1
    723a:	9f 93       	push	r25
    723c:	8f 93       	push	r24
    723e:	86 e3       	ldi	r24, 0x36	; 54
    7240:	91 e0       	ldi	r25, 0x01	; 1
    7242:	9f 93       	push	r25
    7244:	8f 93       	push	r24
    7246:	6d d6       	rcall	.+3290   	; 0x7f22 <printf>
    7248:	0f 90       	pop	r0
    724a:	0f 90       	pop	r0
    724c:	0f 90       	pop	r0
    724e:	0f 90       	pop	r0
			//print statements
			// ----------- debug -------------- //
			if (printType == 0)
			{
				//# seconds
				printf("\nSeconds = %u", seconds);
    7250:	0f 2e       	mov	r0, r31
    7252:	f6 e5       	ldi	r31, 0x56	; 86
    7254:	af 2e       	mov	r10, r31
    7256:	f1 e0       	ldi	r31, 0x01	; 1
    7258:	bf 2e       	mov	r11, r31
    725a:	f0 2d       	mov	r31, r0
				// LiDAR
				while(UART0TransmitInProgress) {}
 				printf("\nLIDAR distance = %u", distance);
    725c:	0f 2e       	mov	r0, r31
    725e:	f4 e6       	ldi	r31, 0x64	; 100
    7260:	cf 2e       	mov	r12, r31
    7262:	f1 e0       	ldi	r31, 0x01	; 1
    7264:	df 2e       	mov	r13, r31
    7266:	f0 2d       	mov	r31, r0
				// Gas sensors
 				while(UART0TransmitInProgress) {}
				printf("\nCO = %u", raw_gas_vector[0]);
    7268:	c8 e4       	ldi	r28, 0x48	; 72
    726a:	d4 e0       	ldi	r29, 0x04	; 4
    726c:	0f 2e       	mov	r0, r31
    726e:	f9 e7       	ldi	r31, 0x79	; 121
    7270:	ef 2e       	mov	r14, r31
    7272:	f1 e0       	ldi	r31, 0x01	; 1
    7274:	ff 2e       	mov	r15, r31
    7276:	f0 2d       	mov	r31, r0
				while(UART0TransmitInProgress) {}
				printf("\nH = %u", raw_gas_vector[1]);
    7278:	0f 2e       	mov	r0, r31
    727a:	f2 e8       	ldi	r31, 0x82	; 130
    727c:	8f 2e       	mov	r8, r31
    727e:	f1 e0       	ldi	r31, 0x01	; 1
    7280:	9f 2e       	mov	r9, r31
    7282:	f0 2d       	mov	r31, r0
				while(UART0TransmitInProgress) {}
				printf("\nNA = %u", raw_gas_vector[2]);
    7284:	0f 2e       	mov	r0, r31
    7286:	fa e8       	ldi	r31, 0x8A	; 138
    7288:	2f 2e       	mov	r2, r31
    728a:	f1 e0       	ldi	r31, 0x01	; 1
    728c:	3f 2e       	mov	r3, r31
    728e:	f0 2d       	mov	r31, r0
    7290:	0e c0       	rjmp	.+28     	; 0x72ae <main+0xcc>
		{
			printf("\n%s", "Proceeding with GPS lock");
		}
		else
		{
			printf("\n%s", "Proceeding without GPS lock");
    7292:	8a e3       	ldi	r24, 0x3A	; 58
    7294:	91 e0       	ldi	r25, 0x01	; 1
    7296:	9f 93       	push	r25
    7298:	8f 93       	push	r24
    729a:	86 e3       	ldi	r24, 0x36	; 54
    729c:	91 e0       	ldi	r25, 0x01	; 1
    729e:	9f 93       	push	r25
    72a0:	8f 93       	push	r24
    72a2:	3f d6       	rcall	.+3198   	; 0x7f22 <printf>
    72a4:	0f 90       	pop	r0
    72a6:	0f 90       	pop	r0
    72a8:	0f 90       	pop	r0
    72aa:	0f 90       	pop	r0
    72ac:	d1 cf       	rjmp	.-94     	; 0x7250 <main+0x6e>
		// reached steady state...do nothing for the moment - wait for interrupts.
		// The variable ItsTime gets set to 1 every second using the 1Hz interrupt
		// When GPS is connected and enabled, then ItsTime gets set 
		// to 1 whenever we get a $GPGGA message from that sensor.
		///////////////////////////////////////////////////////////
		if (ItsTime == 1){ //wait for our 1Hz flag (from GPS or Interrupt)
    72ae:	80 91 d1 03 	lds	r24, 0x03D1	; 0x8003d1 <ItsTime>
    72b2:	81 30       	cpi	r24, 0x01	; 1
    72b4:	e1 f7       	brne	.-8      	; 0x72ae <main+0xcc>
			ItsTime = 0; 
    72b6:	10 92 d1 03 	sts	0x03D1, r1	; 0x8003d1 <ItsTime>
 			seconds++;
    72ba:	80 91 c8 04 	lds	r24, 0x04C8	; 0x8004c8 <seconds>
    72be:	90 91 c9 04 	lds	r25, 0x04C9	; 0x8004c9 <seconds+0x1>
    72c2:	01 96       	adiw	r24, 0x01	; 1
    72c4:	90 93 c9 04 	sts	0x04C9, r25	; 0x8004c9 <seconds+0x1>
    72c8:	80 93 c8 04 	sts	0x04C8, r24	; 0x8004c8 <seconds>
			// Now we want to read each sensor - and send out the data,
			// each time through this loop.  Comment out the code you
			// don't want to use when debugging the code you are adding... 
			//============================
			 //Now test reading the LIDAR interface
			distance = LIDAR_distance();
    72cc:	2e df       	rcall	.-420    	; 0x712a <LIDAR_distance>
    72ce:	90 93 25 04 	sts	0x0425, r25	; 0x800425 <distance+0x1>
    72d2:	80 93 24 04 	sts	0x0424, r24	; 0x800424 <distance>
// 				}
// 			}
// 			printf("Z");
			//============================
			// Now test the gas sensor interface...
			start_gas_sensor_read();
    72d6:	0e 94 a5 09 	call	0x134a	; 0x134a <start_gas_sensor_read>
//  			printf("\nO3 = %u", raw_gas_vector[4]);
// 			while(UART0TransmitInProgress) {}
			//
			//============================
			// Now read the BME interface...
	 		bme280basic_bulk_data_read();
    72da:	0e 94 13 03 	call	0x626	; 0x626 <bme280basic_bulk_data_read>
 			// Calculate the temperature and print it
			tempCelsius = BME280_compensate_T_int32(rawTemp);
    72de:	60 91 1e 04 	lds	r22, 0x041E	; 0x80041e <rawTemp>
    72e2:	70 91 1f 04 	lds	r23, 0x041F	; 0x80041f <rawTemp+0x1>
    72e6:	80 91 20 04 	lds	r24, 0x0420	; 0x800420 <rawTemp+0x2>
    72ea:	90 91 21 04 	lds	r25, 0x0421	; 0x800421 <rawTemp+0x3>
    72ee:	0e 94 02 04 	call	0x804	; 0x804 <BME280_compensate_T_int32>
    72f2:	60 93 15 04 	sts	0x0415, r22	; 0x800415 <tempCelsius>
    72f6:	70 93 16 04 	sts	0x0416, r23	; 0x800416 <tempCelsius+0x1>
    72fa:	80 93 17 04 	sts	0x0417, r24	; 0x800417 <tempCelsius+0x2>
    72fe:	90 93 18 04 	sts	0x0418, r25	; 0x800418 <tempCelsius+0x3>
// 			sprintf(temperatureBuf, "%lu", tempCelsius);
//  			printf("\nCelsius = %lu", tempCelsius);
//			while(UART0TransmitInProgress) {}
 			// Calculate the pressure and print it
			pressure = BME280_compensate_P_int64(rawPress);
    7302:	60 91 56 04 	lds	r22, 0x0456	; 0x800456 <rawPress>
    7306:	70 91 57 04 	lds	r23, 0x0457	; 0x800457 <rawPress+0x1>
    730a:	80 91 58 04 	lds	r24, 0x0458	; 0x800458 <rawPress+0x2>
    730e:	90 91 59 04 	lds	r25, 0x0459	; 0x800459 <rawPress+0x3>
    7312:	0e 94 90 04 	call	0x920	; 0x920 <BME280_compensate_P_int64>
    7316:	60 93 39 04 	sts	0x0439, r22	; 0x800439 <pressure>
    731a:	70 93 3a 04 	sts	0x043A, r23	; 0x80043a <pressure+0x1>
    731e:	80 93 3b 04 	sts	0x043B, r24	; 0x80043b <pressure+0x2>
    7322:	90 93 3c 04 	sts	0x043C, r25	; 0x80043c <pressure+0x3>
// 			printf("\nPressure in Pa = %lu", pressure>>8);
//			while(UART0TransmitInProgress) {}
 			// Calculate the humidity and print it
			humidity = bme280_compensate_H_int32(rawHum);
    7326:	60 91 5a 04 	lds	r22, 0x045A	; 0x80045a <rawHum>
    732a:	70 91 5b 04 	lds	r23, 0x045B	; 0x80045b <rawHum+0x1>
    732e:	80 91 5c 04 	lds	r24, 0x045C	; 0x80045c <rawHum+0x2>
    7332:	90 91 5d 04 	lds	r25, 0x045D	; 0x80045d <rawHum+0x3>
    7336:	0e 94 fc 06 	call	0xdf8	; 0xdf8 <bme280_compensate_H_int32>
    733a:	60 93 43 04 	sts	0x0443, r22	; 0x800443 <humidity>
    733e:	70 93 44 04 	sts	0x0444, r23	; 0x800444 <humidity+0x1>
    7342:	80 93 45 04 	sts	0x0445, r24	; 0x800445 <humidity+0x2>
    7346:	90 93 46 04 	sts	0x0446, r25	; 0x800446 <humidity+0x3>
    734a:	10 2f       	mov	r17, r16
			//
			//============================
			
			for(int i = 0; i < 5; i++)
			{
				convert_to_ppm(i); //only works for co right now
    734c:	81 2f       	mov	r24, r17
    734e:	0e 94 8f 0a 	call	0x151e	; 0x151e <convert_to_ppm>
    7352:	1f 5f       	subi	r17, 0xFF	; 255
//			while(UART0TransmitInProgress) {}
// 			printf("\n BME message = http://canary.chordsrt.com/measurements/url_create?instrument_id=1&temp=%.5s.%.5s&pres=%lu&hum=%lu&key=4e6fba7420ec9e881f510bcddb%.3s:%.4s:%.3s", temp, temp+2, pressure, humidity, time, time+2, time+4); //need key
			//
			//============================
			
			for(int i = 0; i < 5; i++)
    7354:	15 30       	cpi	r17, 0x05	; 5
    7356:	d1 f7       	brne	.-12     	; 0x734c <main+0x16a>
// 			printf("ppm value O3: %d \n", ppmValue[4]);
// 			while(UART0TransmitInProgress) {}

			//print statements
			// ----------- debug -------------- //
			if (printType == 0)
    7358:	80 91 01 01 	lds	r24, 0x0101	; 0x800101 <printType>
    735c:	81 11       	cpse	r24, r1
    735e:	f0 c0       	rjmp	.+480    	; 0x7540 <main+0x35e>
			{
				//# seconds
				printf("\nSeconds = %u", seconds);
    7360:	80 91 c8 04 	lds	r24, 0x04C8	; 0x8004c8 <seconds>
    7364:	90 91 c9 04 	lds	r25, 0x04C9	; 0x8004c9 <seconds+0x1>
    7368:	9f 93       	push	r25
    736a:	8f 93       	push	r24
    736c:	bf 92       	push	r11
    736e:	af 92       	push	r10
    7370:	d8 d5       	rcall	.+2992   	; 0x7f22 <printf>
				// LiDAR
				while(UART0TransmitInProgress) {}
 				printf("\nLIDAR distance = %u", distance);
    7372:	80 91 25 04 	lds	r24, 0x0425	; 0x800425 <distance+0x1>
    7376:	8f 93       	push	r24
    7378:	80 91 24 04 	lds	r24, 0x0424	; 0x800424 <distance>
    737c:	8f 93       	push	r24
    737e:	df 92       	push	r13
    7380:	cf 92       	push	r12
    7382:	cf d5       	rcall	.+2974   	; 0x7f22 <printf>
				// Gas sensors
 				while(UART0TransmitInProgress) {}
				printf("\nCO = %u", raw_gas_vector[0]);
    7384:	89 81       	ldd	r24, Y+1	; 0x01
    7386:	8f 93       	push	r24
    7388:	88 81       	ld	r24, Y
    738a:	8f 93       	push	r24
    738c:	ff 92       	push	r15
    738e:	ef 92       	push	r14
    7390:	c8 d5       	rcall	.+2960   	; 0x7f22 <printf>
				while(UART0TransmitInProgress) {}
				printf("\nH = %u", raw_gas_vector[1]);
    7392:	8b 81       	ldd	r24, Y+3	; 0x03
    7394:	8f 93       	push	r24
    7396:	8a 81       	ldd	r24, Y+2	; 0x02
    7398:	8f 93       	push	r24
    739a:	9f 92       	push	r9
    739c:	8f 92       	push	r8
    739e:	c1 d5       	rcall	.+2946   	; 0x7f22 <printf>
				while(UART0TransmitInProgress) {}
				printf("\nNA = %u", raw_gas_vector[2]);
    73a0:	8d 81       	ldd	r24, Y+5	; 0x05
    73a2:	8f 93       	push	r24
    73a4:	8c 81       	ldd	r24, Y+4	; 0x04
    73a6:	8f 93       	push	r24
    73a8:	3f 92       	push	r3
    73aa:	2f 92       	push	r2
    73ac:	ba d5       	rcall	.+2932   	; 0x7f22 <printf>
				while(UART0TransmitInProgress) {}
				printf("\nCH4 = %u", raw_gas_vector[3]);
    73ae:	8f 81       	ldd	r24, Y+7	; 0x07
    73b0:	8f 93       	push	r24
    73b2:	8e 81       	ldd	r24, Y+6	; 0x06
    73b4:	8f 93       	push	r24
    73b6:	a3 e9       	ldi	r26, 0x93	; 147
    73b8:	b1 e0       	ldi	r27, 0x01	; 1
    73ba:	bf 93       	push	r27
    73bc:	af 93       	push	r26
    73be:	b1 d5       	rcall	.+2914   	; 0x7f22 <printf>
				while(UART0TransmitInProgress) {}
				printf("\nO3 = %u", raw_gas_vector[4]);
    73c0:	89 85       	ldd	r24, Y+9	; 0x09
    73c2:	8f 93       	push	r24
    73c4:	88 85       	ldd	r24, Y+8	; 0x08
    73c6:	8f 93       	push	r24
    73c8:	ad e9       	ldi	r26, 0x9D	; 157
    73ca:	b1 e0       	ldi	r27, 0x01	; 1
    73cc:	bf 93       	push	r27
    73ce:	af 93       	push	r26
    73d0:	a8 d5       	rcall	.+2896   	; 0x7f22 <printf>
				while(UART0TransmitInProgress) {}
				//BME 280
				printf("\nCelsius = %d.%.2d", (int) (tempCelsius/100), (int) (tempCelsius%100));
    73d2:	60 91 15 04 	lds	r22, 0x0415	; 0x800415 <tempCelsius>
    73d6:	70 91 16 04 	lds	r23, 0x0416	; 0x800416 <tempCelsius+0x1>
    73da:	80 91 17 04 	lds	r24, 0x0417	; 0x800417 <tempCelsius+0x2>
    73de:	90 91 18 04 	lds	r25, 0x0418	; 0x800418 <tempCelsius+0x3>
    73e2:	24 e6       	ldi	r18, 0x64	; 100
    73e4:	30 e0       	ldi	r19, 0x00	; 0
    73e6:	40 e0       	ldi	r20, 0x00	; 0
    73e8:	50 e0       	ldi	r21, 0x00	; 0
    73ea:	bf d3       	rcall	.+1918   	; 0x7b6a <__divmodsi4>
    73ec:	7f 93       	push	r23
    73ee:	6f 93       	push	r22
    73f0:	3f 93       	push	r19
    73f2:	2f 93       	push	r18
    73f4:	a6 ea       	ldi	r26, 0xA6	; 166
    73f6:	b1 e0       	ldi	r27, 0x01	; 1
    73f8:	bf 93       	push	r27
    73fa:	af 93       	push	r26
    73fc:	92 d5       	rcall	.+2852   	; 0x7f22 <printf>
				while(UART0TransmitInProgress) {}
				printf("\nPressure in Pa = %lu", pressure>>8);
    73fe:	2d b7       	in	r18, 0x3d	; 61
    7400:	3e b7       	in	r19, 0x3e	; 62
    7402:	2e 5d       	subi	r18, 0xDE	; 222
    7404:	3f 4f       	sbci	r19, 0xFF	; 255
    7406:	0f b6       	in	r0, 0x3f	; 63
    7408:	f8 94       	cli
    740a:	3e bf       	out	0x3e, r19	; 62
    740c:	0f be       	out	0x3f, r0	; 63
    740e:	2d bf       	out	0x3d, r18	; 61
    7410:	80 91 39 04 	lds	r24, 0x0439	; 0x800439 <pressure>
    7414:	90 91 3a 04 	lds	r25, 0x043A	; 0x80043a <pressure+0x1>
    7418:	a0 91 3b 04 	lds	r26, 0x043B	; 0x80043b <pressure+0x2>
    741c:	b0 91 3c 04 	lds	r27, 0x043C	; 0x80043c <pressure+0x3>
    7420:	89 2f       	mov	r24, r25
    7422:	9a 2f       	mov	r25, r26
    7424:	ab 2f       	mov	r26, r27
    7426:	bb 27       	eor	r27, r27
    7428:	a7 fd       	sbrc	r26, 7
    742a:	ba 95       	dec	r27
    742c:	bf 93       	push	r27
    742e:	af 93       	push	r26
    7430:	9f 93       	push	r25
    7432:	8f 93       	push	r24
    7434:	a9 eb       	ldi	r26, 0xB9	; 185
    7436:	b1 e0       	ldi	r27, 0x01	; 1
    7438:	bf 93       	push	r27
    743a:	af 93       	push	r26
    743c:	72 d5       	rcall	.+2788   	; 0x7f22 <printf>
				while(UART0TransmitInProgress) {}
				printf("\nHumidity%% = %lu.%lu\n", humidity>>10, ((humidity*1000)>>10));
    743e:	40 90 43 04 	lds	r4, 0x0443	; 0x800443 <humidity>
    7442:	50 90 44 04 	lds	r5, 0x0444	; 0x800444 <humidity+0x1>
    7446:	60 90 45 04 	lds	r6, 0x0445	; 0x800445 <humidity+0x2>
    744a:	70 90 46 04 	lds	r7, 0x0446	; 0x800446 <humidity+0x3>
    744e:	a8 ee       	ldi	r26, 0xE8	; 232
    7450:	b3 e0       	ldi	r27, 0x03	; 3
    7452:	a3 01       	movw	r20, r6
    7454:	92 01       	movw	r18, r4
    7456:	ae d3       	rcall	.+1884   	; 0x7bb4 <__muluhisi3>
    7458:	dc 01       	movw	r26, r24
    745a:	cb 01       	movw	r24, r22
    745c:	07 2e       	mov	r0, r23
    745e:	7a e0       	ldi	r23, 0x0A	; 10
    7460:	b5 95       	asr	r27
    7462:	a7 95       	ror	r26
    7464:	97 95       	ror	r25
    7466:	87 95       	ror	r24
    7468:	7a 95       	dec	r23
    746a:	d1 f7       	brne	.-12     	; 0x7460 <main+0x27e>
    746c:	70 2d       	mov	r23, r0
    746e:	bf 93       	push	r27
    7470:	af 93       	push	r26
    7472:	9f 93       	push	r25
    7474:	8f 93       	push	r24
    7476:	d3 01       	movw	r26, r6
    7478:	c2 01       	movw	r24, r4
    747a:	07 2e       	mov	r0, r23
    747c:	7a e0       	ldi	r23, 0x0A	; 10
    747e:	b5 95       	asr	r27
    7480:	a7 95       	ror	r26
    7482:	97 95       	ror	r25
    7484:	87 95       	ror	r24
    7486:	7a 95       	dec	r23
    7488:	d1 f7       	brne	.-12     	; 0x747e <main+0x29c>
    748a:	70 2d       	mov	r23, r0
    748c:	bf 93       	push	r27
    748e:	af 93       	push	r26
    7490:	9f 93       	push	r25
    7492:	8f 93       	push	r24
    7494:	af ec       	ldi	r26, 0xCF	; 207
    7496:	b1 e0       	ldi	r27, 0x01	; 1
    7498:	bf 93       	push	r27
    749a:	af 93       	push	r26
    749c:	42 d5       	rcall	.+2692   	; 0x7f22 <printf>
				while(UART0TransmitInProgress) {}
				//ppm values of gas sensors
				printf("ppm value CO: %d \n", ppmValue[0]);
    749e:	a6 e2       	ldi	r26, 0x26	; 38
    74a0:	b4 e0       	ldi	r27, 0x04	; 4
    74a2:	8d 91       	ld	r24, X+
    74a4:	9c 91       	ld	r25, X
    74a6:	9f 93       	push	r25
    74a8:	8f 93       	push	r24
    74aa:	86 ee       	ldi	r24, 0xE6	; 230
    74ac:	91 e0       	ldi	r25, 0x01	; 1
    74ae:	9f 93       	push	r25
    74b0:	8f 93       	push	r24
    74b2:	37 d5       	rcall	.+2670   	; 0x7f22 <printf>
				printf("ppm value H2: %d \n", ppmValue[1]);
    74b4:	80 91 28 04 	lds	r24, 0x0428	; 0x800428 <ppmValue+0x2>
    74b8:	90 91 29 04 	lds	r25, 0x0429	; 0x800429 <ppmValue+0x3>
    74bc:	9f 93       	push	r25
    74be:	8f 93       	push	r24
    74c0:	89 ef       	ldi	r24, 0xF9	; 249
    74c2:	91 e0       	ldi	r25, 0x01	; 1
    74c4:	9f 93       	push	r25
    74c6:	8f 93       	push	r24
    74c8:	2c d5       	rcall	.+2648   	; 0x7f22 <printf>
				printf("ppm value NH3: %d \n", ppmValue[2]);
    74ca:	80 91 2a 04 	lds	r24, 0x042A	; 0x80042a <ppmValue+0x4>
    74ce:	90 91 2b 04 	lds	r25, 0x042B	; 0x80042b <ppmValue+0x5>
    74d2:	9f 93       	push	r25
    74d4:	8f 93       	push	r24
    74d6:	8c e0       	ldi	r24, 0x0C	; 12
    74d8:	92 e0       	ldi	r25, 0x02	; 2
    74da:	9f 93       	push	r25
    74dc:	8f 93       	push	r24
    74de:	21 d5       	rcall	.+2626   	; 0x7f22 <printf>
				printf("ppm value CH4: %d \n", ppmValue[3]);
    74e0:	80 91 2c 04 	lds	r24, 0x042C	; 0x80042c <ppmValue+0x6>
    74e4:	90 91 2d 04 	lds	r25, 0x042D	; 0x80042d <ppmValue+0x7>
    74e8:	9f 93       	push	r25
    74ea:	8f 93       	push	r24
    74ec:	80 e2       	ldi	r24, 0x20	; 32
    74ee:	92 e0       	ldi	r25, 0x02	; 2
    74f0:	9f 93       	push	r25
    74f2:	8f 93       	push	r24
    74f4:	16 d5       	rcall	.+2604   	; 0x7f22 <printf>
				printf("ppm value O3: %d \n", ppmValue[4]);
    74f6:	80 91 2e 04 	lds	r24, 0x042E	; 0x80042e <ppmValue+0x8>
    74fa:	90 91 2f 04 	lds	r25, 0x042F	; 0x80042f <ppmValue+0x9>
    74fe:	ed b7       	in	r30, 0x3d	; 61
    7500:	fe b7       	in	r31, 0x3e	; 62
    7502:	b0 96       	adiw	r30, 0x20	; 32
    7504:	0f b6       	in	r0, 0x3f	; 63
    7506:	f8 94       	cli
    7508:	fe bf       	out	0x3e, r31	; 62
    750a:	0f be       	out	0x3f, r0	; 63
    750c:	ed bf       	out	0x3d, r30	; 61
    750e:	9f 93       	push	r25
    7510:	8f 93       	push	r24
    7512:	84 e3       	ldi	r24, 0x34	; 52
    7514:	92 e0       	ldi	r25, 0x02	; 2
    7516:	9f 93       	push	r25
    7518:	8f 93       	push	r24
    751a:	03 d5       	rcall	.+2566   	; 0x7f22 <printf>
				while(UART0TransmitInProgress) {}
				//GPS data
				printf("\n%s",messageWant);
    751c:	8a ec       	ldi	r24, 0xCA	; 202
    751e:	95 e0       	ldi	r25, 0x05	; 5
    7520:	9f 93       	push	r25
    7522:	8f 93       	push	r24
    7524:	86 e3       	ldi	r24, 0x36	; 54
    7526:	91 e0       	ldi	r25, 0x01	; 1
    7528:	9f 93       	push	r25
    752a:	8f 93       	push	r24
    752c:	fa d4       	rcall	.+2548   	; 0x7f22 <printf>
    752e:	2d b7       	in	r18, 0x3d	; 61
    7530:	3e b7       	in	r19, 0x3e	; 62
    7532:	28 5f       	subi	r18, 0xF8	; 248
    7534:	3f 4f       	sbci	r19, 0xFF	; 255
    7536:	0f b6       	in	r0, 0x3f	; 63
    7538:	f8 94       	cli
    753a:	3e bf       	out	0x3e, r19	; 62
    753c:	0f be       	out	0x3f, r0	; 63
    753e:	2d bf       	out	0x3d, r18	; 61
			Order: CO, NH3, O3, CH4, H2
			3 = LiDAR
			Order: Distance
			4 = GPS
			Order: lat, long, altitude */
			if (printType == 1)
    7540:	80 91 01 01 	lds	r24, 0x0101	; 0x800101 <printType>
    7544:	81 30       	cpi	r24, 0x01	; 1
    7546:	09 f0       	breq	.+2      	; 0x754a <main+0x368>
    7548:	88 c0       	rjmp	.+272    	; 0x765a <main+0x478>
			{
				printf("1,%d.%.2d,%d,%d|", (int) (tempCelsius/100), (int) (tempCelsius%100), pressure>>8, humidity>>10);
    754a:	40 91 15 04 	lds	r20, 0x0415	; 0x800415 <tempCelsius>
    754e:	50 91 16 04 	lds	r21, 0x0416	; 0x800416 <tempCelsius+0x1>
    7552:	60 91 17 04 	lds	r22, 0x0417	; 0x800417 <tempCelsius+0x2>
    7556:	70 91 18 04 	lds	r23, 0x0418	; 0x800418 <tempCelsius+0x3>
    755a:	80 91 43 04 	lds	r24, 0x0443	; 0x800443 <humidity>
    755e:	90 91 44 04 	lds	r25, 0x0444	; 0x800444 <humidity+0x1>
    7562:	a0 91 45 04 	lds	r26, 0x0445	; 0x800445 <humidity+0x2>
    7566:	b0 91 46 04 	lds	r27, 0x0446	; 0x800446 <humidity+0x3>
    756a:	07 2e       	mov	r0, r23
    756c:	7a e0       	ldi	r23, 0x0A	; 10
    756e:	b5 95       	asr	r27
    7570:	a7 95       	ror	r26
    7572:	97 95       	ror	r25
    7574:	87 95       	ror	r24
    7576:	7a 95       	dec	r23
    7578:	d1 f7       	brne	.-12     	; 0x756e <main+0x38c>
    757a:	70 2d       	mov	r23, r0
    757c:	bf 93       	push	r27
    757e:	af 93       	push	r26
    7580:	9f 93       	push	r25
    7582:	8f 93       	push	r24
    7584:	80 91 39 04 	lds	r24, 0x0439	; 0x800439 <pressure>
    7588:	90 91 3a 04 	lds	r25, 0x043A	; 0x80043a <pressure+0x1>
    758c:	a0 91 3b 04 	lds	r26, 0x043B	; 0x80043b <pressure+0x2>
    7590:	b0 91 3c 04 	lds	r27, 0x043C	; 0x80043c <pressure+0x3>
    7594:	89 2f       	mov	r24, r25
    7596:	9a 2f       	mov	r25, r26
    7598:	ab 2f       	mov	r26, r27
    759a:	bb 27       	eor	r27, r27
    759c:	a7 fd       	sbrc	r26, 7
    759e:	ba 95       	dec	r27
    75a0:	bf 93       	push	r27
    75a2:	af 93       	push	r26
    75a4:	9f 93       	push	r25
    75a6:	8f 93       	push	r24
    75a8:	cb 01       	movw	r24, r22
    75aa:	ba 01       	movw	r22, r20
    75ac:	24 e6       	ldi	r18, 0x64	; 100
    75ae:	30 e0       	ldi	r19, 0x00	; 0
    75b0:	40 e0       	ldi	r20, 0x00	; 0
    75b2:	50 e0       	ldi	r21, 0x00	; 0
    75b4:	da d2       	rcall	.+1460   	; 0x7b6a <__divmodsi4>
    75b6:	7f 93       	push	r23
    75b8:	6f 93       	push	r22
    75ba:	3f 93       	push	r19
    75bc:	2f 93       	push	r18
    75be:	87 e4       	ldi	r24, 0x47	; 71
    75c0:	92 e0       	ldi	r25, 0x02	; 2
    75c2:	9f 93       	push	r25
    75c4:	8f 93       	push	r24
    75c6:	ad d4       	rcall	.+2394   	; 0x7f22 <printf>
				printf("2,%d,%d,%d,%d,%d,%d|", raw_gas_vector[0], raw_gas_vector[1], raw_gas_vector[2], raw_gas_vector[3], raw_gas_vector[4], raw_gas_vector[5]);
    75c8:	8b 85       	ldd	r24, Y+11	; 0x0b
    75ca:	8f 93       	push	r24
    75cc:	8a 85       	ldd	r24, Y+10	; 0x0a
    75ce:	8f 93       	push	r24
    75d0:	89 85       	ldd	r24, Y+9	; 0x09
    75d2:	8f 93       	push	r24
    75d4:	88 85       	ldd	r24, Y+8	; 0x08
    75d6:	8f 93       	push	r24
    75d8:	8f 81       	ldd	r24, Y+7	; 0x07
    75da:	8f 93       	push	r24
    75dc:	8e 81       	ldd	r24, Y+6	; 0x06
    75de:	8f 93       	push	r24
    75e0:	8d 81       	ldd	r24, Y+5	; 0x05
    75e2:	8f 93       	push	r24
    75e4:	8c 81       	ldd	r24, Y+4	; 0x04
    75e6:	8f 93       	push	r24
    75e8:	8b 81       	ldd	r24, Y+3	; 0x03
    75ea:	8f 93       	push	r24
    75ec:	8a 81       	ldd	r24, Y+2	; 0x02
    75ee:	8f 93       	push	r24
    75f0:	89 81       	ldd	r24, Y+1	; 0x01
    75f2:	8f 93       	push	r24
    75f4:	88 81       	ld	r24, Y
    75f6:	8f 93       	push	r24
    75f8:	88 e5       	ldi	r24, 0x58	; 88
    75fa:	92 e0       	ldi	r25, 0x02	; 2
    75fc:	9f 93       	push	r25
    75fe:	8f 93       	push	r24
    7600:	90 d4       	rcall	.+2336   	; 0x7f22 <printf>
				printf("3,%d|",distance);
    7602:	80 91 25 04 	lds	r24, 0x0425	; 0x800425 <distance+0x1>
    7606:	8f 93       	push	r24
    7608:	80 91 24 04 	lds	r24, 0x0424	; 0x800424 <distance>
    760c:	8f 93       	push	r24
    760e:	8d e6       	ldi	r24, 0x6D	; 109
    7610:	92 e0       	ldi	r25, 0x02	; 2
    7612:	9f 93       	push	r25
    7614:	8f 93       	push	r24
    7616:	85 d4       	rcall	.+2314   	; 0x7f22 <printf>
				printf("4,%d,%d,%d|",latitude,longitude,altitude);
    7618:	8d b7       	in	r24, 0x3d	; 61
    761a:	9e b7       	in	r25, 0x3e	; 62
    761c:	80 96       	adiw	r24, 0x20	; 32
    761e:	0f b6       	in	r0, 0x3f	; 63
    7620:	f8 94       	cli
    7622:	9e bf       	out	0x3e, r25	; 62
    7624:	0f be       	out	0x3f, r0	; 63
    7626:	8d bf       	out	0x3d, r24	; 61
    7628:	8d e7       	ldi	r24, 0x7D	; 125
    762a:	94 e0       	ldi	r25, 0x04	; 4
    762c:	9f 93       	push	r25
    762e:	8f 93       	push	r24
    7630:	83 e7       	ldi	r24, 0x73	; 115
    7632:	94 e0       	ldi	r25, 0x04	; 4
    7634:	9f 93       	push	r25
    7636:	8f 93       	push	r24
    7638:	83 e9       	ldi	r24, 0x93	; 147
    763a:	94 e0       	ldi	r25, 0x04	; 4
    763c:	9f 93       	push	r25
    763e:	8f 93       	push	r24
    7640:	83 e7       	ldi	r24, 0x73	; 115
    7642:	92 e0       	ldi	r25, 0x02	; 2
    7644:	9f 93       	push	r25
    7646:	8f 93       	push	r24
    7648:	6c d4       	rcall	.+2264   	; 0x7f22 <printf>
    764a:	ad b7       	in	r26, 0x3d	; 61
    764c:	be b7       	in	r27, 0x3e	; 62
    764e:	18 96       	adiw	r26, 0x08	; 8
    7650:	0f b6       	in	r0, 0x3f	; 63
    7652:	f8 94       	cli
    7654:	be bf       	out	0x3e, r27	; 62
    7656:	0f be       	out	0x3f, r0	; 63
    7658:	ad bf       	out	0x3d, r26	; 61
			}
			//re-enable the GPS receiver & interrupt after processing all sensor data
			UCSR1B |= ((1<<RXCIE1)|(1<<RXEN1));
    765a:	e9 ec       	ldi	r30, 0xC9	; 201
    765c:	f0 e0       	ldi	r31, 0x00	; 0
    765e:	80 81       	ld	r24, Z
    7660:	80 69       	ori	r24, 0x90	; 144
    7662:	80 83       	st	Z, r24
    7664:	24 ce       	rjmp	.-952    	; 0x72ae <main+0xcc>

00007666 <__vector_default>:
						Interrupt Service Routines
*********************************************************************************
********************************************************************************/

ISR(BADISR_vect)
{
    7666:	1f 92       	push	r1
    7668:	0f 92       	push	r0
    766a:	0f b6       	in	r0, 0x3f	; 63
    766c:	0f 92       	push	r0
    766e:	11 24       	eor	r1, r1
	// Code should never reach this point.  This is a bad interrupt trap.
	SetBit(PORTB, PORTB2);
    7670:	2a 9a       	sbi	0x05, 2	; 5
    7672:	0f 90       	pop	r0
    7674:	0f be       	out	0x3f, r0	; 63
    7676:	0f 90       	pop	r0
    7678:	1f 90       	pop	r1
    767a:	18 95       	reti

0000767c <initialize_timer_counter_1>:
	Not using any of the other compare features, so all other CR bits are 0
	Finally, we have to enable the interrupt vector on compare register A
	TCCR1A = 0; Control Register A is reset to 0x00 on startup. */
	//  
	// Set the WGM mode and prescaler select in control register B
	TCCR1B = ((1<<WGM12) | (1<<CS12) | (1<<CS10));
    767c:	8d e0       	ldi	r24, 0x0D	; 13
    767e:	80 93 81 00 	sts	0x0081, r24	; 0x800081 <__TEXT_REGION_LENGTH__+0x7e0081>
	// TCCR1C = 0; Control Register C is reset to 0x00 on startup.
	// Now we need to enter out TOP value in OCR1A
	OCR1A = 19530;
    7682:	8a e4       	ldi	r24, 0x4A	; 74
    7684:	9c e4       	ldi	r25, 0x4C	; 76
    7686:	90 93 89 00 	sts	0x0089, r25	; 0x800089 <__TEXT_REGION_LENGTH__+0x7e0089>
    768a:	80 93 88 00 	sts	0x0088, r24	; 0x800088 <__TEXT_REGION_LENGTH__+0x7e0088>
    768e:	08 95       	ret

00007690 <__vector_16>:
*********************************************************************************
********************************************************************************/


// 100Hz timer interrupt generated by OC0A and used by the FATFS code.
EMPTY_INTERRUPT(TIMER0_COMPA_vect);
    7690:	18 95       	reti

00007692 <__vector_13>:
// }



ISR(TIMER1_COMPA_vect)
{
    7692:	1f 92       	push	r1
    7694:	0f 92       	push	r0
    7696:	0f b6       	in	r0, 0x3f	; 63
    7698:	0f 92       	push	r0
    769a:	11 24       	eor	r1, r1
    769c:	8f 93       	push	r24
    769e:	9f 93       	push	r25
	ToggleBit(PORTB, PORTB1); //for now, just toggle the green status LED
    76a0:	95 b1       	in	r25, 0x05	; 5
    76a2:	82 e0       	ldi	r24, 0x02	; 2
    76a4:	89 27       	eor	r24, r25
    76a6:	85 b9       	out	0x05, r24	; 5
	ItsTime = 1;
    76a8:	81 e0       	ldi	r24, 0x01	; 1
    76aa:	80 93 d1 03 	sts	0x03D1, r24	; 0x8003d1 <ItsTime>
}
    76ae:	9f 91       	pop	r25
    76b0:	8f 91       	pop	r24
    76b2:	0f 90       	pop	r0
    76b4:	0f be       	out	0x3f, r0	; 63
    76b6:	0f 90       	pop	r0
    76b8:	1f 90       	pop	r1
    76ba:	18 95       	reti

000076bc <TWI_Master_Initialise>:
void TWI_Start_Transceiver( void )
{
  while ( TWI_Transceiver_Busy() );             // Wait until TWI is ready for next transmission.
  TWI_statusReg.all = 0;      
  TWI_state         = TWI_NO_STATE ;
  TWCR = (1<<TWEN)|                             // TWI Interface enabled.
    76bc:	81 e1       	ldi	r24, 0x11	; 17
    76be:	80 93 b8 00 	sts	0x00B8, r24	; 0x8000b8 <__TEXT_REGION_LENGTH__+0x7e00b8>
    76c2:	8f ef       	ldi	r24, 0xFF	; 255
    76c4:	80 93 bb 00 	sts	0x00BB, r24	; 0x8000bb <__TEXT_REGION_LENGTH__+0x7e00bb>
    76c8:	84 e0       	ldi	r24, 0x04	; 4
    76ca:	80 93 bc 00 	sts	0x00BC, r24	; 0x8000bc <__TEXT_REGION_LENGTH__+0x7e00bc>
    76ce:	08 95       	ret

000076d0 <TWI_Transceiver_Busy>:
    76d0:	80 91 bc 00 	lds	r24, 0x00BC	; 0x8000bc <__TEXT_REGION_LENGTH__+0x7e00bc>
    76d4:	81 78       	andi	r24, 0x81	; 129
    76d6:	08 95       	ret

000076d8 <TWI_Start_Transceiver_With_Data>:
    76d8:	cf 93       	push	r28
    76da:	df 93       	push	r29
    76dc:	ec 01       	movw	r28, r24
    76de:	ec eb       	ldi	r30, 0xBC	; 188
    76e0:	f0 e0       	ldi	r31, 0x00	; 0
    76e2:	90 81       	ld	r25, Z
    76e4:	91 78       	andi	r25, 0x81	; 129
    76e6:	e9 f7       	brne	.-6      	; 0x76e2 <TWI_Start_Transceiver_With_Data+0xa>
    76e8:	60 93 86 02 	sts	0x0286, r22	; 0x800286 <TWI_msgSize>
    76ec:	88 81       	ld	r24, Y
    76ee:	80 93 87 02 	sts	0x0287, r24	; 0x800287 <TWI_buf>
    76f2:	80 fd       	sbrc	r24, 0
    76f4:	12 c0       	rjmp	.+36     	; 0x771a <TWI_Start_Transceiver_With_Data+0x42>
    76f6:	62 30       	cpi	r22, 0x02	; 2
    76f8:	80 f0       	brcs	.+32     	; 0x771a <TWI_Start_Transceiver_With_Data+0x42>
    76fa:	fe 01       	movw	r30, r28
    76fc:	31 96       	adiw	r30, 0x01	; 1
    76fe:	a8 e8       	ldi	r26, 0x88	; 136
    7700:	b2 e0       	ldi	r27, 0x02	; 2
    7702:	62 50       	subi	r22, 0x02	; 2
    7704:	26 2f       	mov	r18, r22
    7706:	30 e0       	ldi	r19, 0x00	; 0
    7708:	2e 5f       	subi	r18, 0xFE	; 254
    770a:	3f 4f       	sbci	r19, 0xFF	; 255
    770c:	2c 0f       	add	r18, r28
    770e:	3d 1f       	adc	r19, r29
    7710:	91 91       	ld	r25, Z+
    7712:	9d 93       	st	X+, r25
    7714:	e2 17       	cp	r30, r18
    7716:	f3 07       	cpc	r31, r19
    7718:	d9 f7       	brne	.-10     	; 0x7710 <TWI_Start_Transceiver_With_Data+0x38>
    771a:	10 92 85 02 	sts	0x0285, r1	; 0x800285 <TWI_statusReg>
    771e:	88 ef       	ldi	r24, 0xF8	; 248
    7720:	80 93 10 01 	sts	0x0110, r24	; 0x800110 <TWI_state>
    7724:	85 ea       	ldi	r24, 0xA5	; 165
    7726:	80 93 bc 00 	sts	0x00BC, r24	; 0x8000bc <__TEXT_REGION_LENGTH__+0x7e00bc>
    772a:	df 91       	pop	r29
    772c:	cf 91       	pop	r28
    772e:	08 95       	ret

00007730 <TWI_Get_Data_From_Transceiver>:
requested (including the address field) in the function call. The function will hold execution (loop)
until the TWI_ISR has completed with the previous operation, before reading out the data and returning.
If there was an error in the previous transmission the function will return the TWI error code.
****************************************************************************/
unsigned char TWI_Get_Data_From_Transceiver( unsigned char *msg, unsigned char msgSize )
{
    7730:	ac 01       	movw	r20, r24
/****************************************************************************
Call this function to test if the TWI_ISR is busy transmitting.
****************************************************************************/
unsigned char TWI_Transceiver_Busy( void )
{
  return ( TWCR & ((1<<TWIE)|(1<<TWINT)));                  // IF TWI Interrupt is enabled then the Transceiver is busy
    7732:	ec eb       	ldi	r30, 0xBC	; 188
    7734:	f0 e0       	ldi	r31, 0x00	; 0
    7736:	90 81       	ld	r25, Z
    7738:	91 78       	andi	r25, 0x81	; 129
****************************************************************************/
unsigned char TWI_Get_Data_From_Transceiver( unsigned char *msg, unsigned char msgSize )
{
  unsigned char i;

  while ( TWI_Transceiver_Busy() );             // Wait until TWI is ready for next transmission.
    773a:	e9 f7       	brne	.-6      	; 0x7736 <TWI_Get_Data_From_Transceiver+0x6>

  if( TWI_statusReg.lastTransOK )               // Last transmission competed successfully.              
    773c:	80 91 85 02 	lds	r24, 0x0285	; 0x800285 <TWI_statusReg>
    7740:	80 ff       	sbrs	r24, 0
    7742:	11 c0       	rjmp	.+34     	; 0x7766 <TWI_Get_Data_From_Transceiver+0x36>
  {                                             
    for ( i=0; i<msgSize; i++ )                 // Copy data from Transceiver buffer.
    7744:	66 23       	and	r22, r22
    7746:	79 f0       	breq	.+30     	; 0x7766 <TWI_Get_Data_From_Transceiver+0x36>
    7748:	a7 e8       	ldi	r26, 0x87	; 135
    774a:	b2 e0       	ldi	r27, 0x02	; 2
    774c:	fa 01       	movw	r30, r20
    774e:	61 50       	subi	r22, 0x01	; 1
    7750:	26 2f       	mov	r18, r22
    7752:	30 e0       	ldi	r19, 0x00	; 0
    7754:	2f 5f       	subi	r18, 0xFF	; 255
    7756:	3f 4f       	sbci	r19, 0xFF	; 255
    7758:	24 0f       	add	r18, r20
    775a:	35 1f       	adc	r19, r21
    {
      msg[ i ] = TWI_buf[ i ];
    775c:	9d 91       	ld	r25, X+
    775e:	91 93       	st	Z+, r25

  while ( TWI_Transceiver_Busy() );             // Wait until TWI is ready for next transmission.

  if( TWI_statusReg.lastTransOK )               // Last transmission competed successfully.              
  {                                             
    for ( i=0; i<msgSize; i++ )                 // Copy data from Transceiver buffer.
    7760:	e2 17       	cp	r30, r18
    7762:	f3 07       	cpc	r31, r19
    7764:	d9 f7       	brne	.-10     	; 0x775c <TWI_Get_Data_From_Transceiver+0x2c>
    {
      msg[ i ] = TWI_buf[ i ];
    }
  }
  return( TWI_statusReg.lastTransOK );                                   
    7766:	80 91 85 02 	lds	r24, 0x0285	; 0x800285 <TWI_statusReg>
}
    776a:	81 70       	andi	r24, 0x01	; 1
    776c:	08 95       	ret

0000776e <__vector_26>:
This function is the Interrupt Service Routine (ISR), and called when the TWI interrupt is triggered;
that is whenever a TWI event has occurred. This function should not be called directly from the main
application.
****************************************************************************/
ISR(TWI_vect)
{
    776e:	1f 92       	push	r1
    7770:	0f 92       	push	r0
    7772:	0f b6       	in	r0, 0x3f	; 63
    7774:	0f 92       	push	r0
    7776:	11 24       	eor	r1, r1
    7778:	0b b6       	in	r0, 0x3b	; 59
    777a:	0f 92       	push	r0
    777c:	2f 93       	push	r18
    777e:	3f 93       	push	r19
    7780:	8f 93       	push	r24
    7782:	9f 93       	push	r25
    7784:	af 93       	push	r26
    7786:	bf 93       	push	r27
    7788:	ef 93       	push	r30
    778a:	ff 93       	push	r31
  static unsigned char TWI_bufPtr;
  
  switch (TWSR)
    778c:	e0 91 b9 00 	lds	r30, 0x00B9	; 0x8000b9 <__TEXT_REGION_LENGTH__+0x7e00b9>
    7790:	8e 2f       	mov	r24, r30
    7792:	90 e0       	ldi	r25, 0x00	; 0
    7794:	fc 01       	movw	r30, r24
    7796:	38 97       	sbiw	r30, 0x08	; 8
    7798:	e1 35       	cpi	r30, 0x51	; 81
    779a:	f1 05       	cpc	r31, r1
    779c:	08 f0       	brcs	.+2      	; 0x77a0 <__vector_26+0x32>
    779e:	55 c0       	rjmp	.+170    	; 0x784a <__vector_26+0xdc>
    77a0:	ea 5b       	subi	r30, 0xBA	; 186
    77a2:	ff 4f       	sbci	r31, 0xFF	; 255
    77a4:	fe c1       	rjmp	.+1020   	; 0x7ba2 <__tablejump2__>
  {
    case TWI_START:             // START has been transmitted  
    case TWI_REP_START:         // Repeated START has been transmitted
      TWI_bufPtr = 0;                                     // Set buffer pointer to the TWI Address location
    77a6:	10 92 84 02 	sts	0x0284, r1	; 0x800284 <TWI_bufPtr.1555>
    case TWI_MTX_ADR_ACK:       // SLA+W has been transmitted and ACK received
    case TWI_MTX_DATA_ACK:      // Data byte has been transmitted and ACK received
      if (TWI_bufPtr < TWI_msgSize)
    77aa:	e0 91 84 02 	lds	r30, 0x0284	; 0x800284 <TWI_bufPtr.1555>
    77ae:	80 91 86 02 	lds	r24, 0x0286	; 0x800286 <TWI_msgSize>
    77b2:	e8 17       	cp	r30, r24
    77b4:	70 f4       	brcc	.+28     	; 0x77d2 <__vector_26+0x64>
      {
        TWDR = TWI_buf[TWI_bufPtr++];
    77b6:	81 e0       	ldi	r24, 0x01	; 1
    77b8:	8e 0f       	add	r24, r30
    77ba:	80 93 84 02 	sts	0x0284, r24	; 0x800284 <TWI_bufPtr.1555>
    77be:	f0 e0       	ldi	r31, 0x00	; 0
    77c0:	e9 57       	subi	r30, 0x79	; 121
    77c2:	fd 4f       	sbci	r31, 0xFD	; 253
    77c4:	80 81       	ld	r24, Z
    77c6:	80 93 bb 00 	sts	0x00BB, r24	; 0x8000bb <__TEXT_REGION_LENGTH__+0x7e00bb>
        TWCR = (1<<TWEN)|                                 // TWI Interface enabled
    77ca:	85 e8       	ldi	r24, 0x85	; 133
    77cc:	80 93 bc 00 	sts	0x00BC, r24	; 0x8000bc <__TEXT_REGION_LENGTH__+0x7e00bc>
    77d0:	43 c0       	rjmp	.+134    	; 0x7858 <__vector_26+0xea>
               (1<<TWIE)|(1<<TWINT)|                      // Enable TWI Interrupt and clear the flag to send byte
               (0<<TWEA)|(0<<TWSTA)|(0<<TWSTO)|           //
               (0<<TWWC);                                 //  
      }else                    // Send STOP after last byte
      {
        TWI_statusReg.lastTransOK = TRUE;                 // Set status bits to completed successfully. 
    77d2:	80 91 85 02 	lds	r24, 0x0285	; 0x800285 <TWI_statusReg>
    77d6:	81 60       	ori	r24, 0x01	; 1
    77d8:	80 93 85 02 	sts	0x0285, r24	; 0x800285 <TWI_statusReg>
        TWCR = (1<<TWEN)|                                 // TWI Interface enabled
    77dc:	84 e9       	ldi	r24, 0x94	; 148
    77de:	80 93 bc 00 	sts	0x00BC, r24	; 0x8000bc <__TEXT_REGION_LENGTH__+0x7e00bc>
    77e2:	3a c0       	rjmp	.+116    	; 0x7858 <__vector_26+0xea>
               (0<<TWEA)|(0<<TWSTA)|(1<<TWSTO)|           // Initiate a STOP condition.
               (0<<TWWC);                                 //
      }
      break;
    case TWI_MRX_DATA_ACK:      // Data byte has been received and ACK transmitted
      TWI_buf[TWI_bufPtr++] = TWDR;
    77e4:	e0 91 84 02 	lds	r30, 0x0284	; 0x800284 <TWI_bufPtr.1555>
    77e8:	81 e0       	ldi	r24, 0x01	; 1
    77ea:	8e 0f       	add	r24, r30
    77ec:	80 93 84 02 	sts	0x0284, r24	; 0x800284 <TWI_bufPtr.1555>
    77f0:	80 91 bb 00 	lds	r24, 0x00BB	; 0x8000bb <__TEXT_REGION_LENGTH__+0x7e00bb>
    77f4:	f0 e0       	ldi	r31, 0x00	; 0
    77f6:	e9 57       	subi	r30, 0x79	; 121
    77f8:	fd 4f       	sbci	r31, 0xFD	; 253
    77fa:	80 83       	st	Z, r24
    case TWI_MRX_ADR_ACK:       // SLA+R has been transmitted and ACK received
      if (TWI_bufPtr < (TWI_msgSize-1) )                  // Detect the last byte to NACK it.
    77fc:	20 91 84 02 	lds	r18, 0x0284	; 0x800284 <TWI_bufPtr.1555>
    7800:	30 e0       	ldi	r19, 0x00	; 0
    7802:	80 91 86 02 	lds	r24, 0x0286	; 0x800286 <TWI_msgSize>
    7806:	90 e0       	ldi	r25, 0x00	; 0
    7808:	01 97       	sbiw	r24, 0x01	; 1
    780a:	28 17       	cp	r18, r24
    780c:	39 07       	cpc	r19, r25
    780e:	24 f4       	brge	.+8      	; 0x7818 <__vector_26+0xaa>
      {
        TWCR = (1<<TWEN)|                                 // TWI Interface enabled
    7810:	85 ec       	ldi	r24, 0xC5	; 197
    7812:	80 93 bc 00 	sts	0x00BC, r24	; 0x8000bc <__TEXT_REGION_LENGTH__+0x7e00bc>
    7816:	20 c0       	rjmp	.+64     	; 0x7858 <__vector_26+0xea>
               (1<<TWIE)|(1<<TWINT)|                      // Enable TWI Interrupt and clear the flag to read next byte
               (1<<TWEA)|(0<<TWSTA)|(0<<TWSTO)|           // Send ACK after reception
               (0<<TWWC);                                 //  
      }else                    // Send NACK after next reception
      {
        TWCR = (1<<TWEN)|                                 // TWI Interface enabled
    7818:	85 e8       	ldi	r24, 0x85	; 133
    781a:	80 93 bc 00 	sts	0x00BC, r24	; 0x8000bc <__TEXT_REGION_LENGTH__+0x7e00bc>
    781e:	1c c0       	rjmp	.+56     	; 0x7858 <__vector_26+0xea>
               (0<<TWEA)|(0<<TWSTA)|(0<<TWSTO)|           // Send NACK after reception
               (0<<TWWC);                                 // 
      }    
      break; 
    case TWI_MRX_DATA_NACK:     // Data byte has been received and NACK transmitted
      TWI_buf[TWI_bufPtr] = TWDR;
    7820:	80 91 bb 00 	lds	r24, 0x00BB	; 0x8000bb <__TEXT_REGION_LENGTH__+0x7e00bb>
    7824:	e0 91 84 02 	lds	r30, 0x0284	; 0x800284 <TWI_bufPtr.1555>
    7828:	f0 e0       	ldi	r31, 0x00	; 0
    782a:	e9 57       	subi	r30, 0x79	; 121
    782c:	fd 4f       	sbci	r31, 0xFD	; 253
    782e:	80 83       	st	Z, r24
      TWI_statusReg.lastTransOK = TRUE;                 // Set status bits to completed successfully. 
    7830:	80 91 85 02 	lds	r24, 0x0285	; 0x800285 <TWI_statusReg>
    7834:	81 60       	ori	r24, 0x01	; 1
    7836:	80 93 85 02 	sts	0x0285, r24	; 0x800285 <TWI_statusReg>
      TWCR = (1<<TWEN)|                                 // TWI Interface enabled
    783a:	84 e9       	ldi	r24, 0x94	; 148
    783c:	80 93 bc 00 	sts	0x00BC, r24	; 0x8000bc <__TEXT_REGION_LENGTH__+0x7e00bc>
             (0<<TWIE)|(1<<TWINT)|                      // Disable TWI Interrupt and clear the flag
             (0<<TWEA)|(0<<TWSTA)|(1<<TWSTO)|           // Initiate a STOP condition.
             (0<<TWWC);                                 //
      break;      
    7840:	0b c0       	rjmp	.+22     	; 0x7858 <__vector_26+0xea>
    case TWI_ARB_LOST:          // Arbitration lost
      TWCR = (1<<TWEN)|                                 // TWI Interface enabled
    7842:	85 ea       	ldi	r24, 0xA5	; 165
    7844:	80 93 bc 00 	sts	0x00BC, r24	; 0x8000bc <__TEXT_REGION_LENGTH__+0x7e00bc>
             (1<<TWIE)|(1<<TWINT)|                      // Enable TWI Interrupt and clear the flag
             (0<<TWEA)|(1<<TWSTA)|(0<<TWSTO)|           // Initiate a (RE)START condition.
             (0<<TWWC);                                 //
      break;
    7848:	07 c0       	rjmp	.+14     	; 0x7858 <__vector_26+0xea>
    case TWI_MTX_ADR_NACK:      // SLA+W has been transmitted and NACK received
    case TWI_MRX_ADR_NACK:      // SLA+R has been transmitted and NACK received    
    case TWI_MTX_DATA_NACK:     // Data byte has been transmitted and NACK received
    case TWI_BUS_ERROR:         // Bus error due to an illegal START or STOP condition
    default:     
      TWI_state = TWSR;                                 // Store TWSR and automatically sets clears noErrors bit.
    784a:	80 91 b9 00 	lds	r24, 0x00B9	; 0x8000b9 <__TEXT_REGION_LENGTH__+0x7e00b9>
    784e:	80 93 10 01 	sts	0x0110, r24	; 0x800110 <TWI_state>
                                                        // Reset TWI Interface
      TWCR = (1<<TWEN)|                                 // Enable TWI-interface and release TWI pins
    7852:	84 e0       	ldi	r24, 0x04	; 4
    7854:	80 93 bc 00 	sts	0x00BC, r24	; 0x8000bc <__TEXT_REGION_LENGTH__+0x7e00bc>
             (0<<TWIE)|(0<<TWINT)|                      // Disable Interrupt
             (0<<TWEA)|(0<<TWSTA)|(0<<TWSTO)|           // No Signal requests
             (0<<TWWC);                                 //
  }
}
    7858:	ff 91       	pop	r31
    785a:	ef 91       	pop	r30
    785c:	bf 91       	pop	r27
    785e:	af 91       	pop	r26
    7860:	9f 91       	pop	r25
    7862:	8f 91       	pop	r24
    7864:	3f 91       	pop	r19
    7866:	2f 91       	pop	r18
    7868:	0f 90       	pop	r0
    786a:	0b be       	out	0x3b, r0	; 59
    786c:	0f 90       	pop	r0
    786e:	0f be       	out	0x3f, r0	; 63
    7870:	0f 90       	pop	r0
    7872:	1f 90       	pop	r1
    7874:	18 95       	reti

00007876 <USART0_init>:
void USART0_putstring(char* StringPtr) {
	while(*StringPtr != 0x00) {
		USART0_TransmitByte(*StringPtr);
		StringPtr++;
	}
}
    7876:	90 93 c5 00 	sts	0x00C5, r25	; 0x8000c5 <__TEXT_REGION_LENGTH__+0x7e00c5>
    787a:	80 93 c4 00 	sts	0x00C4, r24	; 0x8000c4 <__TEXT_REGION_LENGTH__+0x7e00c4>
    787e:	88 e0       	ldi	r24, 0x08	; 8
    7880:	80 93 c1 00 	sts	0x00C1, r24	; 0x8000c1 <__TEXT_REGION_LENGTH__+0x7e00c1>
    7884:	86 e0       	ldi	r24, 0x06	; 6
    7886:	80 93 c2 00 	sts	0x00C2, r24	; 0x8000c2 <__TEXT_REGION_LENGTH__+0x7e00c2>
    788a:	10 92 99 03 	sts	0x0399, r1	; 0x800399 <UART0_RxTail>
    788e:	10 92 9a 03 	sts	0x039A, r1	; 0x80039a <UART0_RxHead>
    7892:	10 92 97 02 	sts	0x0297, r1	; 0x800297 <UART0_TxTail>
    7896:	10 92 98 02 	sts	0x0298, r1	; 0x800298 <UART0_TxHead>
    789a:	08 95       	ret

0000789c <USART0_Transmit_IO>:
    789c:	91 e0       	ldi	r25, 0x01	; 1
    789e:	90 93 9b 03 	sts	0x039B, r25	; 0x80039b <UART0TransmitInProgress>
    78a2:	20 91 98 02 	lds	r18, 0x0298	; 0x800298 <UART0_TxHead>
    78a6:	2f 5f       	subi	r18, 0xFF	; 255
    78a8:	90 91 97 02 	lds	r25, 0x0297	; 0x800297 <UART0_TxTail>
    78ac:	29 17       	cp	r18, r25
    78ae:	e1 f3       	breq	.-8      	; 0x78a8 <USART0_Transmit_IO+0xc>
    78b0:	e2 2f       	mov	r30, r18
    78b2:	f0 e0       	ldi	r31, 0x00	; 0
    78b4:	e7 56       	subi	r30, 0x67	; 103
    78b6:	fd 4f       	sbci	r31, 0xFD	; 253
    78b8:	80 83       	st	Z, r24
    78ba:	20 93 98 02 	sts	0x0298, r18	; 0x800298 <UART0_TxHead>
    78be:	e1 ec       	ldi	r30, 0xC1	; 193
    78c0:	f0 e0       	ldi	r31, 0x00	; 0
    78c2:	80 81       	ld	r24, Z
    78c4:	80 62       	ori	r24, 0x20	; 32
    78c6:	80 83       	st	Z, r24
    78c8:	80 e0       	ldi	r24, 0x00	; 0
    78ca:	90 e0       	ldi	r25, 0x00	; 0
    78cc:	08 95       	ret

000078ce <__vector_21>:
	// Store received data in buffer 
	UART0_RxBuf[tmphead] = data;
}*/

ISR(USART0_UDRE_vect)
{
    78ce:	1f 92       	push	r1
    78d0:	0f 92       	push	r0
    78d2:	0f b6       	in	r0, 0x3f	; 63
    78d4:	0f 92       	push	r0
    78d6:	11 24       	eor	r1, r1
    78d8:	0b b6       	in	r0, 0x3b	; 59
    78da:	0f 92       	push	r0
    78dc:	8f 93       	push	r24
    78de:	9f 93       	push	r25
    78e0:	ef 93       	push	r30
    78e2:	ff 93       	push	r31
	unsigned char tmptail;
	// Check if all data is transmitted 
	if (UART0_TxHead != UART0_TxTail) {
    78e4:	90 91 98 02 	lds	r25, 0x0298	; 0x800298 <UART0_TxHead>
    78e8:	80 91 97 02 	lds	r24, 0x0297	; 0x800297 <UART0_TxTail>
    78ec:	98 17       	cp	r25, r24
    78ee:	61 f0       	breq	.+24     	; 0x7908 <__vector_21+0x3a>
		// Calculate buffer index
		tmptail = ( UART0_TxTail + 1 ) & UART0_TX_BUFFER_MASK;
    78f0:	e0 91 97 02 	lds	r30, 0x0297	; 0x800297 <UART0_TxTail>
    78f4:	ef 5f       	subi	r30, 0xFF	; 255
		// Store new index 
		UART0_TxTail = tmptail;
    78f6:	e0 93 97 02 	sts	0x0297, r30	; 0x800297 <UART0_TxTail>
		// Start transmission 
		UDR0 = UART0_TxBuf[tmptail];
    78fa:	f0 e0       	ldi	r31, 0x00	; 0
    78fc:	e7 56       	subi	r30, 0x67	; 103
    78fe:	fd 4f       	sbci	r31, 0xFD	; 253
    7900:	80 81       	ld	r24, Z
    7902:	80 93 c6 00 	sts	0x00C6, r24	; 0x8000c6 <__TEXT_REGION_LENGTH__+0x7e00c6>
    7906:	07 c0       	rjmp	.+14     	; 0x7916 <__vector_21+0x48>
		} 
		else {
		// Disable UDRE interrupt 
		UCSR0B &= ~(1<<UDRIE0);
    7908:	e1 ec       	ldi	r30, 0xC1	; 193
    790a:	f0 e0       	ldi	r31, 0x00	; 0
    790c:	80 81       	ld	r24, Z
    790e:	8f 7d       	andi	r24, 0xDF	; 223
    7910:	80 83       	st	Z, r24
		// Indicate transmission is complete
		UART0TransmitInProgress = 0;
    7912:	10 92 9b 03 	sts	0x039B, r1	; 0x80039b <UART0TransmitInProgress>
	}
    7916:	ff 91       	pop	r31
    7918:	ef 91       	pop	r30
    791a:	9f 91       	pop	r25
    791c:	8f 91       	pop	r24
    791e:	0f 90       	pop	r0
    7920:	0b be       	out	0x3b, r0	; 59
    7922:	0f 90       	pop	r0
    7924:	0f be       	out	0x3f, r0	; 63
    7926:	0f 90       	pop	r0
    7928:	1f 90       	pop	r1
    792a:	18 95       	reti

0000792c <USART1_init>:
void USART1_putstring(char* StringPtr) {
	while(*StringPtr != 0x00) {
		USART1_TransmitByte(*StringPtr);
		StringPtr++;
	}
}
    792c:	90 93 cd 00 	sts	0x00CD, r25	; 0x8000cd <__TEXT_REGION_LENGTH__+0x7e00cd>
    7930:	80 93 cc 00 	sts	0x00CC, r24	; 0x8000cc <__TEXT_REGION_LENGTH__+0x7e00cc>
    7934:	80 e9       	ldi	r24, 0x90	; 144
    7936:	80 93 c9 00 	sts	0x00C9, r24	; 0x8000c9 <__TEXT_REGION_LENGTH__+0x7e00c9>
    793a:	86 e0       	ldi	r24, 0x06	; 6
    793c:	80 93 ca 00 	sts	0x00CA, r24	; 0x8000ca <__TEXT_REGION_LENGTH__+0x7e00ca>
    7940:	10 92 a6 03 	sts	0x03A6, r1	; 0x8003a6 <UART1_RxTail>
    7944:	10 92 a7 03 	sts	0x03A7, r1	; 0x8003a7 <UART1_RxHead>
    7948:	10 92 a4 03 	sts	0x03A4, r1	; 0x8003a4 <UART1_TxTail>
    794c:	10 92 a5 03 	sts	0x03A5, r1	; 0x8003a5 <UART1_TxHead>
    7950:	08 95       	ret

00007952 <__vector_28>:
*********************************************************************************
********************************************************************************/


ISR(USART1_RX_vect)
{
    7952:	1f 92       	push	r1
    7954:	0f 92       	push	r0
    7956:	0f b6       	in	r0, 0x3f	; 63
    7958:	0f 92       	push	r0
    795a:	11 24       	eor	r1, r1
    795c:	0b b6       	in	r0, 0x3b	; 59
    795e:	0f 92       	push	r0
    7960:	2f 93       	push	r18
    7962:	3f 93       	push	r19
    7964:	4f 93       	push	r20
    7966:	5f 93       	push	r21
    7968:	6f 93       	push	r22
    796a:	7f 93       	push	r23
    796c:	8f 93       	push	r24
    796e:	9f 93       	push	r25
    7970:	af 93       	push	r26
    7972:	bf 93       	push	r27
    7974:	cf 93       	push	r28
    7976:	df 93       	push	r29
    7978:	ef 93       	push	r30
    797a:	ff 93       	push	r31
	unsigned char data;
	unsigned char tmphead;
	unsigned char i;
	// Read the received data 
	data = UDR1;
    797c:	80 91 ce 00 	lds	r24, 0x00CE	; 0x8000ce <__TEXT_REGION_LENGTH__+0x7e00ce>
	// Calculate buffer index 
	tmphead = (UART1_RxHead + 1) & UART1_RX_BUFFER_MASK;
    7980:	90 91 a7 03 	lds	r25, 0x03A7	; 0x8003a7 <UART1_RxHead>
    7984:	61 e0       	ldi	r22, 0x01	; 1
    7986:	69 0f       	add	r22, r25
	// Store new index 
	UART1_RxHead = tmphead;
    7988:	60 93 a7 03 	sts	0x03A7, r22	; 0x8003a7 <UART1_RxHead>

	if (tmphead == UART1_RxTail) {
    798c:	90 91 a6 03 	lds	r25, 0x03A6	; 0x8003a6 <UART1_RxTail>
		// ERROR! Receive buffer overflow 
	}
	// Store received data in buffer 
	UART1_RxBuf[tmphead] = data;
    7990:	e6 2f       	mov	r30, r22
    7992:	f0 e0       	ldi	r31, 0x00	; 0
    7994:	e6 53       	subi	r30, 0x36	; 54
    7996:	fb 4f       	sbci	r31, 0xFB	; 251
    7998:	80 83       	st	Z, r24
	commaCount = 0;
    799a:	10 92 a3 03 	sts	0x03A3, r1	; 0x8003a3 <commaCount+0x1>
    799e:	10 92 a2 03 	sts	0x03A2, r1	; 0x8003a2 <commaCount>
	if (data == 10)
    79a2:	8a 30       	cpi	r24, 0x0A	; 10
    79a4:	09 f0       	breq	.+2      	; 0x79a8 <__vector_28+0x56>
    79a6:	a9 c0       	rjmp	.+338    	; 0x7afa <__vector_28+0x1a8>
	{
		//USART0_TransmitByte('n');
		if (UART1_RxBuf[5] == 'G')
    79a8:	80 91 cf 04 	lds	r24, 0x04CF	; 0x8004cf <UART1_RxBuf+0x5>
    79ac:	87 34       	cpi	r24, 0x47	; 71
    79ae:	09 f0       	breq	.+2      	; 0x79b2 <__vector_28+0x60>
    79b0:	92 c0       	rjmp	.+292    	; 0x7ad6 <__vector_28+0x184>
    79b2:	e0 e0       	ldi	r30, 0x00	; 0
						startLong = i;
						// If the latitude data is longer than a character or two, we have GPS lock.  
						// Test for it here, set a flag, and light the blue LED.
						if ((startLong - startLat) >=3) 
						{
							GPSlock=1;
    79b4:	71 e0       	ldi	r23, 0x01	; 1
		if (UART1_RxBuf[5] == 'G')
		{
			//USART0_TransmitByte(UART1_RxBuf[5]);
			for (i = 0; i<= tmphead; i++)
			{
				messageWant[i] = UART1_RxBuf[i+1]; //UART1_RxBuf[i];
    79b6:	8e 2f       	mov	r24, r30
    79b8:	90 e0       	ldi	r25, 0x00	; 0
    79ba:	ac 01       	movw	r20, r24
    79bc:	4f 5f       	subi	r20, 0xFF	; 255
    79be:	5f 4f       	sbci	r21, 0xFF	; 255
    79c0:	da 01       	movw	r26, r20
    79c2:	a6 53       	subi	r26, 0x36	; 54
    79c4:	bb 4f       	sbci	r27, 0xFB	; 251
    79c6:	2c 91       	ld	r18, X
    79c8:	dc 01       	movw	r26, r24
    79ca:	a6 53       	subi	r26, 0x36	; 54
    79cc:	ba 4f       	sbci	r27, 0xFA	; 250
    79ce:	2c 93       	st	X, r18
				if(UART1_RxBuf[i+1] == ',')
    79d0:	2c 32       	cpi	r18, 0x2C	; 44
    79d2:	a9 f5       	brne	.+106    	; 0x7a3e <__vector_28+0xec>
				{
					commaCount = commaCount + 1;
    79d4:	20 91 a2 03 	lds	r18, 0x03A2	; 0x8003a2 <commaCount>
    79d8:	30 91 a3 03 	lds	r19, 0x03A3	; 0x8003a3 <commaCount+0x1>
    79dc:	2f 5f       	subi	r18, 0xFF	; 255
    79de:	3f 4f       	sbci	r19, 0xFF	; 255
    79e0:	30 93 a3 03 	sts	0x03A3, r19	; 0x8003a3 <commaCount+0x1>
    79e4:	20 93 a2 03 	sts	0x03A2, r18	; 0x8003a2 <commaCount>
					if (commaCount == 2)
    79e8:	22 30       	cpi	r18, 0x02	; 2
    79ea:	31 05       	cpc	r19, r1
    79ec:	29 f4       	brne	.+10     	; 0x79f8 <__vector_28+0xa6>
					{
						startLat = i;
    79ee:	90 93 a1 03 	sts	0x03A1, r25	; 0x8003a1 <startLat+0x1>
    79f2:	80 93 a0 03 	sts	0x03A0, r24	; 0x8003a0 <startLat>
    79f6:	18 c0       	rjmp	.+48     	; 0x7a28 <__vector_28+0xd6>
					}
					if (commaCount == 4)
    79f8:	24 30       	cpi	r18, 0x04	; 4
    79fa:	31 05       	cpc	r19, r1
    79fc:	09 f0       	breq	.+2      	; 0x7a00 <__vector_28+0xae>
    79fe:	75 c0       	rjmp	.+234    	; 0x7aea <__vector_28+0x198>
					{
						startLong = i;
    7a00:	90 93 9f 03 	sts	0x039F, r25	; 0x80039f <startLong+0x1>
    7a04:	80 93 9e 03 	sts	0x039E, r24	; 0x80039e <startLong>
						// If the latitude data is longer than a character or two, we have GPS lock.  
						// Test for it here, set a flag, and light the blue LED.
						if ((startLong - startLat) >=3) 
    7a08:	20 91 a0 03 	lds	r18, 0x03A0	; 0x8003a0 <startLat>
    7a0c:	30 91 a1 03 	lds	r19, 0x03A1	; 0x8003a1 <startLat+0x1>
    7a10:	dc 01       	movw	r26, r24
    7a12:	a2 1b       	sub	r26, r18
    7a14:	b3 0b       	sbc	r27, r19
    7a16:	13 97       	sbiw	r26, 0x03	; 3
    7a18:	24 f0       	brlt	.+8      	; 0x7a22 <__vector_28+0xd0>
						{
							GPSlock=1;
    7a1a:	70 93 72 04 	sts	0x0472, r23	; 0x800472 <GPSlock>
							SetBit(PORTB, PORTB2);
    7a1e:	2a 9a       	sbi	0x05, 2	; 5
    7a20:	03 c0       	rjmp	.+6      	; 0x7a28 <__vector_28+0xd6>
						} 
						else 
						// If lock is lost, clear the flag and clear the LED.
						{
							GPSlock=0;
    7a22:	10 92 72 04 	sts	0x0472, r1	; 0x800472 <GPSlock>
							ClearBit(PORTB, PORTB2);
    7a26:	2a 98       	cbi	0x05, 2	; 5
						}
					}
					if (commaCount == 9)
    7a28:	20 91 a2 03 	lds	r18, 0x03A2	; 0x8003a2 <commaCount>
    7a2c:	30 91 a3 03 	lds	r19, 0x03A3	; 0x8003a3 <commaCount+0x1>
    7a30:	29 30       	cpi	r18, 0x09	; 9
    7a32:	31 05       	cpc	r19, r1
    7a34:	21 f4       	brne	.+8      	; 0x7a3e <__vector_28+0xec>
					{
						startLong = i;
    7a36:	90 93 9f 03 	sts	0x039F, r25	; 0x80039f <startLong+0x1>
    7a3a:	80 93 9e 03 	sts	0x039E, r24	; 0x80039e <startLong>
					}
				}
				if (commaCount == 2)
    7a3e:	20 91 a2 03 	lds	r18, 0x03A2	; 0x8003a2 <commaCount>
    7a42:	30 91 a3 03 	lds	r19, 0x03A3	; 0x8003a3 <commaCount+0x1>
    7a46:	22 30       	cpi	r18, 0x02	; 2
    7a48:	31 05       	cpc	r19, r1
    7a4a:	79 f4       	brne	.+30     	; 0x7a6a <__vector_28+0x118>
				{
					latitude[i-startLat] = UART1_RxBuf[i+1];
    7a4c:	20 91 a0 03 	lds	r18, 0x03A0	; 0x8003a0 <startLat>
    7a50:	30 91 a1 03 	lds	r19, 0x03A1	; 0x8003a1 <startLat+0x1>
    7a54:	82 1b       	sub	r24, r18
    7a56:	93 0b       	sbc	r25, r19
    7a58:	dc 01       	movw	r26, r24
    7a5a:	ad 56       	subi	r26, 0x6D	; 109
    7a5c:	bb 4f       	sbci	r27, 0xFB	; 251
    7a5e:	ea 01       	movw	r28, r20
    7a60:	c6 53       	subi	r28, 0x36	; 54
    7a62:	db 4f       	sbci	r29, 0xFB	; 251
    7a64:	88 81       	ld	r24, Y
    7a66:	8c 93       	st	X, r24
    7a68:	23 c0       	rjmp	.+70     	; 0x7ab0 <__vector_28+0x15e>
				}
				if (commaCount == 4)
    7a6a:	24 30       	cpi	r18, 0x04	; 4
    7a6c:	31 05       	cpc	r19, r1
    7a6e:	79 f4       	brne	.+30     	; 0x7a8e <__vector_28+0x13c>
				{
					longitude[i-startLong] = UART1_RxBuf[i+1];
    7a70:	20 91 9e 03 	lds	r18, 0x039E	; 0x80039e <startLong>
    7a74:	30 91 9f 03 	lds	r19, 0x039F	; 0x80039f <startLong+0x1>
    7a78:	82 1b       	sub	r24, r18
    7a7a:	93 0b       	sbc	r25, r19
    7a7c:	dc 01       	movw	r26, r24
    7a7e:	ad 58       	subi	r26, 0x8D	; 141
    7a80:	bb 4f       	sbci	r27, 0xFB	; 251
    7a82:	ea 01       	movw	r28, r20
    7a84:	c6 53       	subi	r28, 0x36	; 54
    7a86:	db 4f       	sbci	r29, 0xFB	; 251
    7a88:	88 81       	ld	r24, Y
    7a8a:	8c 93       	st	X, r24
    7a8c:	11 c0       	rjmp	.+34     	; 0x7ab0 <__vector_28+0x15e>
				}
				if (commaCount == 9)
    7a8e:	29 30       	cpi	r18, 0x09	; 9
    7a90:	31 05       	cpc	r19, r1
    7a92:	71 f4       	brne	.+28     	; 0x7ab0 <__vector_28+0x15e>
				{
					altitude[i-startAlt] = UART1_RxBuf[i+1];
    7a94:	20 91 9c 03 	lds	r18, 0x039C	; 0x80039c <startAlt>
    7a98:	30 91 9d 03 	lds	r19, 0x039D	; 0x80039d <startAlt+0x1>
    7a9c:	82 1b       	sub	r24, r18
    7a9e:	93 0b       	sbc	r25, r19
    7aa0:	dc 01       	movw	r26, r24
    7aa2:	a3 58       	subi	r26, 0x83	; 131
    7aa4:	bb 4f       	sbci	r27, 0xFB	; 251
    7aa6:	ea 01       	movw	r28, r20
    7aa8:	c6 53       	subi	r28, 0x36	; 54
    7aaa:	db 4f       	sbci	r29, 0xFB	; 251
    7aac:	88 81       	ld	r24, Y
    7aae:	8c 93       	st	X, r24
	{
		//USART0_TransmitByte('n');
		if (UART1_RxBuf[5] == 'G')
		{
			//USART0_TransmitByte(UART1_RxBuf[5]);
			for (i = 0; i<= tmphead; i++)
    7ab0:	ef 5f       	subi	r30, 0xFF	; 255
    7ab2:	6e 17       	cp	r22, r30
    7ab4:	08 f0       	brcs	.+2      	; 0x7ab8 <__vector_28+0x166>
    7ab6:	7f cf       	rjmp	.-258    	; 0x79b6 <__vector_28+0x64>
				{
					altitude[i-startAlt] = UART1_RxBuf[i+1];
				}

			}
			messageWant[i-3]=0x00; //This sets the end of the string after the checksum, removing the CR/LF codes from the string.
    7ab8:	f0 e0       	ldi	r31, 0x00	; 0
    7aba:	e9 53       	subi	r30, 0x39	; 57
    7abc:	fa 4f       	sbci	r31, 0xFA	; 250
    7abe:	10 82       	st	Z, r1
 			UCSR1B &= !((1<<RXCIE1)|(1<<RXEN1));  //Clear the receive interrupt on USART 1 until we're done reading all other sensors.
    7ac0:	e9 ec       	ldi	r30, 0xC9	; 201
    7ac2:	f0 e0       	ldi	r31, 0x00	; 0
    7ac4:	80 81       	ld	r24, Z
    7ac6:	10 82       	st	Z, r1
 			ItsTime = 1;
    7ac8:	81 e0       	ldi	r24, 0x01	; 1
    7aca:	80 93 d1 03 	sts	0x03D1, r24	; 0x8003d1 <ItsTime>
 			ToggleBit(PORTB, PORTB1);
    7ace:	95 b1       	in	r25, 0x05	; 5
    7ad0:	82 e0       	ldi	r24, 0x02	; 2
    7ad2:	89 27       	eor	r24, r25
    7ad4:	85 b9       	out	0x05, r24	; 5
		}
		UART1_RxTail = 0;
    7ad6:	10 92 a6 03 	sts	0x03A6, r1	; 0x8003a6 <UART1_RxTail>
		UART1_RxHead = 0;
    7ada:	10 92 a7 03 	sts	0x03A7, r1	; 0x8003a7 <UART1_RxHead>
    7ade:	0d c0       	rjmp	.+26     	; 0x7afa <__vector_28+0x1a8>
					if (commaCount == 9)
					{
						startLong = i;
					}
				}
				if (commaCount == 2)
    7ae0:	20 91 a2 03 	lds	r18, 0x03A2	; 0x8003a2 <commaCount>
    7ae4:	30 91 a3 03 	lds	r19, 0x03A3	; 0x8003a3 <commaCount+0x1>
    7ae8:	d2 cf       	rjmp	.-92     	; 0x7a8e <__vector_28+0x13c>
						{
							GPSlock=0;
							ClearBit(PORTB, PORTB2);
						}
					}
					if (commaCount == 9)
    7aea:	20 91 a2 03 	lds	r18, 0x03A2	; 0x8003a2 <commaCount>
    7aee:	30 91 a3 03 	lds	r19, 0x03A3	; 0x8003a3 <commaCount+0x1>
    7af2:	29 30       	cpi	r18, 0x09	; 9
    7af4:	31 05       	cpc	r19, r1
    7af6:	a1 f7       	brne	.-24     	; 0x7ae0 <__vector_28+0x18e>
    7af8:	9e cf       	rjmp	.-196    	; 0x7a36 <__vector_28+0xe4>
 			ToggleBit(PORTB, PORTB1);
		}
		UART1_RxTail = 0;
		UART1_RxHead = 0;
	}
}
    7afa:	ff 91       	pop	r31
    7afc:	ef 91       	pop	r30
    7afe:	df 91       	pop	r29
    7b00:	cf 91       	pop	r28
    7b02:	bf 91       	pop	r27
    7b04:	af 91       	pop	r26
    7b06:	9f 91       	pop	r25
    7b08:	8f 91       	pop	r24
    7b0a:	7f 91       	pop	r23
    7b0c:	6f 91       	pop	r22
    7b0e:	5f 91       	pop	r21
    7b10:	4f 91       	pop	r20
    7b12:	3f 91       	pop	r19
    7b14:	2f 91       	pop	r18
    7b16:	0f 90       	pop	r0
    7b18:	0b be       	out	0x3b, r0	; 59
    7b1a:	0f 90       	pop	r0
    7b1c:	0f be       	out	0x3f, r0	; 63
    7b1e:	0f 90       	pop	r0
    7b20:	1f 90       	pop	r1
    7b22:	18 95       	reti

00007b24 <__mulsi3>:
    7b24:	db 01       	movw	r26, r22
    7b26:	8f 93       	push	r24
    7b28:	9f 93       	push	r25
    7b2a:	44 d0       	rcall	.+136    	; 0x7bb4 <__muluhisi3>
    7b2c:	bf 91       	pop	r27
    7b2e:	af 91       	pop	r26
    7b30:	a2 9f       	mul	r26, r18
    7b32:	80 0d       	add	r24, r0
    7b34:	91 1d       	adc	r25, r1
    7b36:	a3 9f       	mul	r26, r19
    7b38:	90 0d       	add	r25, r0
    7b3a:	b2 9f       	mul	r27, r18
    7b3c:	90 0d       	add	r25, r0
    7b3e:	11 24       	eor	r1, r1
    7b40:	08 95       	ret

00007b42 <__udivmodhi4>:
    7b42:	aa 1b       	sub	r26, r26
    7b44:	bb 1b       	sub	r27, r27
    7b46:	51 e1       	ldi	r21, 0x11	; 17
    7b48:	07 c0       	rjmp	.+14     	; 0x7b58 <__udivmodhi4_ep>

00007b4a <__udivmodhi4_loop>:
    7b4a:	aa 1f       	adc	r26, r26
    7b4c:	bb 1f       	adc	r27, r27
    7b4e:	a6 17       	cp	r26, r22
    7b50:	b7 07       	cpc	r27, r23
    7b52:	10 f0       	brcs	.+4      	; 0x7b58 <__udivmodhi4_ep>
    7b54:	a6 1b       	sub	r26, r22
    7b56:	b7 0b       	sbc	r27, r23

00007b58 <__udivmodhi4_ep>:
    7b58:	88 1f       	adc	r24, r24
    7b5a:	99 1f       	adc	r25, r25
    7b5c:	5a 95       	dec	r21
    7b5e:	a9 f7       	brne	.-22     	; 0x7b4a <__udivmodhi4_loop>
    7b60:	80 95       	com	r24
    7b62:	90 95       	com	r25
    7b64:	bc 01       	movw	r22, r24
    7b66:	cd 01       	movw	r24, r26
    7b68:	08 95       	ret

00007b6a <__divmodsi4>:
    7b6a:	05 2e       	mov	r0, r21
    7b6c:	97 fb       	bst	r25, 7
    7b6e:	16 f4       	brtc	.+4      	; 0x7b74 <__divmodsi4+0xa>
    7b70:	00 94       	com	r0
    7b72:	0f d0       	rcall	.+30     	; 0x7b92 <__negsi2>
    7b74:	57 fd       	sbrc	r21, 7
    7b76:	05 d0       	rcall	.+10     	; 0x7b82 <__divmodsi4_neg2>
    7b78:	a3 d1       	rcall	.+838    	; 0x7ec0 <__udivmodsi4>
    7b7a:	07 fc       	sbrc	r0, 7
    7b7c:	02 d0       	rcall	.+4      	; 0x7b82 <__divmodsi4_neg2>
    7b7e:	46 f4       	brtc	.+16     	; 0x7b90 <__divmodsi4_exit>
    7b80:	08 c0       	rjmp	.+16     	; 0x7b92 <__negsi2>

00007b82 <__divmodsi4_neg2>:
    7b82:	50 95       	com	r21
    7b84:	40 95       	com	r20
    7b86:	30 95       	com	r19
    7b88:	21 95       	neg	r18
    7b8a:	3f 4f       	sbci	r19, 0xFF	; 255
    7b8c:	4f 4f       	sbci	r20, 0xFF	; 255
    7b8e:	5f 4f       	sbci	r21, 0xFF	; 255

00007b90 <__divmodsi4_exit>:
    7b90:	08 95       	ret

00007b92 <__negsi2>:
    7b92:	90 95       	com	r25
    7b94:	80 95       	com	r24
    7b96:	70 95       	com	r23
    7b98:	61 95       	neg	r22
    7b9a:	7f 4f       	sbci	r23, 0xFF	; 255
    7b9c:	8f 4f       	sbci	r24, 0xFF	; 255
    7b9e:	9f 4f       	sbci	r25, 0xFF	; 255
    7ba0:	08 95       	ret

00007ba2 <__tablejump2__>:
    7ba2:	ee 0f       	add	r30, r30
    7ba4:	ff 1f       	adc	r31, r31
    7ba6:	00 24       	eor	r0, r0
    7ba8:	00 1c       	adc	r0, r0
    7baa:	0b be       	out	0x3b, r0	; 59
    7bac:	07 90       	elpm	r0, Z+
    7bae:	f6 91       	elpm	r31, Z
    7bb0:	e0 2d       	mov	r30, r0
    7bb2:	09 94       	ijmp

00007bb4 <__muluhisi3>:
    7bb4:	a7 d1       	rcall	.+846    	; 0x7f04 <__umulhisi3>
    7bb6:	a5 9f       	mul	r26, r21
    7bb8:	90 0d       	add	r25, r0
    7bba:	b4 9f       	mul	r27, r20
    7bbc:	90 0d       	add	r25, r0
    7bbe:	a4 9f       	mul	r26, r20
    7bc0:	80 0d       	add	r24, r0
    7bc2:	91 1d       	adc	r25, r1
    7bc4:	11 24       	eor	r1, r1
    7bc6:	08 95       	ret

00007bc8 <__mulshisi3>:
    7bc8:	b7 ff       	sbrs	r27, 7
    7bca:	f4 cf       	rjmp	.-24     	; 0x7bb4 <__muluhisi3>

00007bcc <__mulohisi3>:
    7bcc:	f3 df       	rcall	.-26     	; 0x7bb4 <__muluhisi3>
    7bce:	82 1b       	sub	r24, r18
    7bd0:	93 0b       	sbc	r25, r19
    7bd2:	08 95       	ret

00007bd4 <__muldi3>:
    7bd4:	df 93       	push	r29
    7bd6:	cf 93       	push	r28
    7bd8:	1f 93       	push	r17
    7bda:	0f 93       	push	r16
    7bdc:	9a 9d       	mul	r25, r10
    7bde:	f0 2d       	mov	r31, r0
    7be0:	21 9f       	mul	r18, r17
    7be2:	f0 0d       	add	r31, r0
    7be4:	8b 9d       	mul	r24, r11
    7be6:	f0 0d       	add	r31, r0
    7be8:	8a 9d       	mul	r24, r10
    7bea:	e0 2d       	mov	r30, r0
    7bec:	f1 0d       	add	r31, r1
    7bee:	03 9f       	mul	r16, r19
    7bf0:	f0 0d       	add	r31, r0
    7bf2:	02 9f       	mul	r16, r18
    7bf4:	e0 0d       	add	r30, r0
    7bf6:	f1 1d       	adc	r31, r1
    7bf8:	4e 9d       	mul	r20, r14
    7bfa:	e0 0d       	add	r30, r0
    7bfc:	f1 1d       	adc	r31, r1
    7bfe:	5e 9d       	mul	r21, r14
    7c00:	f0 0d       	add	r31, r0
    7c02:	4f 9d       	mul	r20, r15
    7c04:	f0 0d       	add	r31, r0
    7c06:	7f 93       	push	r23
    7c08:	6f 93       	push	r22
    7c0a:	bf 92       	push	r11
    7c0c:	af 92       	push	r10
    7c0e:	5f 93       	push	r21
    7c10:	4f 93       	push	r20
    7c12:	d5 01       	movw	r26, r10
    7c14:	77 d1       	rcall	.+750    	; 0x7f04 <__umulhisi3>
    7c16:	8b 01       	movw	r16, r22
    7c18:	ac 01       	movw	r20, r24
    7c1a:	d7 01       	movw	r26, r14
    7c1c:	73 d1       	rcall	.+742    	; 0x7f04 <__umulhisi3>
    7c1e:	eb 01       	movw	r28, r22
    7c20:	e8 0f       	add	r30, r24
    7c22:	f9 1f       	adc	r31, r25
    7c24:	d6 01       	movw	r26, r12
    7c26:	1f d0       	rcall	.+62     	; 0x7c66 <__muldi3_6>
    7c28:	2f 91       	pop	r18
    7c2a:	3f 91       	pop	r19
    7c2c:	d6 01       	movw	r26, r12
    7c2e:	6a d1       	rcall	.+724    	; 0x7f04 <__umulhisi3>
    7c30:	c6 0f       	add	r28, r22
    7c32:	d7 1f       	adc	r29, r23
    7c34:	e8 1f       	adc	r30, r24
    7c36:	f9 1f       	adc	r31, r25
    7c38:	af 91       	pop	r26
    7c3a:	bf 91       	pop	r27
    7c3c:	14 d0       	rcall	.+40     	; 0x7c66 <__muldi3_6>
    7c3e:	2f 91       	pop	r18
    7c40:	3f 91       	pop	r19
    7c42:	60 d1       	rcall	.+704    	; 0x7f04 <__umulhisi3>
    7c44:	c6 0f       	add	r28, r22
    7c46:	d7 1f       	adc	r29, r23
    7c48:	e8 1f       	adc	r30, r24
    7c4a:	f9 1f       	adc	r31, r25
    7c4c:	d6 01       	movw	r26, r12
    7c4e:	5a d1       	rcall	.+692    	; 0x7f04 <__umulhisi3>
    7c50:	e6 0f       	add	r30, r22
    7c52:	f7 1f       	adc	r31, r23
    7c54:	98 01       	movw	r18, r16
    7c56:	be 01       	movw	r22, r28
    7c58:	cf 01       	movw	r24, r30
    7c5a:	11 24       	eor	r1, r1
    7c5c:	0f 91       	pop	r16
    7c5e:	1f 91       	pop	r17
    7c60:	cf 91       	pop	r28
    7c62:	df 91       	pop	r29
    7c64:	08 95       	ret

00007c66 <__muldi3_6>:
    7c66:	4e d1       	rcall	.+668    	; 0x7f04 <__umulhisi3>
    7c68:	46 0f       	add	r20, r22
    7c6a:	57 1f       	adc	r21, r23
    7c6c:	c8 1f       	adc	r28, r24
    7c6e:	d9 1f       	adc	r29, r25
    7c70:	08 f4       	brcc	.+2      	; 0x7c74 <__muldi3_6+0xe>
    7c72:	31 96       	adiw	r30, 0x01	; 1
    7c74:	08 95       	ret

00007c76 <__moddi3>:
    7c76:	68 94       	set
    7c78:	01 c0       	rjmp	.+2      	; 0x7c7c <__divdi3_moddi3>

00007c7a <__divdi3>:
    7c7a:	e8 94       	clt

00007c7c <__divdi3_moddi3>:
    7c7c:	f9 2f       	mov	r31, r25
    7c7e:	f1 2b       	or	r31, r17
    7c80:	0a f0       	brmi	.+2      	; 0x7c84 <__divdi3_moddi3+0x8>
    7c82:	27 c0       	rjmp	.+78     	; 0x7cd2 <__udivdi3_umoddi3>
    7c84:	a0 e0       	ldi	r26, 0x00	; 0
    7c86:	b0 e0       	ldi	r27, 0x00	; 0
    7c88:	e7 e4       	ldi	r30, 0x47	; 71
    7c8a:	fe e3       	ldi	r31, 0x3E	; 62
    7c8c:	93 c0       	rjmp	.+294    	; 0x7db4 <__prologue_saves__+0xc>
    7c8e:	09 2e       	mov	r0, r25
    7c90:	05 94       	asr	r0
    7c92:	1a f4       	brpl	.+6      	; 0x7c9a <__divdi3_moddi3+0x1e>
    7c94:	79 d0       	rcall	.+242    	; 0x7d88 <__negdi2>
    7c96:	11 23       	and	r17, r17
    7c98:	92 f4       	brpl	.+36     	; 0x7cbe <__divdi3_moddi3+0x42>
    7c9a:	f0 e8       	ldi	r31, 0x80	; 128
    7c9c:	0f 26       	eor	r0, r31
    7c9e:	ff ef       	ldi	r31, 0xFF	; 255
    7ca0:	e0 94       	com	r14
    7ca2:	f0 94       	com	r15
    7ca4:	00 95       	com	r16
    7ca6:	10 95       	com	r17
    7ca8:	b0 94       	com	r11
    7caa:	c0 94       	com	r12
    7cac:	d0 94       	com	r13
    7cae:	a1 94       	neg	r10
    7cb0:	bf 0a       	sbc	r11, r31
    7cb2:	cf 0a       	sbc	r12, r31
    7cb4:	df 0a       	sbc	r13, r31
    7cb6:	ef 0a       	sbc	r14, r31
    7cb8:	ff 0a       	sbc	r15, r31
    7cba:	0f 0b       	sbc	r16, r31
    7cbc:	1f 0b       	sbc	r17, r31
    7cbe:	13 d0       	rcall	.+38     	; 0x7ce6 <__udivmod64>
    7cc0:	07 fc       	sbrc	r0, 7
    7cc2:	62 d0       	rcall	.+196    	; 0x7d88 <__negdi2>
    7cc4:	cd b7       	in	r28, 0x3d	; 61
    7cc6:	de b7       	in	r29, 0x3e	; 62
    7cc8:	ec e0       	ldi	r30, 0x0C	; 12
    7cca:	90 c0       	rjmp	.+288    	; 0x7dec <__epilogue_restores__+0xc>

00007ccc <__umoddi3>:
    7ccc:	68 94       	set
    7cce:	01 c0       	rjmp	.+2      	; 0x7cd2 <__udivdi3_umoddi3>

00007cd0 <__udivdi3>:
    7cd0:	e8 94       	clt

00007cd2 <__udivdi3_umoddi3>:
    7cd2:	8f 92       	push	r8
    7cd4:	9f 92       	push	r9
    7cd6:	cf 93       	push	r28
    7cd8:	df 93       	push	r29
    7cda:	05 d0       	rcall	.+10     	; 0x7ce6 <__udivmod64>
    7cdc:	df 91       	pop	r29
    7cde:	cf 91       	pop	r28
    7ce0:	9f 90       	pop	r9
    7ce2:	8f 90       	pop	r8
    7ce4:	08 95       	ret

00007ce6 <__udivmod64>:
    7ce6:	88 24       	eor	r8, r8
    7ce8:	99 24       	eor	r9, r9
    7cea:	f4 01       	movw	r30, r8
    7cec:	e4 01       	movw	r28, r8
    7cee:	b0 e4       	ldi	r27, 0x40	; 64
    7cf0:	9f 93       	push	r25
    7cf2:	aa 27       	eor	r26, r26
    7cf4:	9a 15       	cp	r25, r10
    7cf6:	8b 04       	cpc	r8, r11
    7cf8:	9c 04       	cpc	r9, r12
    7cfa:	ed 05       	cpc	r30, r13
    7cfc:	fe 05       	cpc	r31, r14
    7cfe:	cf 05       	cpc	r28, r15
    7d00:	d0 07       	cpc	r29, r16
    7d02:	a1 07       	cpc	r26, r17
    7d04:	98 f4       	brcc	.+38     	; 0x7d2c <__udivmod64+0x46>
    7d06:	ad 2f       	mov	r26, r29
    7d08:	dc 2f       	mov	r29, r28
    7d0a:	cf 2f       	mov	r28, r31
    7d0c:	fe 2f       	mov	r31, r30
    7d0e:	e9 2d       	mov	r30, r9
    7d10:	98 2c       	mov	r9, r8
    7d12:	89 2e       	mov	r8, r25
    7d14:	98 2f       	mov	r25, r24
    7d16:	87 2f       	mov	r24, r23
    7d18:	76 2f       	mov	r23, r22
    7d1a:	65 2f       	mov	r22, r21
    7d1c:	54 2f       	mov	r21, r20
    7d1e:	43 2f       	mov	r20, r19
    7d20:	32 2f       	mov	r19, r18
    7d22:	22 27       	eor	r18, r18
    7d24:	b8 50       	subi	r27, 0x08	; 8
    7d26:	31 f7       	brne	.-52     	; 0x7cf4 <__udivmod64+0xe>
    7d28:	bf 91       	pop	r27
    7d2a:	27 c0       	rjmp	.+78     	; 0x7d7a <__udivmod64+0x94>
    7d2c:	1b 2e       	mov	r1, r27
    7d2e:	bf 91       	pop	r27
    7d30:	bb 27       	eor	r27, r27
    7d32:	22 0f       	add	r18, r18
    7d34:	33 1f       	adc	r19, r19
    7d36:	44 1f       	adc	r20, r20
    7d38:	55 1f       	adc	r21, r21
    7d3a:	66 1f       	adc	r22, r22
    7d3c:	77 1f       	adc	r23, r23
    7d3e:	88 1f       	adc	r24, r24
    7d40:	99 1f       	adc	r25, r25
    7d42:	88 1c       	adc	r8, r8
    7d44:	99 1c       	adc	r9, r9
    7d46:	ee 1f       	adc	r30, r30
    7d48:	ff 1f       	adc	r31, r31
    7d4a:	cc 1f       	adc	r28, r28
    7d4c:	dd 1f       	adc	r29, r29
    7d4e:	aa 1f       	adc	r26, r26
    7d50:	bb 1f       	adc	r27, r27
    7d52:	8a 14       	cp	r8, r10
    7d54:	9b 04       	cpc	r9, r11
    7d56:	ec 05       	cpc	r30, r12
    7d58:	fd 05       	cpc	r31, r13
    7d5a:	ce 05       	cpc	r28, r14
    7d5c:	df 05       	cpc	r29, r15
    7d5e:	a0 07       	cpc	r26, r16
    7d60:	b1 07       	cpc	r27, r17
    7d62:	48 f0       	brcs	.+18     	; 0x7d76 <__udivmod64+0x90>
    7d64:	8a 18       	sub	r8, r10
    7d66:	9b 08       	sbc	r9, r11
    7d68:	ec 09       	sbc	r30, r12
    7d6a:	fd 09       	sbc	r31, r13
    7d6c:	ce 09       	sbc	r28, r14
    7d6e:	df 09       	sbc	r29, r15
    7d70:	a0 0b       	sbc	r26, r16
    7d72:	b1 0b       	sbc	r27, r17
    7d74:	21 60       	ori	r18, 0x01	; 1
    7d76:	1a 94       	dec	r1
    7d78:	e1 f6       	brne	.-72     	; 0x7d32 <__udivmod64+0x4c>
    7d7a:	2e f4       	brtc	.+10     	; 0x7d86 <__udivmod64+0xa0>
    7d7c:	94 01       	movw	r18, r8
    7d7e:	af 01       	movw	r20, r30
    7d80:	be 01       	movw	r22, r28
    7d82:	cd 01       	movw	r24, r26
    7d84:	00 0c       	add	r0, r0
    7d86:	08 95       	ret

00007d88 <__negdi2>:
    7d88:	60 95       	com	r22
    7d8a:	70 95       	com	r23
    7d8c:	80 95       	com	r24
    7d8e:	90 95       	com	r25
    7d90:	30 95       	com	r19
    7d92:	40 95       	com	r20
    7d94:	50 95       	com	r21
    7d96:	21 95       	neg	r18
    7d98:	3f 4f       	sbci	r19, 0xFF	; 255
    7d9a:	4f 4f       	sbci	r20, 0xFF	; 255
    7d9c:	5f 4f       	sbci	r21, 0xFF	; 255
    7d9e:	6f 4f       	sbci	r22, 0xFF	; 255
    7da0:	7f 4f       	sbci	r23, 0xFF	; 255
    7da2:	8f 4f       	sbci	r24, 0xFF	; 255
    7da4:	9f 4f       	sbci	r25, 0xFF	; 255
    7da6:	08 95       	ret

00007da8 <__prologue_saves__>:
    7da8:	2f 92       	push	r2
    7daa:	3f 92       	push	r3
    7dac:	4f 92       	push	r4
    7dae:	5f 92       	push	r5
    7db0:	6f 92       	push	r6
    7db2:	7f 92       	push	r7
    7db4:	8f 92       	push	r8
    7db6:	9f 92       	push	r9
    7db8:	af 92       	push	r10
    7dba:	bf 92       	push	r11
    7dbc:	cf 92       	push	r12
    7dbe:	df 92       	push	r13
    7dc0:	ef 92       	push	r14
    7dc2:	ff 92       	push	r15
    7dc4:	0f 93       	push	r16
    7dc6:	1f 93       	push	r17
    7dc8:	cf 93       	push	r28
    7dca:	df 93       	push	r29
    7dcc:	cd b7       	in	r28, 0x3d	; 61
    7dce:	de b7       	in	r29, 0x3e	; 62
    7dd0:	ca 1b       	sub	r28, r26
    7dd2:	db 0b       	sbc	r29, r27
    7dd4:	0f b6       	in	r0, 0x3f	; 63
    7dd6:	f8 94       	cli
    7dd8:	de bf       	out	0x3e, r29	; 62
    7dda:	0f be       	out	0x3f, r0	; 63
    7ddc:	cd bf       	out	0x3d, r28	; 61
    7dde:	09 94       	ijmp

00007de0 <__epilogue_restores__>:
    7de0:	2a 88       	ldd	r2, Y+18	; 0x12
    7de2:	39 88       	ldd	r3, Y+17	; 0x11
    7de4:	48 88       	ldd	r4, Y+16	; 0x10
    7de6:	5f 84       	ldd	r5, Y+15	; 0x0f
    7de8:	6e 84       	ldd	r6, Y+14	; 0x0e
    7dea:	7d 84       	ldd	r7, Y+13	; 0x0d
    7dec:	8c 84       	ldd	r8, Y+12	; 0x0c
    7dee:	9b 84       	ldd	r9, Y+11	; 0x0b
    7df0:	aa 84       	ldd	r10, Y+10	; 0x0a
    7df2:	b9 84       	ldd	r11, Y+9	; 0x09
    7df4:	c8 84       	ldd	r12, Y+8	; 0x08
    7df6:	df 80       	ldd	r13, Y+7	; 0x07
    7df8:	ee 80       	ldd	r14, Y+6	; 0x06
    7dfa:	fd 80       	ldd	r15, Y+5	; 0x05
    7dfc:	0c 81       	ldd	r16, Y+4	; 0x04
    7dfe:	1b 81       	ldd	r17, Y+3	; 0x03
    7e00:	aa 81       	ldd	r26, Y+2	; 0x02
    7e02:	b9 81       	ldd	r27, Y+1	; 0x01
    7e04:	ce 0f       	add	r28, r30
    7e06:	d1 1d       	adc	r29, r1
    7e08:	0f b6       	in	r0, 0x3f	; 63
    7e0a:	f8 94       	cli
    7e0c:	de bf       	out	0x3e, r29	; 62
    7e0e:	0f be       	out	0x3f, r0	; 63
    7e10:	cd bf       	out	0x3d, r28	; 61
    7e12:	ed 01       	movw	r28, r26
    7e14:	08 95       	ret

00007e16 <__ashldi3>:
    7e16:	0f 93       	push	r16
    7e18:	08 30       	cpi	r16, 0x08	; 8
    7e1a:	90 f0       	brcs	.+36     	; 0x7e40 <__ashldi3+0x2a>
    7e1c:	98 2f       	mov	r25, r24
    7e1e:	87 2f       	mov	r24, r23
    7e20:	76 2f       	mov	r23, r22
    7e22:	65 2f       	mov	r22, r21
    7e24:	54 2f       	mov	r21, r20
    7e26:	43 2f       	mov	r20, r19
    7e28:	32 2f       	mov	r19, r18
    7e2a:	22 27       	eor	r18, r18
    7e2c:	08 50       	subi	r16, 0x08	; 8
    7e2e:	f4 cf       	rjmp	.-24     	; 0x7e18 <__ashldi3+0x2>
    7e30:	22 0f       	add	r18, r18
    7e32:	33 1f       	adc	r19, r19
    7e34:	44 1f       	adc	r20, r20
    7e36:	55 1f       	adc	r21, r21
    7e38:	66 1f       	adc	r22, r22
    7e3a:	77 1f       	adc	r23, r23
    7e3c:	88 1f       	adc	r24, r24
    7e3e:	99 1f       	adc	r25, r25
    7e40:	0a 95       	dec	r16
    7e42:	b2 f7       	brpl	.-20     	; 0x7e30 <__ashldi3+0x1a>
    7e44:	0f 91       	pop	r16
    7e46:	08 95       	ret

00007e48 <__ashrdi3>:
    7e48:	97 fb       	bst	r25, 7
    7e4a:	10 f8       	bld	r1, 0

00007e4c <__lshrdi3>:
    7e4c:	16 94       	lsr	r1
    7e4e:	00 08       	sbc	r0, r0
    7e50:	0f 93       	push	r16
    7e52:	08 30       	cpi	r16, 0x08	; 8
    7e54:	98 f0       	brcs	.+38     	; 0x7e7c <__lshrdi3+0x30>
    7e56:	08 50       	subi	r16, 0x08	; 8
    7e58:	23 2f       	mov	r18, r19
    7e5a:	34 2f       	mov	r19, r20
    7e5c:	45 2f       	mov	r20, r21
    7e5e:	56 2f       	mov	r21, r22
    7e60:	67 2f       	mov	r22, r23
    7e62:	78 2f       	mov	r23, r24
    7e64:	89 2f       	mov	r24, r25
    7e66:	90 2d       	mov	r25, r0
    7e68:	f4 cf       	rjmp	.-24     	; 0x7e52 <__lshrdi3+0x6>
    7e6a:	05 94       	asr	r0
    7e6c:	97 95       	ror	r25
    7e6e:	87 95       	ror	r24
    7e70:	77 95       	ror	r23
    7e72:	67 95       	ror	r22
    7e74:	57 95       	ror	r21
    7e76:	47 95       	ror	r20
    7e78:	37 95       	ror	r19
    7e7a:	27 95       	ror	r18
    7e7c:	0a 95       	dec	r16
    7e7e:	aa f7       	brpl	.-22     	; 0x7e6a <__lshrdi3+0x1e>
    7e80:	0f 91       	pop	r16
    7e82:	08 95       	ret

00007e84 <__adddi3>:
    7e84:	2a 0d       	add	r18, r10
    7e86:	3b 1d       	adc	r19, r11
    7e88:	4c 1d       	adc	r20, r12
    7e8a:	5d 1d       	adc	r21, r13
    7e8c:	6e 1d       	adc	r22, r14
    7e8e:	7f 1d       	adc	r23, r15
    7e90:	80 1f       	adc	r24, r16
    7e92:	91 1f       	adc	r25, r17
    7e94:	08 95       	ret

00007e96 <__subdi3>:
    7e96:	2a 19       	sub	r18, r10
    7e98:	3b 09       	sbc	r19, r11
    7e9a:	4c 09       	sbc	r20, r12
    7e9c:	5d 09       	sbc	r21, r13
    7e9e:	6e 09       	sbc	r22, r14
    7ea0:	7f 09       	sbc	r23, r15
    7ea2:	80 0b       	sbc	r24, r16
    7ea4:	91 0b       	sbc	r25, r17
    7ea6:	08 95       	ret

00007ea8 <__cmpdi2_s8>:
    7ea8:	00 24       	eor	r0, r0
    7eaa:	a7 fd       	sbrc	r26, 7
    7eac:	00 94       	com	r0
    7eae:	2a 17       	cp	r18, r26
    7eb0:	30 05       	cpc	r19, r0
    7eb2:	40 05       	cpc	r20, r0
    7eb4:	50 05       	cpc	r21, r0
    7eb6:	60 05       	cpc	r22, r0
    7eb8:	70 05       	cpc	r23, r0
    7eba:	80 05       	cpc	r24, r0
    7ebc:	90 05       	cpc	r25, r0
    7ebe:	08 95       	ret

00007ec0 <__udivmodsi4>:
    7ec0:	a1 e2       	ldi	r26, 0x21	; 33
    7ec2:	1a 2e       	mov	r1, r26
    7ec4:	aa 1b       	sub	r26, r26
    7ec6:	bb 1b       	sub	r27, r27
    7ec8:	fd 01       	movw	r30, r26
    7eca:	0d c0       	rjmp	.+26     	; 0x7ee6 <__udivmodsi4_ep>

00007ecc <__udivmodsi4_loop>:
    7ecc:	aa 1f       	adc	r26, r26
    7ece:	bb 1f       	adc	r27, r27
    7ed0:	ee 1f       	adc	r30, r30
    7ed2:	ff 1f       	adc	r31, r31
    7ed4:	a2 17       	cp	r26, r18
    7ed6:	b3 07       	cpc	r27, r19
    7ed8:	e4 07       	cpc	r30, r20
    7eda:	f5 07       	cpc	r31, r21
    7edc:	20 f0       	brcs	.+8      	; 0x7ee6 <__udivmodsi4_ep>
    7ede:	a2 1b       	sub	r26, r18
    7ee0:	b3 0b       	sbc	r27, r19
    7ee2:	e4 0b       	sbc	r30, r20
    7ee4:	f5 0b       	sbc	r31, r21

00007ee6 <__udivmodsi4_ep>:
    7ee6:	66 1f       	adc	r22, r22
    7ee8:	77 1f       	adc	r23, r23
    7eea:	88 1f       	adc	r24, r24
    7eec:	99 1f       	adc	r25, r25
    7eee:	1a 94       	dec	r1
    7ef0:	69 f7       	brne	.-38     	; 0x7ecc <__udivmodsi4_loop>
    7ef2:	60 95       	com	r22
    7ef4:	70 95       	com	r23
    7ef6:	80 95       	com	r24
    7ef8:	90 95       	com	r25
    7efa:	9b 01       	movw	r18, r22
    7efc:	ac 01       	movw	r20, r24
    7efe:	bd 01       	movw	r22, r26
    7f00:	cf 01       	movw	r24, r30
    7f02:	08 95       	ret

00007f04 <__umulhisi3>:
    7f04:	a2 9f       	mul	r26, r18
    7f06:	b0 01       	movw	r22, r0
    7f08:	b3 9f       	mul	r27, r19
    7f0a:	c0 01       	movw	r24, r0
    7f0c:	a3 9f       	mul	r26, r19
    7f0e:	70 0d       	add	r23, r0
    7f10:	81 1d       	adc	r24, r1
    7f12:	11 24       	eor	r1, r1
    7f14:	91 1d       	adc	r25, r1
    7f16:	b2 9f       	mul	r27, r18
    7f18:	70 0d       	add	r23, r0
    7f1a:	81 1d       	adc	r24, r1
    7f1c:	11 24       	eor	r1, r1
    7f1e:	91 1d       	adc	r25, r1
    7f20:	08 95       	ret

00007f22 <printf>:
    7f22:	cf 93       	push	r28
    7f24:	df 93       	push	r29
    7f26:	cd b7       	in	r28, 0x3d	; 61
    7f28:	de b7       	in	r29, 0x3e	; 62
    7f2a:	ae 01       	movw	r20, r28
    7f2c:	4b 5f       	subi	r20, 0xFB	; 251
    7f2e:	5f 4f       	sbci	r21, 0xFF	; 255
    7f30:	fa 01       	movw	r30, r20
    7f32:	61 91       	ld	r22, Z+
    7f34:	71 91       	ld	r23, Z+
    7f36:	af 01       	movw	r20, r30
    7f38:	80 91 cc 06 	lds	r24, 0x06CC	; 0x8006cc <__iob+0x2>
    7f3c:	90 91 cd 06 	lds	r25, 0x06CD	; 0x8006cd <__iob+0x3>
    7f40:	03 d0       	rcall	.+6      	; 0x7f48 <vfprintf>
    7f42:	df 91       	pop	r29
    7f44:	cf 91       	pop	r28
    7f46:	08 95       	ret

00007f48 <vfprintf>:
    7f48:	2f 92       	push	r2
    7f4a:	3f 92       	push	r3
    7f4c:	4f 92       	push	r4
    7f4e:	5f 92       	push	r5
    7f50:	6f 92       	push	r6
    7f52:	7f 92       	push	r7
    7f54:	8f 92       	push	r8
    7f56:	9f 92       	push	r9
    7f58:	af 92       	push	r10
    7f5a:	bf 92       	push	r11
    7f5c:	cf 92       	push	r12
    7f5e:	df 92       	push	r13
    7f60:	ef 92       	push	r14
    7f62:	ff 92       	push	r15
    7f64:	0f 93       	push	r16
    7f66:	1f 93       	push	r17
    7f68:	cf 93       	push	r28
    7f6a:	df 93       	push	r29
    7f6c:	cd b7       	in	r28, 0x3d	; 61
    7f6e:	de b7       	in	r29, 0x3e	; 62
    7f70:	2c 97       	sbiw	r28, 0x0c	; 12
    7f72:	0f b6       	in	r0, 0x3f	; 63
    7f74:	f8 94       	cli
    7f76:	de bf       	out	0x3e, r29	; 62
    7f78:	0f be       	out	0x3f, r0	; 63
    7f7a:	cd bf       	out	0x3d, r28	; 61
    7f7c:	7c 01       	movw	r14, r24
    7f7e:	6b 01       	movw	r12, r22
    7f80:	8a 01       	movw	r16, r20
    7f82:	fc 01       	movw	r30, r24
    7f84:	17 82       	std	Z+7, r1	; 0x07
    7f86:	16 82       	std	Z+6, r1	; 0x06
    7f88:	83 81       	ldd	r24, Z+3	; 0x03
    7f8a:	81 ff       	sbrs	r24, 1
    7f8c:	b0 c1       	rjmp	.+864    	; 0x82ee <vfprintf+0x3a6>
    7f8e:	ce 01       	movw	r24, r28
    7f90:	01 96       	adiw	r24, 0x01	; 1
    7f92:	4c 01       	movw	r8, r24
    7f94:	f7 01       	movw	r30, r14
    7f96:	93 81       	ldd	r25, Z+3	; 0x03
    7f98:	f6 01       	movw	r30, r12
    7f9a:	93 fd       	sbrc	r25, 3
    7f9c:	85 91       	lpm	r24, Z+
    7f9e:	93 ff       	sbrs	r25, 3
    7fa0:	81 91       	ld	r24, Z+
    7fa2:	6f 01       	movw	r12, r30
    7fa4:	88 23       	and	r24, r24
    7fa6:	09 f4       	brne	.+2      	; 0x7faa <vfprintf+0x62>
    7fa8:	9e c1       	rjmp	.+828    	; 0x82e6 <vfprintf+0x39e>
    7faa:	85 32       	cpi	r24, 0x25	; 37
    7fac:	39 f4       	brne	.+14     	; 0x7fbc <vfprintf+0x74>
    7fae:	93 fd       	sbrc	r25, 3
    7fb0:	85 91       	lpm	r24, Z+
    7fb2:	93 ff       	sbrs	r25, 3
    7fb4:	81 91       	ld	r24, Z+
    7fb6:	6f 01       	movw	r12, r30
    7fb8:	85 32       	cpi	r24, 0x25	; 37
    7fba:	21 f4       	brne	.+8      	; 0x7fc4 <vfprintf+0x7c>
    7fbc:	b7 01       	movw	r22, r14
    7fbe:	90 e0       	ldi	r25, 0x00	; 0
    7fc0:	c7 d1       	rcall	.+910    	; 0x8350 <fputc>
    7fc2:	e8 cf       	rjmp	.-48     	; 0x7f94 <vfprintf+0x4c>
    7fc4:	51 2c       	mov	r5, r1
    7fc6:	31 2c       	mov	r3, r1
    7fc8:	20 e0       	ldi	r18, 0x00	; 0
    7fca:	20 32       	cpi	r18, 0x20	; 32
    7fcc:	a0 f4       	brcc	.+40     	; 0x7ff6 <vfprintf+0xae>
    7fce:	8b 32       	cpi	r24, 0x2B	; 43
    7fd0:	69 f0       	breq	.+26     	; 0x7fec <vfprintf+0xa4>
    7fd2:	30 f4       	brcc	.+12     	; 0x7fe0 <vfprintf+0x98>
    7fd4:	80 32       	cpi	r24, 0x20	; 32
    7fd6:	59 f0       	breq	.+22     	; 0x7fee <vfprintf+0xa6>
    7fd8:	83 32       	cpi	r24, 0x23	; 35
    7fda:	69 f4       	brne	.+26     	; 0x7ff6 <vfprintf+0xae>
    7fdc:	20 61       	ori	r18, 0x10	; 16
    7fde:	2c c0       	rjmp	.+88     	; 0x8038 <vfprintf+0xf0>
    7fe0:	8d 32       	cpi	r24, 0x2D	; 45
    7fe2:	39 f0       	breq	.+14     	; 0x7ff2 <vfprintf+0xaa>
    7fe4:	80 33       	cpi	r24, 0x30	; 48
    7fe6:	39 f4       	brne	.+14     	; 0x7ff6 <vfprintf+0xae>
    7fe8:	21 60       	ori	r18, 0x01	; 1
    7fea:	26 c0       	rjmp	.+76     	; 0x8038 <vfprintf+0xf0>
    7fec:	22 60       	ori	r18, 0x02	; 2
    7fee:	24 60       	ori	r18, 0x04	; 4
    7ff0:	23 c0       	rjmp	.+70     	; 0x8038 <vfprintf+0xf0>
    7ff2:	28 60       	ori	r18, 0x08	; 8
    7ff4:	21 c0       	rjmp	.+66     	; 0x8038 <vfprintf+0xf0>
    7ff6:	27 fd       	sbrc	r18, 7
    7ff8:	27 c0       	rjmp	.+78     	; 0x8048 <vfprintf+0x100>
    7ffa:	30 ed       	ldi	r19, 0xD0	; 208
    7ffc:	38 0f       	add	r19, r24
    7ffe:	3a 30       	cpi	r19, 0x0A	; 10
    8000:	78 f4       	brcc	.+30     	; 0x8020 <vfprintf+0xd8>
    8002:	26 ff       	sbrs	r18, 6
    8004:	06 c0       	rjmp	.+12     	; 0x8012 <vfprintf+0xca>
    8006:	fa e0       	ldi	r31, 0x0A	; 10
    8008:	5f 9e       	mul	r5, r31
    800a:	30 0d       	add	r19, r0
    800c:	11 24       	eor	r1, r1
    800e:	53 2e       	mov	r5, r19
    8010:	13 c0       	rjmp	.+38     	; 0x8038 <vfprintf+0xf0>
    8012:	8a e0       	ldi	r24, 0x0A	; 10
    8014:	38 9e       	mul	r3, r24
    8016:	30 0d       	add	r19, r0
    8018:	11 24       	eor	r1, r1
    801a:	33 2e       	mov	r3, r19
    801c:	20 62       	ori	r18, 0x20	; 32
    801e:	0c c0       	rjmp	.+24     	; 0x8038 <vfprintf+0xf0>
    8020:	8e 32       	cpi	r24, 0x2E	; 46
    8022:	21 f4       	brne	.+8      	; 0x802c <vfprintf+0xe4>
    8024:	26 fd       	sbrc	r18, 6
    8026:	5f c1       	rjmp	.+702    	; 0x82e6 <vfprintf+0x39e>
    8028:	20 64       	ori	r18, 0x40	; 64
    802a:	06 c0       	rjmp	.+12     	; 0x8038 <vfprintf+0xf0>
    802c:	8c 36       	cpi	r24, 0x6C	; 108
    802e:	11 f4       	brne	.+4      	; 0x8034 <vfprintf+0xec>
    8030:	20 68       	ori	r18, 0x80	; 128
    8032:	02 c0       	rjmp	.+4      	; 0x8038 <vfprintf+0xf0>
    8034:	88 36       	cpi	r24, 0x68	; 104
    8036:	41 f4       	brne	.+16     	; 0x8048 <vfprintf+0x100>
    8038:	f6 01       	movw	r30, r12
    803a:	93 fd       	sbrc	r25, 3
    803c:	85 91       	lpm	r24, Z+
    803e:	93 ff       	sbrs	r25, 3
    8040:	81 91       	ld	r24, Z+
    8042:	6f 01       	movw	r12, r30
    8044:	81 11       	cpse	r24, r1
    8046:	c1 cf       	rjmp	.-126    	; 0x7fca <vfprintf+0x82>
    8048:	98 2f       	mov	r25, r24
    804a:	9f 7d       	andi	r25, 0xDF	; 223
    804c:	95 54       	subi	r25, 0x45	; 69
    804e:	93 30       	cpi	r25, 0x03	; 3
    8050:	28 f4       	brcc	.+10     	; 0x805c <vfprintf+0x114>
    8052:	0c 5f       	subi	r16, 0xFC	; 252
    8054:	1f 4f       	sbci	r17, 0xFF	; 255
    8056:	ff e3       	ldi	r31, 0x3F	; 63
    8058:	f9 83       	std	Y+1, r31	; 0x01
    805a:	0d c0       	rjmp	.+26     	; 0x8076 <vfprintf+0x12e>
    805c:	83 36       	cpi	r24, 0x63	; 99
    805e:	31 f0       	breq	.+12     	; 0x806c <vfprintf+0x124>
    8060:	83 37       	cpi	r24, 0x73	; 115
    8062:	71 f0       	breq	.+28     	; 0x8080 <vfprintf+0x138>
    8064:	83 35       	cpi	r24, 0x53	; 83
    8066:	09 f0       	breq	.+2      	; 0x806a <vfprintf+0x122>
    8068:	57 c0       	rjmp	.+174    	; 0x8118 <vfprintf+0x1d0>
    806a:	21 c0       	rjmp	.+66     	; 0x80ae <vfprintf+0x166>
    806c:	f8 01       	movw	r30, r16
    806e:	80 81       	ld	r24, Z
    8070:	89 83       	std	Y+1, r24	; 0x01
    8072:	0e 5f       	subi	r16, 0xFE	; 254
    8074:	1f 4f       	sbci	r17, 0xFF	; 255
    8076:	44 24       	eor	r4, r4
    8078:	43 94       	inc	r4
    807a:	51 2c       	mov	r5, r1
    807c:	54 01       	movw	r10, r8
    807e:	14 c0       	rjmp	.+40     	; 0x80a8 <vfprintf+0x160>
    8080:	38 01       	movw	r6, r16
    8082:	f2 e0       	ldi	r31, 0x02	; 2
    8084:	6f 0e       	add	r6, r31
    8086:	71 1c       	adc	r7, r1
    8088:	f8 01       	movw	r30, r16
    808a:	a0 80       	ld	r10, Z
    808c:	b1 80       	ldd	r11, Z+1	; 0x01
    808e:	26 ff       	sbrs	r18, 6
    8090:	03 c0       	rjmp	.+6      	; 0x8098 <vfprintf+0x150>
    8092:	65 2d       	mov	r22, r5
    8094:	70 e0       	ldi	r23, 0x00	; 0
    8096:	02 c0       	rjmp	.+4      	; 0x809c <vfprintf+0x154>
    8098:	6f ef       	ldi	r22, 0xFF	; 255
    809a:	7f ef       	ldi	r23, 0xFF	; 255
    809c:	c5 01       	movw	r24, r10
    809e:	2c 87       	std	Y+12, r18	; 0x0c
    80a0:	4c d1       	rcall	.+664    	; 0x833a <strnlen>
    80a2:	2c 01       	movw	r4, r24
    80a4:	83 01       	movw	r16, r6
    80a6:	2c 85       	ldd	r18, Y+12	; 0x0c
    80a8:	2f 77       	andi	r18, 0x7F	; 127
    80aa:	22 2e       	mov	r2, r18
    80ac:	16 c0       	rjmp	.+44     	; 0x80da <vfprintf+0x192>
    80ae:	38 01       	movw	r6, r16
    80b0:	f2 e0       	ldi	r31, 0x02	; 2
    80b2:	6f 0e       	add	r6, r31
    80b4:	71 1c       	adc	r7, r1
    80b6:	f8 01       	movw	r30, r16
    80b8:	a0 80       	ld	r10, Z
    80ba:	b1 80       	ldd	r11, Z+1	; 0x01
    80bc:	26 ff       	sbrs	r18, 6
    80be:	03 c0       	rjmp	.+6      	; 0x80c6 <vfprintf+0x17e>
    80c0:	65 2d       	mov	r22, r5
    80c2:	70 e0       	ldi	r23, 0x00	; 0
    80c4:	02 c0       	rjmp	.+4      	; 0x80ca <vfprintf+0x182>
    80c6:	6f ef       	ldi	r22, 0xFF	; 255
    80c8:	7f ef       	ldi	r23, 0xFF	; 255
    80ca:	c5 01       	movw	r24, r10
    80cc:	2c 87       	std	Y+12, r18	; 0x0c
    80ce:	2a d1       	rcall	.+596    	; 0x8324 <strnlen_P>
    80d0:	2c 01       	movw	r4, r24
    80d2:	2c 85       	ldd	r18, Y+12	; 0x0c
    80d4:	20 68       	ori	r18, 0x80	; 128
    80d6:	22 2e       	mov	r2, r18
    80d8:	83 01       	movw	r16, r6
    80da:	23 fc       	sbrc	r2, 3
    80dc:	19 c0       	rjmp	.+50     	; 0x8110 <vfprintf+0x1c8>
    80de:	83 2d       	mov	r24, r3
    80e0:	90 e0       	ldi	r25, 0x00	; 0
    80e2:	48 16       	cp	r4, r24
    80e4:	59 06       	cpc	r5, r25
    80e6:	a0 f4       	brcc	.+40     	; 0x8110 <vfprintf+0x1c8>
    80e8:	b7 01       	movw	r22, r14
    80ea:	80 e2       	ldi	r24, 0x20	; 32
    80ec:	90 e0       	ldi	r25, 0x00	; 0
    80ee:	30 d1       	rcall	.+608    	; 0x8350 <fputc>
    80f0:	3a 94       	dec	r3
    80f2:	f5 cf       	rjmp	.-22     	; 0x80de <vfprintf+0x196>
    80f4:	f5 01       	movw	r30, r10
    80f6:	27 fc       	sbrc	r2, 7
    80f8:	85 91       	lpm	r24, Z+
    80fa:	27 fe       	sbrs	r2, 7
    80fc:	81 91       	ld	r24, Z+
    80fe:	5f 01       	movw	r10, r30
    8100:	b7 01       	movw	r22, r14
    8102:	90 e0       	ldi	r25, 0x00	; 0
    8104:	25 d1       	rcall	.+586    	; 0x8350 <fputc>
    8106:	31 10       	cpse	r3, r1
    8108:	3a 94       	dec	r3
    810a:	f1 e0       	ldi	r31, 0x01	; 1
    810c:	4f 1a       	sub	r4, r31
    810e:	51 08       	sbc	r5, r1
    8110:	41 14       	cp	r4, r1
    8112:	51 04       	cpc	r5, r1
    8114:	79 f7       	brne	.-34     	; 0x80f4 <vfprintf+0x1ac>
    8116:	de c0       	rjmp	.+444    	; 0x82d4 <vfprintf+0x38c>
    8118:	84 36       	cpi	r24, 0x64	; 100
    811a:	11 f0       	breq	.+4      	; 0x8120 <vfprintf+0x1d8>
    811c:	89 36       	cpi	r24, 0x69	; 105
    811e:	31 f5       	brne	.+76     	; 0x816c <vfprintf+0x224>
    8120:	f8 01       	movw	r30, r16
    8122:	27 ff       	sbrs	r18, 7
    8124:	07 c0       	rjmp	.+14     	; 0x8134 <vfprintf+0x1ec>
    8126:	60 81       	ld	r22, Z
    8128:	71 81       	ldd	r23, Z+1	; 0x01
    812a:	82 81       	ldd	r24, Z+2	; 0x02
    812c:	93 81       	ldd	r25, Z+3	; 0x03
    812e:	0c 5f       	subi	r16, 0xFC	; 252
    8130:	1f 4f       	sbci	r17, 0xFF	; 255
    8132:	08 c0       	rjmp	.+16     	; 0x8144 <vfprintf+0x1fc>
    8134:	60 81       	ld	r22, Z
    8136:	71 81       	ldd	r23, Z+1	; 0x01
    8138:	07 2e       	mov	r0, r23
    813a:	00 0c       	add	r0, r0
    813c:	88 0b       	sbc	r24, r24
    813e:	99 0b       	sbc	r25, r25
    8140:	0e 5f       	subi	r16, 0xFE	; 254
    8142:	1f 4f       	sbci	r17, 0xFF	; 255
    8144:	2f 76       	andi	r18, 0x6F	; 111
    8146:	72 2e       	mov	r7, r18
    8148:	97 ff       	sbrs	r25, 7
    814a:	09 c0       	rjmp	.+18     	; 0x815e <vfprintf+0x216>
    814c:	90 95       	com	r25
    814e:	80 95       	com	r24
    8150:	70 95       	com	r23
    8152:	61 95       	neg	r22
    8154:	7f 4f       	sbci	r23, 0xFF	; 255
    8156:	8f 4f       	sbci	r24, 0xFF	; 255
    8158:	9f 4f       	sbci	r25, 0xFF	; 255
    815a:	20 68       	ori	r18, 0x80	; 128
    815c:	72 2e       	mov	r7, r18
    815e:	2a e0       	ldi	r18, 0x0A	; 10
    8160:	30 e0       	ldi	r19, 0x00	; 0
    8162:	a4 01       	movw	r20, r8
    8164:	2d d1       	rcall	.+602    	; 0x83c0 <__ultoa_invert>
    8166:	a8 2e       	mov	r10, r24
    8168:	a8 18       	sub	r10, r8
    816a:	43 c0       	rjmp	.+134    	; 0x81f2 <vfprintf+0x2aa>
    816c:	85 37       	cpi	r24, 0x75	; 117
    816e:	29 f4       	brne	.+10     	; 0x817a <vfprintf+0x232>
    8170:	2f 7e       	andi	r18, 0xEF	; 239
    8172:	b2 2e       	mov	r11, r18
    8174:	2a e0       	ldi	r18, 0x0A	; 10
    8176:	30 e0       	ldi	r19, 0x00	; 0
    8178:	25 c0       	rjmp	.+74     	; 0x81c4 <vfprintf+0x27c>
    817a:	f2 2f       	mov	r31, r18
    817c:	f9 7f       	andi	r31, 0xF9	; 249
    817e:	bf 2e       	mov	r11, r31
    8180:	8f 36       	cpi	r24, 0x6F	; 111
    8182:	c1 f0       	breq	.+48     	; 0x81b4 <vfprintf+0x26c>
    8184:	18 f4       	brcc	.+6      	; 0x818c <vfprintf+0x244>
    8186:	88 35       	cpi	r24, 0x58	; 88
    8188:	79 f0       	breq	.+30     	; 0x81a8 <vfprintf+0x260>
    818a:	ad c0       	rjmp	.+346    	; 0x82e6 <vfprintf+0x39e>
    818c:	80 37       	cpi	r24, 0x70	; 112
    818e:	19 f0       	breq	.+6      	; 0x8196 <vfprintf+0x24e>
    8190:	88 37       	cpi	r24, 0x78	; 120
    8192:	21 f0       	breq	.+8      	; 0x819c <vfprintf+0x254>
    8194:	a8 c0       	rjmp	.+336    	; 0x82e6 <vfprintf+0x39e>
    8196:	2f 2f       	mov	r18, r31
    8198:	20 61       	ori	r18, 0x10	; 16
    819a:	b2 2e       	mov	r11, r18
    819c:	b4 fe       	sbrs	r11, 4
    819e:	0d c0       	rjmp	.+26     	; 0x81ba <vfprintf+0x272>
    81a0:	8b 2d       	mov	r24, r11
    81a2:	84 60       	ori	r24, 0x04	; 4
    81a4:	b8 2e       	mov	r11, r24
    81a6:	09 c0       	rjmp	.+18     	; 0x81ba <vfprintf+0x272>
    81a8:	24 ff       	sbrs	r18, 4
    81aa:	0a c0       	rjmp	.+20     	; 0x81c0 <vfprintf+0x278>
    81ac:	9f 2f       	mov	r25, r31
    81ae:	96 60       	ori	r25, 0x06	; 6
    81b0:	b9 2e       	mov	r11, r25
    81b2:	06 c0       	rjmp	.+12     	; 0x81c0 <vfprintf+0x278>
    81b4:	28 e0       	ldi	r18, 0x08	; 8
    81b6:	30 e0       	ldi	r19, 0x00	; 0
    81b8:	05 c0       	rjmp	.+10     	; 0x81c4 <vfprintf+0x27c>
    81ba:	20 e1       	ldi	r18, 0x10	; 16
    81bc:	30 e0       	ldi	r19, 0x00	; 0
    81be:	02 c0       	rjmp	.+4      	; 0x81c4 <vfprintf+0x27c>
    81c0:	20 e1       	ldi	r18, 0x10	; 16
    81c2:	32 e0       	ldi	r19, 0x02	; 2
    81c4:	f8 01       	movw	r30, r16
    81c6:	b7 fe       	sbrs	r11, 7
    81c8:	07 c0       	rjmp	.+14     	; 0x81d8 <vfprintf+0x290>
    81ca:	60 81       	ld	r22, Z
    81cc:	71 81       	ldd	r23, Z+1	; 0x01
    81ce:	82 81       	ldd	r24, Z+2	; 0x02
    81d0:	93 81       	ldd	r25, Z+3	; 0x03
    81d2:	0c 5f       	subi	r16, 0xFC	; 252
    81d4:	1f 4f       	sbci	r17, 0xFF	; 255
    81d6:	06 c0       	rjmp	.+12     	; 0x81e4 <vfprintf+0x29c>
    81d8:	60 81       	ld	r22, Z
    81da:	71 81       	ldd	r23, Z+1	; 0x01
    81dc:	80 e0       	ldi	r24, 0x00	; 0
    81de:	90 e0       	ldi	r25, 0x00	; 0
    81e0:	0e 5f       	subi	r16, 0xFE	; 254
    81e2:	1f 4f       	sbci	r17, 0xFF	; 255
    81e4:	a4 01       	movw	r20, r8
    81e6:	ec d0       	rcall	.+472    	; 0x83c0 <__ultoa_invert>
    81e8:	a8 2e       	mov	r10, r24
    81ea:	a8 18       	sub	r10, r8
    81ec:	fb 2d       	mov	r31, r11
    81ee:	ff 77       	andi	r31, 0x7F	; 127
    81f0:	7f 2e       	mov	r7, r31
    81f2:	76 fe       	sbrs	r7, 6
    81f4:	0b c0       	rjmp	.+22     	; 0x820c <vfprintf+0x2c4>
    81f6:	37 2d       	mov	r19, r7
    81f8:	3e 7f       	andi	r19, 0xFE	; 254
    81fa:	a5 14       	cp	r10, r5
    81fc:	50 f4       	brcc	.+20     	; 0x8212 <vfprintf+0x2ca>
    81fe:	74 fe       	sbrs	r7, 4
    8200:	0a c0       	rjmp	.+20     	; 0x8216 <vfprintf+0x2ce>
    8202:	72 fc       	sbrc	r7, 2
    8204:	08 c0       	rjmp	.+16     	; 0x8216 <vfprintf+0x2ce>
    8206:	37 2d       	mov	r19, r7
    8208:	3e 7e       	andi	r19, 0xEE	; 238
    820a:	05 c0       	rjmp	.+10     	; 0x8216 <vfprintf+0x2ce>
    820c:	ba 2c       	mov	r11, r10
    820e:	37 2d       	mov	r19, r7
    8210:	03 c0       	rjmp	.+6      	; 0x8218 <vfprintf+0x2d0>
    8212:	ba 2c       	mov	r11, r10
    8214:	01 c0       	rjmp	.+2      	; 0x8218 <vfprintf+0x2d0>
    8216:	b5 2c       	mov	r11, r5
    8218:	34 ff       	sbrs	r19, 4
    821a:	0d c0       	rjmp	.+26     	; 0x8236 <vfprintf+0x2ee>
    821c:	fe 01       	movw	r30, r28
    821e:	ea 0d       	add	r30, r10
    8220:	f1 1d       	adc	r31, r1
    8222:	80 81       	ld	r24, Z
    8224:	80 33       	cpi	r24, 0x30	; 48
    8226:	11 f4       	brne	.+4      	; 0x822c <vfprintf+0x2e4>
    8228:	39 7e       	andi	r19, 0xE9	; 233
    822a:	09 c0       	rjmp	.+18     	; 0x823e <vfprintf+0x2f6>
    822c:	32 ff       	sbrs	r19, 2
    822e:	06 c0       	rjmp	.+12     	; 0x823c <vfprintf+0x2f4>
    8230:	b3 94       	inc	r11
    8232:	b3 94       	inc	r11
    8234:	04 c0       	rjmp	.+8      	; 0x823e <vfprintf+0x2f6>
    8236:	83 2f       	mov	r24, r19
    8238:	86 78       	andi	r24, 0x86	; 134
    823a:	09 f0       	breq	.+2      	; 0x823e <vfprintf+0x2f6>
    823c:	b3 94       	inc	r11
    823e:	33 fd       	sbrc	r19, 3
    8240:	12 c0       	rjmp	.+36     	; 0x8266 <vfprintf+0x31e>
    8242:	30 ff       	sbrs	r19, 0
    8244:	06 c0       	rjmp	.+12     	; 0x8252 <vfprintf+0x30a>
    8246:	5a 2c       	mov	r5, r10
    8248:	b3 14       	cp	r11, r3
    824a:	18 f4       	brcc	.+6      	; 0x8252 <vfprintf+0x30a>
    824c:	53 0c       	add	r5, r3
    824e:	5b 18       	sub	r5, r11
    8250:	b3 2c       	mov	r11, r3
    8252:	b3 14       	cp	r11, r3
    8254:	60 f4       	brcc	.+24     	; 0x826e <vfprintf+0x326>
    8256:	b7 01       	movw	r22, r14
    8258:	80 e2       	ldi	r24, 0x20	; 32
    825a:	90 e0       	ldi	r25, 0x00	; 0
    825c:	3c 87       	std	Y+12, r19	; 0x0c
    825e:	78 d0       	rcall	.+240    	; 0x8350 <fputc>
    8260:	b3 94       	inc	r11
    8262:	3c 85       	ldd	r19, Y+12	; 0x0c
    8264:	f6 cf       	rjmp	.-20     	; 0x8252 <vfprintf+0x30a>
    8266:	b3 14       	cp	r11, r3
    8268:	10 f4       	brcc	.+4      	; 0x826e <vfprintf+0x326>
    826a:	3b 18       	sub	r3, r11
    826c:	01 c0       	rjmp	.+2      	; 0x8270 <vfprintf+0x328>
    826e:	31 2c       	mov	r3, r1
    8270:	34 ff       	sbrs	r19, 4
    8272:	11 c0       	rjmp	.+34     	; 0x8296 <vfprintf+0x34e>
    8274:	b7 01       	movw	r22, r14
    8276:	80 e3       	ldi	r24, 0x30	; 48
    8278:	90 e0       	ldi	r25, 0x00	; 0
    827a:	3c 87       	std	Y+12, r19	; 0x0c
    827c:	69 d0       	rcall	.+210    	; 0x8350 <fputc>
    827e:	3c 85       	ldd	r19, Y+12	; 0x0c
    8280:	32 ff       	sbrs	r19, 2
    8282:	16 c0       	rjmp	.+44     	; 0x82b0 <vfprintf+0x368>
    8284:	31 fd       	sbrc	r19, 1
    8286:	03 c0       	rjmp	.+6      	; 0x828e <vfprintf+0x346>
    8288:	88 e7       	ldi	r24, 0x78	; 120
    828a:	90 e0       	ldi	r25, 0x00	; 0
    828c:	02 c0       	rjmp	.+4      	; 0x8292 <vfprintf+0x34a>
    828e:	88 e5       	ldi	r24, 0x58	; 88
    8290:	90 e0       	ldi	r25, 0x00	; 0
    8292:	b7 01       	movw	r22, r14
    8294:	0c c0       	rjmp	.+24     	; 0x82ae <vfprintf+0x366>
    8296:	83 2f       	mov	r24, r19
    8298:	86 78       	andi	r24, 0x86	; 134
    829a:	51 f0       	breq	.+20     	; 0x82b0 <vfprintf+0x368>
    829c:	31 ff       	sbrs	r19, 1
    829e:	02 c0       	rjmp	.+4      	; 0x82a4 <vfprintf+0x35c>
    82a0:	8b e2       	ldi	r24, 0x2B	; 43
    82a2:	01 c0       	rjmp	.+2      	; 0x82a6 <vfprintf+0x35e>
    82a4:	80 e2       	ldi	r24, 0x20	; 32
    82a6:	37 fd       	sbrc	r19, 7
    82a8:	8d e2       	ldi	r24, 0x2D	; 45
    82aa:	b7 01       	movw	r22, r14
    82ac:	90 e0       	ldi	r25, 0x00	; 0
    82ae:	50 d0       	rcall	.+160    	; 0x8350 <fputc>
    82b0:	a5 14       	cp	r10, r5
    82b2:	30 f4       	brcc	.+12     	; 0x82c0 <vfprintf+0x378>
    82b4:	b7 01       	movw	r22, r14
    82b6:	80 e3       	ldi	r24, 0x30	; 48
    82b8:	90 e0       	ldi	r25, 0x00	; 0
    82ba:	4a d0       	rcall	.+148    	; 0x8350 <fputc>
    82bc:	5a 94       	dec	r5
    82be:	f8 cf       	rjmp	.-16     	; 0x82b0 <vfprintf+0x368>
    82c0:	aa 94       	dec	r10
    82c2:	f4 01       	movw	r30, r8
    82c4:	ea 0d       	add	r30, r10
    82c6:	f1 1d       	adc	r31, r1
    82c8:	80 81       	ld	r24, Z
    82ca:	b7 01       	movw	r22, r14
    82cc:	90 e0       	ldi	r25, 0x00	; 0
    82ce:	40 d0       	rcall	.+128    	; 0x8350 <fputc>
    82d0:	a1 10       	cpse	r10, r1
    82d2:	f6 cf       	rjmp	.-20     	; 0x82c0 <vfprintf+0x378>
    82d4:	33 20       	and	r3, r3
    82d6:	09 f4       	brne	.+2      	; 0x82da <vfprintf+0x392>
    82d8:	5d ce       	rjmp	.-838    	; 0x7f94 <vfprintf+0x4c>
    82da:	b7 01       	movw	r22, r14
    82dc:	80 e2       	ldi	r24, 0x20	; 32
    82de:	90 e0       	ldi	r25, 0x00	; 0
    82e0:	37 d0       	rcall	.+110    	; 0x8350 <fputc>
    82e2:	3a 94       	dec	r3
    82e4:	f7 cf       	rjmp	.-18     	; 0x82d4 <vfprintf+0x38c>
    82e6:	f7 01       	movw	r30, r14
    82e8:	86 81       	ldd	r24, Z+6	; 0x06
    82ea:	97 81       	ldd	r25, Z+7	; 0x07
    82ec:	02 c0       	rjmp	.+4      	; 0x82f2 <vfprintf+0x3aa>
    82ee:	8f ef       	ldi	r24, 0xFF	; 255
    82f0:	9f ef       	ldi	r25, 0xFF	; 255
    82f2:	2c 96       	adiw	r28, 0x0c	; 12
    82f4:	0f b6       	in	r0, 0x3f	; 63
    82f6:	f8 94       	cli
    82f8:	de bf       	out	0x3e, r29	; 62
    82fa:	0f be       	out	0x3f, r0	; 63
    82fc:	cd bf       	out	0x3d, r28	; 61
    82fe:	df 91       	pop	r29
    8300:	cf 91       	pop	r28
    8302:	1f 91       	pop	r17
    8304:	0f 91       	pop	r16
    8306:	ff 90       	pop	r15
    8308:	ef 90       	pop	r14
    830a:	df 90       	pop	r13
    830c:	cf 90       	pop	r12
    830e:	bf 90       	pop	r11
    8310:	af 90       	pop	r10
    8312:	9f 90       	pop	r9
    8314:	8f 90       	pop	r8
    8316:	7f 90       	pop	r7
    8318:	6f 90       	pop	r6
    831a:	5f 90       	pop	r5
    831c:	4f 90       	pop	r4
    831e:	3f 90       	pop	r3
    8320:	2f 90       	pop	r2
    8322:	08 95       	ret

00008324 <strnlen_P>:
    8324:	fc 01       	movw	r30, r24
    8326:	05 90       	lpm	r0, Z+
    8328:	61 50       	subi	r22, 0x01	; 1
    832a:	70 40       	sbci	r23, 0x00	; 0
    832c:	01 10       	cpse	r0, r1
    832e:	d8 f7       	brcc	.-10     	; 0x8326 <strnlen_P+0x2>
    8330:	80 95       	com	r24
    8332:	90 95       	com	r25
    8334:	8e 0f       	add	r24, r30
    8336:	9f 1f       	adc	r25, r31
    8338:	08 95       	ret

0000833a <strnlen>:
    833a:	fc 01       	movw	r30, r24
    833c:	61 50       	subi	r22, 0x01	; 1
    833e:	70 40       	sbci	r23, 0x00	; 0
    8340:	01 90       	ld	r0, Z+
    8342:	01 10       	cpse	r0, r1
    8344:	d8 f7       	brcc	.-10     	; 0x833c <strnlen+0x2>
    8346:	80 95       	com	r24
    8348:	90 95       	com	r25
    834a:	8e 0f       	add	r24, r30
    834c:	9f 1f       	adc	r25, r31
    834e:	08 95       	ret

00008350 <fputc>:
    8350:	0f 93       	push	r16
    8352:	1f 93       	push	r17
    8354:	cf 93       	push	r28
    8356:	df 93       	push	r29
    8358:	fb 01       	movw	r30, r22
    835a:	23 81       	ldd	r18, Z+3	; 0x03
    835c:	21 fd       	sbrc	r18, 1
    835e:	03 c0       	rjmp	.+6      	; 0x8366 <fputc+0x16>
    8360:	8f ef       	ldi	r24, 0xFF	; 255
    8362:	9f ef       	ldi	r25, 0xFF	; 255
    8364:	28 c0       	rjmp	.+80     	; 0x83b6 <fputc+0x66>
    8366:	22 ff       	sbrs	r18, 2
    8368:	16 c0       	rjmp	.+44     	; 0x8396 <fputc+0x46>
    836a:	46 81       	ldd	r20, Z+6	; 0x06
    836c:	57 81       	ldd	r21, Z+7	; 0x07
    836e:	24 81       	ldd	r18, Z+4	; 0x04
    8370:	35 81       	ldd	r19, Z+5	; 0x05
    8372:	42 17       	cp	r20, r18
    8374:	53 07       	cpc	r21, r19
    8376:	44 f4       	brge	.+16     	; 0x8388 <fputc+0x38>
    8378:	a0 81       	ld	r26, Z
    837a:	b1 81       	ldd	r27, Z+1	; 0x01
    837c:	9d 01       	movw	r18, r26
    837e:	2f 5f       	subi	r18, 0xFF	; 255
    8380:	3f 4f       	sbci	r19, 0xFF	; 255
    8382:	31 83       	std	Z+1, r19	; 0x01
    8384:	20 83       	st	Z, r18
    8386:	8c 93       	st	X, r24
    8388:	26 81       	ldd	r18, Z+6	; 0x06
    838a:	37 81       	ldd	r19, Z+7	; 0x07
    838c:	2f 5f       	subi	r18, 0xFF	; 255
    838e:	3f 4f       	sbci	r19, 0xFF	; 255
    8390:	37 83       	std	Z+7, r19	; 0x07
    8392:	26 83       	std	Z+6, r18	; 0x06
    8394:	10 c0       	rjmp	.+32     	; 0x83b6 <fputc+0x66>
    8396:	eb 01       	movw	r28, r22
    8398:	09 2f       	mov	r16, r25
    839a:	18 2f       	mov	r17, r24
    839c:	00 84       	ldd	r0, Z+8	; 0x08
    839e:	f1 85       	ldd	r31, Z+9	; 0x09
    83a0:	e0 2d       	mov	r30, r0
    83a2:	09 95       	icall
    83a4:	89 2b       	or	r24, r25
    83a6:	e1 f6       	brne	.-72     	; 0x8360 <fputc+0x10>
    83a8:	8e 81       	ldd	r24, Y+6	; 0x06
    83aa:	9f 81       	ldd	r25, Y+7	; 0x07
    83ac:	01 96       	adiw	r24, 0x01	; 1
    83ae:	9f 83       	std	Y+7, r25	; 0x07
    83b0:	8e 83       	std	Y+6, r24	; 0x06
    83b2:	81 2f       	mov	r24, r17
    83b4:	90 2f       	mov	r25, r16
    83b6:	df 91       	pop	r29
    83b8:	cf 91       	pop	r28
    83ba:	1f 91       	pop	r17
    83bc:	0f 91       	pop	r16
    83be:	08 95       	ret

000083c0 <__ultoa_invert>:
    83c0:	fa 01       	movw	r30, r20
    83c2:	aa 27       	eor	r26, r26
    83c4:	28 30       	cpi	r18, 0x08	; 8
    83c6:	51 f1       	breq	.+84     	; 0x841c <__ultoa_invert+0x5c>
    83c8:	20 31       	cpi	r18, 0x10	; 16
    83ca:	81 f1       	breq	.+96     	; 0x842c <__ultoa_invert+0x6c>
    83cc:	e8 94       	clt
    83ce:	6f 93       	push	r22
    83d0:	6e 7f       	andi	r22, 0xFE	; 254
    83d2:	6e 5f       	subi	r22, 0xFE	; 254
    83d4:	7f 4f       	sbci	r23, 0xFF	; 255
    83d6:	8f 4f       	sbci	r24, 0xFF	; 255
    83d8:	9f 4f       	sbci	r25, 0xFF	; 255
    83da:	af 4f       	sbci	r26, 0xFF	; 255
    83dc:	b1 e0       	ldi	r27, 0x01	; 1
    83de:	3e d0       	rcall	.+124    	; 0x845c <__ultoa_invert+0x9c>
    83e0:	b4 e0       	ldi	r27, 0x04	; 4
    83e2:	3c d0       	rcall	.+120    	; 0x845c <__ultoa_invert+0x9c>
    83e4:	67 0f       	add	r22, r23
    83e6:	78 1f       	adc	r23, r24
    83e8:	89 1f       	adc	r24, r25
    83ea:	9a 1f       	adc	r25, r26
    83ec:	a1 1d       	adc	r26, r1
    83ee:	68 0f       	add	r22, r24
    83f0:	79 1f       	adc	r23, r25
    83f2:	8a 1f       	adc	r24, r26
    83f4:	91 1d       	adc	r25, r1
    83f6:	a1 1d       	adc	r26, r1
    83f8:	6a 0f       	add	r22, r26
    83fa:	71 1d       	adc	r23, r1
    83fc:	81 1d       	adc	r24, r1
    83fe:	91 1d       	adc	r25, r1
    8400:	a1 1d       	adc	r26, r1
    8402:	20 d0       	rcall	.+64     	; 0x8444 <__ultoa_invert+0x84>
    8404:	09 f4       	brne	.+2      	; 0x8408 <__ultoa_invert+0x48>
    8406:	68 94       	set
    8408:	3f 91       	pop	r19
    840a:	2a e0       	ldi	r18, 0x0A	; 10
    840c:	26 9f       	mul	r18, r22
    840e:	11 24       	eor	r1, r1
    8410:	30 19       	sub	r19, r0
    8412:	30 5d       	subi	r19, 0xD0	; 208
    8414:	31 93       	st	Z+, r19
    8416:	de f6       	brtc	.-74     	; 0x83ce <__ultoa_invert+0xe>
    8418:	cf 01       	movw	r24, r30
    841a:	08 95       	ret
    841c:	46 2f       	mov	r20, r22
    841e:	47 70       	andi	r20, 0x07	; 7
    8420:	40 5d       	subi	r20, 0xD0	; 208
    8422:	41 93       	st	Z+, r20
    8424:	b3 e0       	ldi	r27, 0x03	; 3
    8426:	0f d0       	rcall	.+30     	; 0x8446 <__ultoa_invert+0x86>
    8428:	c9 f7       	brne	.-14     	; 0x841c <__ultoa_invert+0x5c>
    842a:	f6 cf       	rjmp	.-20     	; 0x8418 <__ultoa_invert+0x58>
    842c:	46 2f       	mov	r20, r22
    842e:	4f 70       	andi	r20, 0x0F	; 15
    8430:	40 5d       	subi	r20, 0xD0	; 208
    8432:	4a 33       	cpi	r20, 0x3A	; 58
    8434:	18 f0       	brcs	.+6      	; 0x843c <__ultoa_invert+0x7c>
    8436:	49 5d       	subi	r20, 0xD9	; 217
    8438:	31 fd       	sbrc	r19, 1
    843a:	40 52       	subi	r20, 0x20	; 32
    843c:	41 93       	st	Z+, r20
    843e:	02 d0       	rcall	.+4      	; 0x8444 <__ultoa_invert+0x84>
    8440:	a9 f7       	brne	.-22     	; 0x842c <__ultoa_invert+0x6c>
    8442:	ea cf       	rjmp	.-44     	; 0x8418 <__ultoa_invert+0x58>
    8444:	b4 e0       	ldi	r27, 0x04	; 4
    8446:	a6 95       	lsr	r26
    8448:	97 95       	ror	r25
    844a:	87 95       	ror	r24
    844c:	77 95       	ror	r23
    844e:	67 95       	ror	r22
    8450:	ba 95       	dec	r27
    8452:	c9 f7       	brne	.-14     	; 0x8446 <__ultoa_invert+0x86>
    8454:	00 97       	sbiw	r24, 0x00	; 0
    8456:	61 05       	cpc	r22, r1
    8458:	71 05       	cpc	r23, r1
    845a:	08 95       	ret
    845c:	9b 01       	movw	r18, r22
    845e:	ac 01       	movw	r20, r24
    8460:	0a 2e       	mov	r0, r26
    8462:	06 94       	lsr	r0
    8464:	57 95       	ror	r21
    8466:	47 95       	ror	r20
    8468:	37 95       	ror	r19
    846a:	27 95       	ror	r18
    846c:	ba 95       	dec	r27
    846e:	c9 f7       	brne	.-14     	; 0x8462 <__ultoa_invert+0xa2>
    8470:	62 0f       	add	r22, r18
    8472:	73 1f       	adc	r23, r19
    8474:	84 1f       	adc	r24, r20
    8476:	95 1f       	adc	r25, r21
    8478:	a0 1d       	adc	r26, r0
    847a:	08 95       	ret

0000847c <eeprom_read_word>:
    847c:	a8 e1       	ldi	r26, 0x18	; 24
    847e:	b0 e0       	ldi	r27, 0x00	; 0
    8480:	42 e0       	ldi	r20, 0x02	; 2
    8482:	50 e0       	ldi	r21, 0x00	; 0
    8484:	02 c0       	rjmp	.+4      	; 0x848a <eeprom_read_blraw>

00008486 <eeprom_read_block>:
    8486:	dc 01       	movw	r26, r24
    8488:	cb 01       	movw	r24, r22

0000848a <eeprom_read_blraw>:
    848a:	fc 01       	movw	r30, r24
    848c:	f9 99       	sbic	0x1f, 1	; 31
    848e:	fe cf       	rjmp	.-4      	; 0x848c <eeprom_read_blraw+0x2>
    8490:	06 c0       	rjmp	.+12     	; 0x849e <eeprom_read_blraw+0x14>
    8492:	f2 bd       	out	0x22, r31	; 34
    8494:	e1 bd       	out	0x21, r30	; 33
    8496:	f8 9a       	sbi	0x1f, 0	; 31
    8498:	31 96       	adiw	r30, 0x01	; 1
    849a:	00 b4       	in	r0, 0x20	; 32
    849c:	0d 92       	st	X+, r0
    849e:	41 50       	subi	r20, 0x01	; 1
    84a0:	50 40       	sbci	r21, 0x00	; 0
    84a2:	b8 f7       	brcc	.-18     	; 0x8492 <eeprom_read_blraw+0x8>
    84a4:	08 95       	ret

000084a6 <_exit>:
    84a6:	f8 94       	cli

000084a8 <__stop_program>:
    84a8:	ff cf       	rjmp	.-2      	; 0x84a8 <__stop_program>
